     1                                  ;compiler version 1.1248839
     2                                  %include "macros.asm"
     3                              <1> %ifndef ilcgmacros
     4                              <1> %define ilcgmacros
     5                              <1> 
     6                              <1> 
     7                              <1> %macro floadlit 1
     8                              <1> section .data
     9                              <1> %%lit: dq %1
    10                              <1> 	section .text
    11                              <1> 	fld qword[%%lit]
    12                              <1> 	%endmacro
    13                              <1> 
    14                              <1> %macro rloadlit 2
    15                              <1> section .data
    16                              <1> %%lit: dd %2
    17                              <1> 	section .text
    18                              <1> 	mov %1, dword[%%lit]
    19                              <1> 	%endmacro
    20                              <1> %macro xrloadlit 2
    21                              <1> section .data
    22                              <1> %%lit: dd %2
    23                              <1> 	section .text
    24                              <1> 	movss %1, [%%lit]
    25                              <1> 	%endmacro
    26                              <1> %macro mmxrloadlit 2
    27                              <1> section .data
    28                              <1> %%lit: dd %2
    29                              <1> 	section .text
    30                              <1> 	movd %1, dword[%%lit]
    31                              <1> 	%endmacro
    32                              <1> 
    33                              <1> %macro filoadlit 1
    34                              <1> section .data
    35                              <1> %%lit: dq %1.0
    36                              <1> 	section .text
    37                              <1> 	fld qword[%%lit]
    38                              <1> 	%endmacro
    39                              <1> 
    40                              <1> %endif
    41                              <1> 
    42                                  section .text  
    43                                  ; procedure generated by code generator class ilcg.tree.IA32CG
    44                                  ; Walker version 0.43255946
    45                                  leab70b58c2129:
    46                                  ;	 tv
    47 00000000 C8000003                 enter   spacefortv-4*3,3
    48                                  ;53
    49 00000004 6805000000               push DWORD      5
    50 00000009 680C000000               push DWORD      12
    51 0000000E 8B5D08                   mov ebx,DWORD  [  ebp+     8]
    52 00000011 FF7308                   push DWORD  [  ebx+     8]
    53 00000014 6800000000               push DWORD      0
    54                                  	EXTERN _printint
    55 00000019 E8(00000000)             call _printint; imported
    56 0000001E 81C410000000             add esp, 16
    57                                  ;53
    58                                   leab70b58c212b:
    59                                  spacefortv equ 12
    60                                  tvexit:
    61 00000024 C9                      leave
    62 00000025 C20000                   ret 0
    63                                  section .text  
    64                                  ; procedure generated by code generator class ilcg.tree.IA32CG
    65                                  ; Walker version 0.43255946
    66                                  	GLOBAL _Pmain
    67                                  leab70b593012d:
    68                                  _Pmain:
    69 00000028 C8680C01                 enter   spaceforPmain-4*1,1
    70 0000002C E8630A0000               call unit$system
    71 00000031 E826280000               call unit$testunary
    72 00000036 E8452B0000               call unit$heaptest
    73 0000003B E881300000               call unit$iotest
    74 00000040 E828440000               call unit$vectests
    75 00000045 803D[30000000]01        cmp byte[Pmainready],1
    76 0000004C 7505                     jnz Pmaininit
    77 0000004E E96A010000               jmp Pmainexit
    78 00000053 C605[30000000]01        Pmaininit:mov byte[Pmainready],1
    79                                  ;59
    80 0000005A E81F280000               call lea9d31758a32f
    81 0000005F 81C400000000             add esp, 0
    82                                  ;60
    83 00000065 E8C3290000               call lea9d31758a332
    84 0000006A 81C400000000             add esp, 0
    85                                  ;61
    86 00000070 BB00000000               mov DWORD ebx,     0
    87                                   leab70b599e130:
    88 00000075 81FB07000000             cmp DWORD ebx,      7
    89 0000007B 0F8F21000000             jg near  leab70b599e131
    90                                   floadlit 0.0
    91                              <1> section .data
    92 00000000 0000000000000000    <1> %%lit: dq %1
    93                              <1> 	section .text
    94 00000081 DD05[00000000]      <1> 	fld qword[%%lit]
    95 00000087 D99C9DE0F9FFFF           fstp dword  [  ebp+ebx* 4+     -1568]
    96 0000008E 43                       inc DWORD ebx
    97                                   floadlit 0.0
    98                              <1> section .data
    99 00000008 0000000000000000    <1> %%lit: dq %1
   100                              <1> 	section .text
   101 0000008F DD05[08000000]      <1> 	fld qword[%%lit]
   102 00000095 D99C9DE0F9FFFF           fstp dword  [  ebp+ebx* 4+     -1568]
   103 0000009C 43                       inc DWORD ebx
   104 0000009D E9D3FFFFFF               jmp  leab70b599e130
   105                                   leab70b599e131:
   106                                  ;62
   107 000000A2 BB00000000               mov DWORD ebx,     0
   108                                   leab70b5a0c132:
   109 000000A7 81FB07000000             cmp DWORD ebx,      7
   110 000000AD 0F8FA5000000             jg near  leab70b5a0c133
   111 000000B3 D9849DE0F9FFFF           fld dword  [  ebp+ebx* 4+     -1568]
   112                                   floadlit 3.0
   113                              <1> section .data
   114 00000010 0000000000000840    <1> %%lit: dq %1
   115                              <1> 	section .text
   116 000000BA DD05[10000000]      <1> 	fld qword[%%lit]
   117 000000C0 D9C9                     fxch
   118 000000C2 DED9                     fcompp
   119 000000C4 6650                     push ax
   120 000000C6 9BDFE0                   fstsw ax
   121 000000C9 9E                       sahf
   122 000000CA 6658                     pop ax
   123 000000CC 0F92C0                   setc al 
   124 000000CF 20C0                     and al,al
   125 000000D1 0F8512000000             jnz near leab70b5a48134
   126 000000D7 D9849DE0F9FFFF           fld dword  [  ebp+ebx* 4+     -1568]
   127 000000DE D99D94F3FFFF             fstp dword  [  ebp+     -3180]
   128 000000E4 E90C000000               jmp  leab70b5a48135
   129                                   leab70b5a48134:
   130                                   floadlit 3.0
   131                              <1> section .data
   132 00000018 0000000000000840    <1> %%lit: dq %1
   133                              <1> 	section .text
   134 000000E9 DD05[18000000]      <1> 	fld qword[%%lit]
   135 000000EF D99D94F3FFFF             fstp dword  [  ebp+     -3180]
   136                                   leab70b5a48135:
   137 000000F5 D98594F3FFFF             fld dword  [  ebp+     -3180]
   138 000000FB D99C9DC0F9FFFF           fstp dword  [  ebp+ebx* 4+     -1600]
   139 00000102 43                       inc DWORD ebx
   140 00000103 D9849DE0F9FFFF           fld dword  [  ebp+ebx* 4+     -1568]
   141                                   floadlit 3.0
   142                              <1> section .data
   143 00000020 0000000000000840    <1> %%lit: dq %1
   144                              <1> 	section .text
   145 0000010A DD05[20000000]      <1> 	fld qword[%%lit]
   146 00000110 D9C9                     fxch
   147 00000112 DED9                     fcompp
   148 00000114 6650                     push ax
   149 00000116 9BDFE0                   fstsw ax
   150 00000119 9E                       sahf
   151 0000011A 6658                     pop ax
   152 0000011C 0F92C0                   setc al 
   153 0000011F 20C0                     and al,al
   154 00000121 0F8512000000             jnz near leab70b5b24136
   155 00000127 D9849DE0F9FFFF           fld dword  [  ebp+ebx* 4+     -1568]
   156 0000012E D99D94F3FFFF             fstp dword  [  ebp+     -3180]
   157 00000134 E90C000000               jmp  leab70b5b24137
   158                                   leab70b5b24136:
   159                                   floadlit 3.0
   160                              <1> section .data
   161 00000028 0000000000000840    <1> %%lit: dq %1
   162                              <1> 	section .text
   163 00000139 DD05[28000000]      <1> 	fld qword[%%lit]
   164 0000013F D99D94F3FFFF             fstp dword  [  ebp+     -3180]
   165                                   leab70b5b24137:
   166 00000145 D98594F3FFFF             fld dword  [  ebp+     -3180]
   167 0000014B D99C9DC0F9FFFF           fstp dword  [  ebp+ebx* 4+     -1600]
   168 00000152 43                       inc DWORD ebx
   169 00000153 E94FFFFFFF               jmp  leab70b5a0c132
   170                                   leab70b5a0c133:
   171                                  ;63
   172 00000158 6805000000               push DWORD      5
   173 0000015D 680C000000               push DWORD      12
   174 00000162 FFB5C4F9FFFF             push DWORD  [  ebp+     -1596]
   175 00000168 6800000000               push DWORD      0
   176                                  	EXTERN _printreal
   177 0000016D E8(00000000)             call _printreal; imported
   178 00000172 81C410000000             add esp, 16
   179                                  ;65
   180 00000178 E87E090000               call lea9d3146be1c2
   181 0000017D 81C400000000             add esp, 0
   182                                  ;68
   183 00000183 E85B2F0000               call leab70a42486
   184 00000188 81C400000000             add esp, 0
   185                                  ;70
   186 0000018E 6805000000               push DWORD      5
   187 00000193 680C000000               push DWORD      12
   188 00000198 68[34000000]             push DWORD  leab70b593012c
   189 0000019D 6800000000               push DWORD      0
   190                                  	EXTERN _printstring
   191 000001A2 E8(00000000)             call _printstring; imported
   192 000001A7 81C410000000             add esp, 16
   193 000001AD 6800000000               push DWORD      0
   194                                  	EXTERN _println
   195 000001B2 E8(00000000)             call _println; imported
   196 000001B7 81C404000000             add esp, 4
   197                                  ;72
   198                                   leab70b585411c:
   199                                  spaceforPmain equ 3180
   200                                  Pmainexit:
   201 000001BD C9                      leave
   202 000001BE C20000                   ret 0
   203                                  	SECTION .data
   204 00000030 00000000                Pmainready dd 0
   205                                   leab70b593012c:
   206 00000034 04                       db  4
   207 00000035 64                       db  100
   208 00000036 6F                       db  111
   209 00000037 6E                       db  110
   210 00000038 65                       db  101
   211 00000039 00                       db  0
   212                                   leab70b5890127:
   213 0000003A 0000803F                 dd 1.0
   214                                   leab70b5890126:
   215 0000003E 0AD7233C                 dd 0.01
   216                                   leab70b5890125:
   217 00000042 0000803F                 dd 1.0
   218                                   leab70b5854124:
   219 00000046 [5F000000]               dd leab70b5854121
   220 0000004A [58000000]               dd leab70b5854122
   221 0000004E [52000000]               dd leab70b5854123
   222                                   leab70b5854123:
   223 00000052 04                       db  4
   224 00000053 62                       db  98
   225 00000054 6C                       db  108
   226 00000055 75                       db  117
   227 00000056 65                       db  101
   228 00000057 00                       db  0
   229                                   leab70b5854122:
   230 00000058 05                       db  5
   231 00000059 67                       db  103
   232 0000005A 72                       db  114
   233 0000005B 65                       db  101
   234 0000005C 65                       db  101
   235 0000005D 6E                       db  110
   236 0000005E 00                       db  0
   237                                   leab70b5854121:
   238 0000005F 03                       db  3
   239 00000060 72                       db  114
   240 00000061 65                       db  101
   241 00000062 64                       db  100
   242 00000063 00                       db  0
   243                                   leab70b5854120:
   244 00000064 [80000000]               dd leab70b585411d
   245 00000068 [76000000]               dd leab70b585411e
   246 0000006C [70000000]               dd leab70b585411f
   247                                   leab70b585411f:
   248 00000070 04                       db  4
   249 00000071 74                       db  116
   250 00000072 69                       db  105
   251 00000073 6D                       db  109
   252 00000074 65                       db  101
   253 00000075 00                       db  0
   254                                   leab70b585411e:
   255 00000076 08                       db  8
   256 00000077 64                       db  100
   257 00000078 69                       db  105
   258 00000079 73                       db  115
   259 0000007A 74                       db  116
   260 0000007B 61                       db  97
   261 0000007C 6E                       db  110
   262 0000007D 63                       db  99
   263 0000007E 65                       db  101
   264 0000007F 00                       db  0
   265                                   leab70b585411d:
   266 00000080 04                       db  4
   267 00000081 6D                       db  109
   268 00000082 61                       db  97
   269 00000083 73                       db  115
   270 00000084 73                       db  115
   271 00000085 00                       db  0
   272                                  %include "./system.asm"
   273                              <1> %ifndef system
   274                              <1> %define system
   275                              <1> section .text  
   276                              <1> ; procedure generated by code generator class ilcg.tree.PentiumCG
   277                              <1> ; Walker version 0.43255946
   278                              <1> lea9d30e0d455:
   279                              <1> ;	 im
   280 000001C1 C8040002            <1>  enter   spaceforim-4*2,2
   281                              <1> ;471
   282 000001C5 D9450C              <1>  fld dword  [  ebp+     12]
   283 000001C8 D95DF4              <1>  fstp dword  [  ebp+     -12]
   284                              <1> ;471
   285                              <1>  lea9d30ef0218e:
   286 000001CB D945F4              <1>  fld dword  [  ebp+     -12]
   287                              <1> spaceforim equ 12
   288                              <1> imexit:
   289 000001CE C9                  <1> leave
   290 000001CF C20000              <1>  ret 0
   291                              <1> section .text  
   292                              <1> ; procedure generated by code generator class ilcg.tree.PentiumCG
   293                              <1> ; Walker version 0.43255946
   294                              <1> lea9d30e412b8:
   295                              <1> ;	 re
   296 000001D2 C8040002            <1>  enter   spaceforre-4*2,2
   297                              <1> ;470
   298 000001D6 D94508              <1>  fld dword  [  ebp+     8]
   299 000001D9 D95DF4              <1>  fstp dword  [  ebp+     -12]
   300                              <1> ;470
   301                              <1>  lea9d30eec618a:
   302 000001DC D945F4              <1>  fld dword  [  ebp+     -12]
   303                              <1> spaceforre equ 12
   304                              <1> reexit:
   305 000001DF C9                  <1> leave
   306 000001E0 C20000              <1>  ret 0
   307                              <1> section .text  
   308                              <1> ; procedure generated by code generator class ilcg.tree.PentiumCG
   309                              <1> ; Walker version 0.43255946
   310                              <1> lea9d30dff820:
   311                              <1> ;	 cmplx
   312 000001E3 C8080002            <1>  enter   spaceforcmplx-4*2,2
   313                              <1> ;468
   314 000001E7 D94508              <1>  fld dword  [  ebp+     8]
   315 000001EA D95DF0              <1>  fstp dword  [  ebp+     -16]
   316                              <1> ;468
   317 000001ED D9450C              <1>  fld dword  [  ebp+     12]
   318 000001F0 D95DF4              <1>  fstp dword  [  ebp+     -12]
   319                              <1> ;468
   320 000001F3 8B5D10              <1>  mov ebx,DWORD  [  ebp+     16]
   321 000001F6 0F6F4DF0            <1>  movq MM1, [  ebp+     -16]
   322 000001FA 0F7F0B              <1>  movq  [ ebx],MM1
   323                              <1> ;469
   324                              <1>  lea9d30ee26186:
   325                              <1> spaceforcmplx equ 16
   326                              <1> cmplxexit:
   327 000001FD 0F77                <1>  EMMS
   328 000001FF C9                  <1>  leave
   329 00000200 C20000              <1>  ret 0
   330                              <1> section .text  
   331                              <1> ; procedure generated by code generator class ilcg.tree.PentiumCG
   332                              <1> ; Walker version 0.43255946
   333                              <1> lea9d30e03426:
   334                              <1> ;	 complex_conjugate
   335 00000203 C8080002            <1>  enter   spaceforcomplex_conjugate-4*2,2
   336                              <1> ;461
   337 00000207 D94508              <1>  fld dword  [  ebp+     8]
   338 0000020A D95DF0              <1>  fstp dword  [  ebp+     -16]
   339                              <1> ;462
   340                              <1>  floadlit 0.0
   341                              <2> section .data
   342 00000086 0000000000000000    <2> %%lit: dq %1
   343                              <2> 	section .text
   344 0000020D DD05[86000000]      <2> 	fld qword[%%lit]
   345 00000213 D8650C              <1>  fsub DWORD  [  ebp+     12]
   346 00000216 D95DF4              <1>  fstp dword  [  ebp+     -12]
   347                              <1> ;463
   348 00000219 8B5D10              <1>  mov ebx,DWORD  [  ebp+     16]
   349 0000021C 0F6F4DF0            <1>  movq MM1, [  ebp+     -16]
   350 00000220 0F7F0B              <1>  movq  [ ebx],MM1
   351                              <1> ;464
   352                              <1>  lea9d30ee26182:
   353                              <1> spaceforcomplex_conjugate equ 16
   354                              <1> complex_conjugateexit:
   355 00000223 0F77                <1>  EMMS
   356 00000225 C9                  <1>  leave
   357 00000226 C20000              <1>  ret 0
   358                              <1> section .text  
   359                              <1> ; procedure generated by code generator class ilcg.tree.PentiumCG
   360                              <1> ; Walker version 0.43255946
   361                              <1> lea9d30edea17c:
   362                              <1> ;	 magnitude
   363 00000229 C80C0002            <1>  enter   spaceformagnitude-4*2,2
   364                              <1> ;456
   365 0000022D FF7508              <1>  push DWORD  [  ebp+     8]
   366 00000230 E823060000          <1>  call lea9d30e5caf0
   367 00000235 81C404000000        <1>  add esp, 4
   368 0000023B D95DF0              <1>  fstp dword  [  ebp+     -16]
   369 0000023E FF750C              <1>  push DWORD  [  ebp+     12]
   370 00000241 E812060000          <1>  call lea9d30e5caf0
   371 00000246 81C404000000        <1>  add esp, 4
   372 0000024C D95DEC              <1>  fstp dword  [  ebp+     -20]
   373 0000024F D945F0              <1>  fld dword  [  ebp+     -16]
   374 00000252 D845EC              <1>  fadd DWORD  [  ebp+     -20]
   375 00000255 D9FA                <1>   fsqrt
   376 00000257 D95DF4              <1>  fstp dword  [  ebp+     -12]
   377                              <1> ;457
   378                              <1>  lea9d30edea17e:
   379 0000025A D945F4              <1>  fld dword  [  ebp+     -12]
   380                              <1> spaceformagnitude equ 20
   381                              <1> magnitudeexit:
   382 0000025D C9                  <1> leave
   383 0000025E C20000              <1>  ret 0
   384                              <1> section .text  
   385                              <1> ; procedure generated by code generator class ilcg.tree.PentiumCG
   386                              <1> ; Walker version 0.43255946
   387                              <1> lea9d30dff823:
   388                              <1> ;	 complex_add
   389 00000261 C80C0002            <1>  enter   spaceforcomplex_add-4*2,2
   390                              <1> ;450
   391 00000265 BA00000000          <1>  mov DWORD edx,     0
   392                              <1>  lea9d3114fa191:
   393 0000026A 81FA01000000        <1>  cmp DWORD edx,      1
   394 00000270 0F8F1F000000        <1>  jg near  lea9d3114fa192
   395 00000276 D9449508            <1>  fld dword  [  ebp+edx* 4+     8]
   396 0000027A D8449510            <1>  fadd DWORD  [  ebp+edx* 4+     16]
   397 0000027E D95C95F0            <1>  fstp dword  [  ebp+edx* 4+     -16]
   398 00000282 42                  <1>  inc DWORD edx
   399 00000283 D9449508            <1>  fld dword  [  ebp+edx* 4+     8]
   400 00000287 D8449510            <1>  fadd DWORD  [  ebp+edx* 4+     16]
   401 0000028B D95C95F0            <1>  fstp dword  [  ebp+edx* 4+     -16]
   402 0000028F 42                  <1>  inc DWORD edx
   403 00000290 E9D5FFFFFF          <1>  jmp  lea9d3114fa191
   404                              <1>  lea9d3114fa192:
   405                              <1> ;452
   406 00000295 8B5D18              <1>  mov ebx,DWORD  [  ebp+     24]
   407 00000298 0F6F4DF0            <1>  movq MM1, [  ebp+     -16]
   408 0000029C 0F7F0B              <1>  movq  [ ebx],MM1
   409                              <1> ;453
   410                              <1>  lea9d30edb817a:
   411                              <1> spaceforcomplex_add equ 20
   412                              <1> complex_addexit:
   413 0000029F 0F77                <1>  EMMS
   414 000002A1 C9                  <1>  leave
   415 000002A2 C20000              <1>  ret 0
   416                              <1> section .text  
   417                              <1> ; procedure generated by code generator class ilcg.tree.PentiumCG
   418                              <1> ; Walker version 0.43255946
   419                              <1> lea9d30e0342f:
   420                              <1> ;	 complex_divide
   421 000002A5 C80C0002            <1>  enter   spaceforcomplex_divide-4*2,2
   422                              <1> ;437
   423 000002A9 D94510              <1>  fld dword  [  ebp+     16]
   424 000002AC D84D10              <1>  fmul DWORD  [  ebp+     16]
   425 000002AF D94514              <1>  fld dword  [  ebp+     20]
   426 000002B2 D84D14              <1>  fmul DWORD  [  ebp+     20]
   427 000002B5 DEC1                <1>  faddp st1
   428 000002B7 D95DEC              <1>  fstp dword  [  ebp+     -20]
   429                              <1> ;438
   430 000002BA D94508              <1>  fld dword  [  ebp+     8]
   431 000002BD D84D10              <1>  fmul DWORD  [  ebp+     16]
   432 000002C0 D9450C              <1>  fld dword  [  ebp+     12]
   433 000002C3 D84D14              <1>  fmul DWORD  [  ebp+     20]
   434 000002C6 DEC1                <1>  faddp st1
   435 000002C8 D875EC              <1>  fdiv DWORD  [  ebp+     -20]
   436 000002CB D95DF0              <1>  fstp dword  [  ebp+     -16]
   437                              <1> ;439
   438 000002CE D9450C              <1>  fld dword  [  ebp+     12]
   439 000002D1 D84D10              <1>  fmul DWORD  [  ebp+     16]
   440 000002D4 D94508              <1>  fld dword  [  ebp+     8]
   441 000002D7 D84D14              <1>  fmul DWORD  [  ebp+     20]
   442 000002DA DEE9                <1>  fsubp st1
   443 000002DC D875EC              <1>  fdiv DWORD  [  ebp+     -20]
   444 000002DF D95DF4              <1>  fstp dword  [  ebp+     -12]
   445                              <1> ;440
   446 000002E2 8B5D18              <1>  mov ebx,DWORD  [  ebp+     24]
   447 000002E5 0F6F4DF0            <1>  movq MM1, [  ebp+     -16]
   448 000002E9 0F7F0B              <1>  movq  [ ebx],MM1
   449                              <1> ;441
   450                              <1>  lea9d30ed4a176:
   451                              <1> spaceforcomplex_divide equ 20
   452                              <1> complex_divideexit:
   453 000002EC 0F77                <1>  EMMS
   454 000002EE C9                  <1>  leave
   455 000002EF C20000              <1>  ret 0
   456                              <1> section .text  
   457                              <1> ; procedure generated by code generator class ilcg.tree.PentiumCG
   458                              <1> ; Walker version 0.43255946
   459                              <1> lea9d30e0342c:
   460                              <1> ;	 complex_multiply
   461 000002F2 C8080002            <1>  enter   spaceforcomplex_multiply-4*2,2
   462                              <1> ;425
   463 000002F6 D94508              <1>  fld dword  [  ebp+     8]
   464 000002F9 D84D10              <1>  fmul DWORD  [  ebp+     16]
   465 000002FC D9450C              <1>  fld dword  [  ebp+     12]
   466 000002FF D84D14              <1>  fmul DWORD  [  ebp+     20]
   467 00000302 DEE9                <1>  fsubp st1
   468 00000304 D95DF0              <1>  fstp dword  [  ebp+     -16]
   469                              <1> ;426
   470 00000307 D94508              <1>  fld dword  [  ebp+     8]
   471 0000030A D84D14              <1>  fmul DWORD  [  ebp+     20]
   472 0000030D D9450C              <1>  fld dword  [  ebp+     12]
   473 00000310 D84D10              <1>  fmul DWORD  [  ebp+     16]
   474 00000313 DEC1                <1>  faddp st1
   475 00000315 D95DF4              <1>  fstp dword  [  ebp+     -12]
   476                              <1> ;427
   477 00000318 8B5D18              <1>  mov ebx,DWORD  [  ebp+     24]
   478 0000031B 0F6F4DF0            <1>  movq MM1, [  ebp+     -16]
   479 0000031F 0F7F0B              <1>  movq  [ ebx],MM1
   480                              <1> ;428
   481                              <1>  lea9d30eca0172:
   482                              <1> spaceforcomplex_multiply equ 16
   483                              <1> complex_multiplyexit:
   484 00000322 0F77                <1>  EMMS
   485 00000324 C9                  <1>  leave
   486 00000325 C20000              <1>  ret 0
   487                              <1> section .text  
   488                              <1> ; procedure generated by code generator class ilcg.tree.PentiumCG
   489                              <1> ; Walker version 0.43255946
   490                              <1> lea9d30e03429:
   491                              <1> ;	 complex_subtract
   492 00000328 C80C0002            <1>  enter   spaceforcomplex_subtract-4*2,2
   493                              <1> ;418
   494 0000032C BA00000000          <1>  mov DWORD edx,     0
   495                              <1>  lea9d3119e6193:
   496 00000331 81FA01000000        <1>  cmp DWORD edx,      1
   497 00000337 0F8F1F000000        <1>  jg near  lea9d3119e6194
   498 0000033D D9449508            <1>  fld dword  [  ebp+edx* 4+     8]
   499 00000341 D8649510            <1>  fsub DWORD  [  ebp+edx* 4+     16]
   500 00000345 D95C95F0            <1>  fstp dword  [  ebp+edx* 4+     -16]
   501 00000349 42                  <1>  inc DWORD edx
   502 0000034A D9449508            <1>  fld dword  [  ebp+edx* 4+     8]
   503 0000034E D8649510            <1>  fsub DWORD  [  ebp+edx* 4+     16]
   504 00000352 D95C95F0            <1>  fstp dword  [  ebp+edx* 4+     -16]
   505 00000356 42                  <1>  inc DWORD edx
   506 00000357 E9D5FFFFFF          <1>  jmp  lea9d3119e6193
   507                              <1>  lea9d3119e6194:
   508                              <1> ;419
   509 0000035C 8B5D18              <1>  mov ebx,DWORD  [  ebp+     24]
   510 0000035F 0F6F4DF0            <1>  movq MM1, [  ebp+     -16]
   511 00000363 0F7F0B              <1>  movq  [ ebx],MM1
   512                              <1> ;420
   513                              <1>  lea9d30ec0016e:
   514                              <1> spaceforcomplex_subtract equ 20
   515                              <1> complex_subtractexit:
   516 00000366 0F77                <1>  EMMS
   517 00000368 C9                  <1>  leave
   518 00000369 C20000              <1>  ret 0
   519                              <1> section .text  
   520                              <1> ; procedure generated by code generator class ilcg.tree.PentiumCG
   521                              <1> ; Walker version 0.43255946
   522                              <1> lea9d30e480cc:
   523                              <1> ;	 runerror
   524 0000036C C8000002            <1>  enter   spaceforrunerror-4*2,2
   525                              <1> ;410
   526 00000370 FF7508              <1>  push DWORD  [  ebp+     8]
   527 00000373 E80A000000          <1>  call lea9d30e5caf7
   528 00000378 81C404000000        <1>  add esp, 4
   529                              <1> ;411
   530                              <1>  lea9d30ec0016a:
   531                              <1> spaceforrunerror equ 8
   532                              <1> runerrorexit:
   533 0000037E C9                  <1> leave
   534 0000037F C20000              <1>  ret 0
   535                              <1> section .text  
   536                              <1> ; procedure generated by code generator class ilcg.tree.PentiumCG
   537                              <1> ; Walker version 0.43255946
   538                              <1> lea9d30e5caf7:
   539                              <1> ;	 halt
   540 00000382 C8000002            <1>  enter   spaceforhalt-4*2,2
   541                              <1> ;404
   542 00000386 FF7508              <1>  push DWORD  [  ebp+     8]
   543                              <1> 	EXTERN _pascalexit
   544 00000389 E8(00000000)        <1>  call _pascalexit; imported
   545 0000038E 81C404000000        <1>  add esp, 4
   546                              <1> ;405
   547                              <1>  lea9d30ec00166:
   548                              <1> spaceforhalt equ 8
   549                              <1> haltexit:
   550 00000394 C9                  <1> leave
   551 00000395 C20000              <1>  ret 0
   552                              <1> section .text  
   553                              <1> ; procedure generated by code generator class ilcg.tree.PentiumCG
   554                              <1> ; Walker version 0.43255946
   555                              <1> lea9d30ebc4160:
   556                              <1> ;	 printspaces
   557 00000398 C8080002            <1>  enter   spaceforprintspaces-4*2,2
   558                              <1> ;394
   559 0000039C 8B5D0C              <1>  mov ebx,DWORD  [  ebp+     12]
   560 0000039F 895DF0              <1>  mov DWORD  [  ebp+     -16],ebx
   561 000003A2 BA01000000          <1>  mov DWORD edx,     1
   562                              <1>  lea9d311afe196:
   563 000003A7 3B55F0              <1>  cmp edx,DWORD    [  ebp+     -16]
   564 000003AA 0F8F23000000        <1>  jg near  lea9d311afe197
   565 000003B0 6801000000          <1>  push DWORD      1
   566 000003B5 6801000000          <1>  push DWORD      1
   567 000003BA 6820000000          <1>  push DWORD      32
   568 000003BF FF7508              <1>  push DWORD  [  ebp+     8]
   569                              <1> 	EXTERN _printchar
   570 000003C2 E8(00000000)        <1>  call _printchar; imported
   571 000003C7 81C410000000        <1>  add esp, 16
   572 000003CD 42                  <1>  inc DWORD edx
   573 000003CE E9D4FFFFFF          <1>  jmp  lea9d311afe196
   574                              <1>  lea9d311afe197:
   575                              <1> ;395
   576                              <1>  lea9d30ebc4162:
   577                              <1> spaceforprintspaces equ 16
   578                              <1> printspacesexit:
   579 000003D3 C9                  <1> leave
   580 000003D4 C20000              <1>  ret 0
   581                              <1> section .text  
   582                              <1> ; procedure generated by code generator class ilcg.tree.PentiumCG
   583                              <1> ; Walker version 0.43255946
   584                              <1> lea9d30e11063:
   585                              <1> ;	 length
   586 000003D7 C8050002            <1>  enter   spaceforlength-4*2,2
   587                              <1> ;385
   588 000003DB 8B5D08              <1>  mov ebx,DWORD  [  ebp+     8]
   589 000003DE 8B7D08              <1>  mov edi,DWORD  [  ebp+     8]
   590 000003E1 8B7F04              <1>  mov edi,DWORD  [  edi+     4]
   591 000003E4 F7DF                <1>  neg  edi
   592 000003E6 8A3C3B              <1>  mov bh,BYTE  [  ebx+edi]
   593 000003E9 887DF3              <1>  mov byte  [  ebp+     -13],bh
   594                              <1> ;386
   595 000003EC 8A7DF3              <1>  mov bh,BYTE  [  ebp+     -13]
   596 000003EF 0FB6DF              <1>  movzx ebx,   bh
   597 000003F2 895DF4              <1>  mov DWORD  [  ebp+     -12],ebx
   598                              <1> ;387
   599                              <1>  lea9d30ebc415e:
   600 000003F5 8B45F4              <1>  mov eax,DWORD  [  ebp+     -12]
   601                              <1> spaceforlength equ 13
   602                              <1> lengthexit:
   603 000003F8 C9                  <1> leave
   604 000003F9 C20000              <1>  ret 0
   605                              <1> section .text  
   606                              <1> ; procedure generated by code generator class ilcg.tree.PentiumCG
   607                              <1> ; Walker version 0.43255946
   608                              <1> lea9d30e412b5:
   609                              <1> ;	 randomize
   610 000003FC C8040002            <1>  enter   spaceforrandomize-4*2,2
   611                              <1> ;376
   612                              <1> 	EXTERN _time
   613 00000400 E8(00000000)        <1>  call _time; imported
   614 00000405 81C400000000        <1>  add esp, 0
   615 0000040B 8945F4              <1>  mov DWORD  [  ebp+     -12],eax
   616 0000040E FF75F4              <1>  push DWORD  [  ebp+     -12]
   617                              <1> 	EXTERN _srand
   618 00000411 E8(00000000)        <1>  call _srand; imported
   619 00000416 81C404000000        <1>  add esp, 4
   620                              <1> ;377
   621                              <1>  lea9d30ebc415a:
   622                              <1> spaceforrandomize equ 12
   623                              <1> randomizeexit:
   624 0000041C C9                  <1> leave
   625 0000041D C20000              <1>  ret 0
   626                              <1> 	EXTERN _srand
   627                              <1> 	EXTERN _srand
   628                              <1> 	EXTERN _time
   629                              <1> 	EXTERN _time
   630                              <1> section .text  
   631                              <1> ; procedure generated by code generator class ilcg.tree.PentiumCG
   632                              <1> ; Walker version 0.43255946
   633                              <1> lea9d30e444c3:
   634                              <1> ;	 ripow
   635 00000420 C80C0002            <1>  enter   spaceforripow-4*2,2
   636                              <1> ;370
   637 00000424 817D0C00000000      <1>  cmp DWORD  [  ebp+     12],      0
   638 0000042B 0F8463000000        <1>  jz near  lea9d311dc419b
   639 00000431 817D0C00000000      <1>  cmp DWORD  [  ebp+     12],      0
   640 00000438 0F8F2D000000        <1>  jg near  lea9d311e3219d
   641 0000043E 6800000000          <1>  push DWORD      0
   642 00000443 8B5D0C              <1>  mov ebx,DWORD  [  ebp+     12]
   643 00000446 291C24              <1>  sub  dword[esp] ,ebx
   644 00000449 FF7508              <1>  push DWORD  [  ebp+     8]
   645 0000044C E8CFFFFFFF          <1>  call lea9d30e444c3
   646 00000451 81C408000000        <1>  add esp, 8
   647 00000457 D95DEC              <1>  fstp dword  [  ebp+     -20]
   648                              <1>  floadlit 1.0
   649                              <2> section .data
   650 0000008E 000000000000F03F    <2> %%lit: dq %1
   651                              <2> 	section .text
   652 0000045A DD05[8E000000]      <2> 	fld qword[%%lit]
   653 00000460 D875EC              <1>  fdiv DWORD  [  ebp+     -20]
   654 00000463 D95DF4              <1>  fstp dword  [  ebp+     -12]
   655 00000466 E924000000          <1>  jmp  lea9d311e3219e
   656                              <1>  lea9d311e3219d:
   657 0000046B FF750C              <1>  push DWORD  [  ebp+     12]
   658 0000046E 812C2401000000      <1>  sub  dword[esp] ,     1
   659 00000475 FF7508              <1>  push DWORD  [  ebp+     8]
   660 00000478 E8A3FFFFFF          <1>  call lea9d30e444c3
   661 0000047D 81C408000000        <1>  add esp, 8
   662 00000483 D95DF0              <1>  fstp dword  [  ebp+     -16]
   663 00000486 D945F0              <1>  fld dword  [  ebp+     -16]
   664 00000489 D84D08              <1>  fmul DWORD  [  ebp+     8]
   665 0000048C D95DF4              <1>  fstp dword  [  ebp+     -12]
   666                              <1>  lea9d311e3219e:
   667 0000048F E909000000          <1>  jmp  lea9d311dc419c
   668                              <1>  lea9d311dc419b:
   669                              <1>  floadlit 1.0
   670                              <2> section .data
   671 00000096 000000000000F03F    <2> %%lit: dq %1
   672                              <2> 	section .text
   673 00000494 DD05[96000000]      <2> 	fld qword[%%lit]
   674 0000049A D95DF4              <1>  fstp dword  [  ebp+     -12]
   675                              <1>  lea9d311dc419c:
   676                              <1> ;371
   677                              <1>  lea9d30eb9214e:
   678 0000049D D945F4              <1>  fld dword  [  ebp+     -12]
   679                              <1> spaceforripow equ 20
   680                              <1> ripowexit:
   681 000004A0 C9                  <1> leave
   682 000004A1 C20000              <1>  ret 0
   683                              <1> section .text  
   684                              <1> ; procedure generated by code generator class ilcg.tree.PentiumCG
   685                              <1> ; Walker version 0.43255946
   686                              <1> lea9d30e480c6:
   687                              <1> ;	 iipow
   688 000004A4 C80C0002            <1>  enter   spaceforiipow-4*2,2
   689                              <1> ;364
   690 000004A8 817D0C00000000      <1>  cmp DWORD  [  ebp+     12],      0
   691 000004AF 0F846D000000        <1>  jz near  lea9d31221019f
   692 000004B5 817D0C00000000      <1>  cmp DWORD  [  ebp+     12],      0
   693 000004BC 0F8F36000000        <1>  jg near  lea9d3122421a1
   694 000004C2 6800000000          <1>  push DWORD      0
   695 000004C7 8B5D0C              <1>  mov ebx,DWORD  [  ebp+     12]
   696 000004CA 291C24              <1>  sub  dword[esp] ,ebx
   697 000004CD FF7508              <1>  push DWORD  [  ebp+     8]
   698 000004D0 E8CFFFFFFF          <1>  call lea9d30e480c6
   699 000004D5 81C408000000        <1>  add esp, 8
   700 000004DB 8945EC              <1>  mov DWORD  [  ebp+     -20],eax
   701 000004DE B801000000          <1>  mov DWORD eax,     1
   702 000004E3 8B4DEC              <1>  mov ecx,DWORD  [  ebp+     -20]
   703 000004E6 52                  <1>  push edx
   704 000004E7 31D2                <1>  xor edx,edx
   705 000004E9 F7F9                <1>  idiv   ecx
   706 000004EB 870424              <1>  xchg eax,dword[esp]
   707 000004EE 92                  <1>  xchg eax,edx
   708 000004EF 5B                  <1>  pop dword ebx
   709 000004F0 895DF4              <1>  mov DWORD  [  ebp+     -12],ebx
   710 000004F3 E925000000          <1>  jmp  lea9d3122421a2
   711                              <1>  lea9d3122421a1:
   712 000004F8 FF750C              <1>  push DWORD  [  ebp+     12]
   713 000004FB 812C2401000000      <1>  sub  dword[esp] ,     1
   714 00000502 FF7508              <1>  push DWORD  [  ebp+     8]
   715 00000505 E89AFFFFFF          <1>  call lea9d30e480c6
   716 0000050A 81C408000000        <1>  add esp, 8
   717 00000510 8945F0              <1>  mov DWORD  [  ebp+     -16],eax
   718 00000513 8B5DF0              <1>  mov ebx,DWORD  [  ebp+     -16]
   719 00000516 0FAF5D08            <1>  imul  ebx, [  ebp+     8]
   720 0000051A 895DF4              <1>  mov DWORD  [  ebp+     -12],ebx
   721                              <1>  lea9d3122421a2:
   722 0000051D E907000000          <1>  jmp  lea9d3122101a0
   723                              <1>  lea9d31221019f:
   724 00000522 C745F401000000      <1>  mov DWORD  [  ebp+     -12],     1
   725                              <1>  lea9d3122101a0:
   726                              <1> ;365
   727                              <1>  lea9d30eb2414a:
   728 00000529 8B45F4              <1>  mov eax,DWORD  [  ebp+     -12]
   729                              <1> spaceforiipow equ 20
   730                              <1> iipowexit:
   731 0000052C C9                  <1> leave
   732 0000052D C20000              <1>  ret 0
   733                              <1> section .text  
   734                              <1> ; procedure generated by code generator class ilcg.tree.PentiumCG
   735                              <1> ; Walker version 0.43255946
   736                              <1> lea9d30e480c9:
   737                              <1> ;	 rpow
   738 00000530 C8080002            <1>  enter   spaceforrpow-4*2,2
   739                              <1> ;358
   740 00000534 D94508              <1>  fld dword  [  ebp+     8]
   741 00000537 D9ED                <1>   fldln2
   742 00000539 D9C9                <1>  fxch
   743 0000053B D9F1                <1>  fyl2x
   744 0000053D D84D0C              <1>  fmul DWORD  [  ebp+     12]
   745 00000540 81EC04000000        <1>  sub esp,4
   746 00000546 D91C24              <1>  fstp dword [esp]
   747 00000549 E816000000          <1>  call lea9d30e0663e
   748 0000054E 81C404000000        <1>  add esp, 4
   749 00000554 D95DF0              <1>  fstp dword  [  ebp+     -16]
   750 00000557 D945F0              <1>  fld dword  [  ebp+     -16]
   751 0000055A D95DF4              <1>  fstp dword  [  ebp+     -12]
   752                              <1> ;359
   753                              <1>  lea9d30eae8146:
   754 0000055D D945F4              <1>  fld dword  [  ebp+     -12]
   755                              <1> spaceforrpow equ 16
   756                              <1> rpowexit:
   757 00000560 C9                  <1> leave
   758 00000561 C20000              <1>  ret 0
   759                              <1> section .text  
   760                              <1> ; procedure generated by code generator class ilcg.tree.PentiumCG
   761                              <1> ; Walker version 0.43255946
   762                              <1> lea9d30e0663e:
   763                              <1> ;	 exp
   764 00000564 C82C0002            <1>  enter   spaceforexp-4*2,2
   765                              <1> ;353
   766 00000568 D94508              <1>  fld dword  [  ebp+     8]
   767                              <1>  floadlit 88.02969193111305
   768                              <2> section .data
   769 0000009E 7B45FC78E6015640    <2> %%lit: dq %1
   770                              <2> 	section .text
   771 0000056B DD05[9E000000]      <2> 	fld qword[%%lit]
   772 00000571 D9C9                <1>  fxch
   773 00000573 DED9                <1>  fcompp
   774 00000575 6650                <1>  push ax
   775 00000577 9BDFE0              <1>  fstsw ax
   776 0000057A 9E                  <1>  sahf
   777 0000057B 6658                <1>  pop ax
   778 0000057D 0F93C3              <1>  setnc bl 
   779 00000580 20DB                <1>  and bl,bl
   780 00000582 0F8557010000        <1>  jnz near lea9d3124a41a3
   781 00000588 D94508              <1>  fld dword  [  ebp+     8]
   782                              <1>  floadlit -88.722839111673
   783                              <2> section .data
   784 000000A6 EF39FAFE422E56C0    <2> %%lit: dq %1
   785                              <2> 	section .text
   786 0000058B DD05[A6000000]      <2> 	fld qword[%%lit]
   787 00000591 D9C9                <1>  fxch
   788 00000593 DED9                <1>  fcompp
   789 00000595 6650                <1>  push ax
   790 00000597 9BDFE0              <1>  fstsw ax
   791 0000059A 9E                  <1>  sahf
   792 0000059B 6658                <1>  pop ax
   793 0000059D 0F92C3              <1>  setc bl 
   794 000005A0 20DB                <1>  and bl,bl
   795 000005A2 0F8522010000        <1>  jnz near lea9d3125801a5
   796                              <1> ;337
   797 000005A8 D94508              <1>  fld dword  [  ebp+     8]
   798                              <1>  floadlit 1.4426950408889634
   799                              <2> section .data
   800 000000AE FE822B654715F73F    <2> %%lit: dq %1
   801                              <2> 	section .text
   802 000005AB DD05[AE000000]      <2> 	fld qword[%%lit]
   803 000005B1 DEC9                <1>  fmulp st1
   804 000005B3 D95DEC              <1>  fstp dword  [  ebp+     -20]
   805                              <1> ;338
   806 000005B6 D945EC              <1>  fld dword  [  ebp+     -20]
   807                              <1>  floadlit 0.5
   808                              <2> section .data
   809 000000B6 000000000000E03F    <2> %%lit: dq %1
   810                              <2> 	section .text
   811 000005B9 DD05[B6000000]      <2> 	fld qword[%%lit]
   812 000005BF DEC1                <1>  faddp st1
   813 000005C1 81EC04000000        <1>  sub esp,4
   814 000005C7 D91C24              <1>  fstp dword [esp]
   815                              <1> 	EXTERN _trunc
   816 000005CA E8(00000000)        <1>  call _trunc; imported
   817 000005CF 81C404000000        <1>  add esp, 4
   818 000005D5 8945E0              <1>  mov DWORD  [  ebp+     -32],eax
   819 000005D8 DB45E0              <1>  fild DWORD  [  ebp+     -32]
   820 000005DB D95DE8              <1>  fstp dword  [  ebp+     -24]
   821                              <1> ;339
   822 000005DE FF75E8              <1>  push DWORD  [  ebp+     -24]
   823                              <1> 	EXTERN _trunc
   824 000005E1 E8(00000000)        <1>  call _trunc; imported
   825 000005E6 81C404000000        <1>  add esp, 4
   826 000005EC 8945DC              <1>  mov DWORD  [  ebp+     -36],eax
   827 000005EF 8B5DDC              <1>  mov ebx,DWORD  [  ebp+     -36]
   828 000005F2 895DF0              <1>  mov DWORD  [  ebp+     -16],ebx
   829                              <1> ;340
   830 000005F5 D94508              <1>  fld dword  [  ebp+     8]
   831 000005F8 D945E8              <1>  fld dword  [  ebp+     -24]
   832                              <1>  floadlit 0.693359375
   833                              <2> section .data
   834 000000BE 000000000030E63F    <2> %%lit: dq %1
   835                              <2> 	section .text
   836 000005FB DD05[BE000000]      <2> 	fld qword[%%lit]
   837 00000601 DEC9                <1>  fmulp st1
   838 00000603 DEE9                <1>  fsubp st1
   839 00000605 D95D08              <1>  fstp dword  [  ebp+     8]
   840                              <1> ;341
   841 00000608 D94508              <1>  fld dword  [  ebp+     8]
   842 0000060B D945E8              <1>  fld dword  [  ebp+     -24]
   843                              <1>  floadlit 2.1219444005469057E-4
   844                              <2> section .data
   845 000000C6 A80C615C10D02B3F    <2> %%lit: dq %1
   846                              <2> 	section .text
   847 0000060E DD05[C6000000]      <2> 	fld qword[%%lit]
   848 00000614 DEC9                <1>  fmulp st1
   849 00000616 DEC1                <1>  faddp st1
   850 00000618 D95D08              <1>  fstp dword  [  ebp+     8]
   851                              <1> ;346
   852 0000061B D94508              <1>  fld dword  [  ebp+     8]
   853 0000061E D84D08              <1>  fmul DWORD  [  ebp+     8]
   854 00000621 D95DE4              <1>  fstp dword  [  ebp+     -28]
   855                              <1> ;347
   856 00000624 6802000000          <1>  push DWORD      2
   857 00000629 68[4C010000]        <1>  push DWORD  lea9d30e99e141
   858 0000062E 55                  <1>  push ebp
   859 0000062F 810424E4FFFFFF      <1>  add  dword[esp] ,     -28
   860 00000636 E807010000          <1>  call lea9d30e854136
   861 0000063B 81C40C000000        <1>  add esp, 12
   862 00000641 D95DD8              <1>  fstp dword  [  ebp+     -40]
   863 00000644 D94508              <1>  fld dword  [  ebp+     8]
   864 00000647 D84DD8              <1>  fmul DWORD  [  ebp+     -40]
   865 0000064A D95DEC              <1>  fstp dword  [  ebp+     -20]
   866                              <1> ;348
   867 0000064D 6803000000          <1>  push DWORD      3
   868 00000652 68[30010000]        <1>  push DWORD  lea9d30e9da142
   869 00000657 55                  <1>  push ebp
   870 00000658 810424E4FFFFFF      <1>  add  dword[esp] ,     -28
   871 0000065F E8DE000000          <1>  call lea9d30e854136
   872 00000664 81C40C000000        <1>  add esp, 12
   873 0000066A D95DD4              <1>  fstp dword  [  ebp+     -44]
   874 0000066D D945EC              <1>  fld dword  [  ebp+     -20]
   875 00000670 D945D4              <1>  fld dword  [  ebp+     -44]
   876 00000673 D865EC              <1>  fsub DWORD  [  ebp+     -20]
   877 00000676 DEF9                <1>  fdivp st1
   878 00000678 D95D08              <1>  fstp dword  [  ebp+     8]
   879                              <1> ;349
   880 0000067B 6801000000          <1>  push DWORD      1
   881 00000680 FF7508              <1>  push DWORD  [  ebp+     8]
   882 00000683 E8FE000000          <1>  call lea9d30e7b412e
   883 00000688 81C408000000        <1>  add esp, 8
   884 0000068E D95DD0              <1>  fstp dword  [  ebp+     -48]
   885 00000691 D945D0              <1>  fld dword  [  ebp+     -48]
   886 00000694 D95D08              <1>  fstp dword  [  ebp+     8]
   887                              <1> ;350
   888 00000697 D94508              <1>  fld dword  [  ebp+     8]
   889                              <1>  floadlit 1.0
   890                              <2> section .data
   891 000000CE 000000000000F03F    <2> %%lit: dq %1
   892                              <2> 	section .text
   893 0000069A DD05[CE000000]      <2> 	fld qword[%%lit]
   894 000006A0 DEC1                <1>  faddp st1
   895 000006A2 D95D08              <1>  fstp dword  [  ebp+     8]
   896                              <1> ;351
   897 000006A5 FF75F0              <1>  push DWORD  [  ebp+     -16]
   898 000006A8 FF7508              <1>  push DWORD  [  ebp+     8]
   899 000006AB E8D6000000          <1>  call lea9d30e7b412e
   900 000006B0 81C408000000        <1>  add esp, 8
   901 000006B6 D95DCC              <1>  fstp dword  [  ebp+     -52]
   902 000006B9 D945CC              <1>  fld dword  [  ebp+     -52]
   903 000006BC D95D08              <1>  fstp dword  [  ebp+     8]
   904                              <1> ;352
   905 000006BF D94508              <1>  fld dword  [  ebp+     8]
   906 000006C2 D95DF4              <1>  fstp dword  [  ebp+     -12]
   907                              <1> ;353
   908 000006C5 E910000000          <1>  jmp  lea9d3125801a6
   909                              <1>  lea9d3125801a5:
   910                              <1> ;328
   911 000006CA 68CD000000          <1>  push DWORD      205
   912 000006CF E898FCFFFF          <1>  call lea9d30e480cc
   913 000006D4 81C404000000        <1>  add esp, 4
   914                              <1> ;329
   915                              <1>  lea9d3125801a6:
   916 000006DA E910000000          <1>  jmp  lea9d3124a41a4
   917                              <1>  lea9d3124a41a3:
   918 000006DF 68CD000000          <1>  push DWORD      205
   919 000006E4 E883FCFFFF          <1>  call lea9d30e480cc
   920 000006E9 81C404000000        <1>  add esp, 4
   921                              <1>  lea9d3124a41a4:
   922                              <1> ;354
   923                              <1>  lea9d30e96c140:
   924 000006EF D945F4              <1>  fld dword  [  ebp+     -12]
   925                              <1> spaceforexp equ 52
   926                              <1> expexit:
   927 000006F2 C9                  <1> leave
   928 000006F3 C20000              <1>  ret 0
   929                              <1> section .text  
   930                              <1> ; procedure generated by code generator class ilcg.tree.PentiumCG
   931                              <1> ; Walker version 0.43255946
   932                              <1> lea9d30e93013a:
   933                              <1> ;	 p1evl
   934 000006F6 C8100002            <1>  enter   spaceforp1evl-4*2,2
   935                              <1> ;277
   936 000006FA 8B5D08              <1>  mov ebx,DWORD  [  ebp+     8]
   937 000006FD D903                <1>  fld dword  [ ebx]
   938 000006FF 8B5D0C              <1>  mov ebx,DWORD  [  ebp+     12]
   939 00000702 D803                <1>  fadd DWORD  [ ebx]
   940 00000704 D95DF0              <1>  fstp dword  [  ebp+     -16]
   941                              <1> ;279
   942 00000707 8B5D10              <1>  mov ebx,DWORD  [  ebp+     16]
   943 0000070A 8D5BFF              <1>  lea ebx,[  ebx-(     1)]
   944 0000070D 895DE8              <1>  mov DWORD  [  ebp+     -24],ebx
   945 00000710 BA01000000          <1>  mov DWORD edx,     1
   946                              <1>  lea9d312c241a9:
   947 00000715 3B55E8              <1>  cmp edx,DWORD    [  ebp+     -24]
   948 00000718 0F8F17000000        <1>  jg near  lea9d312c241aa
   949 0000071E D945F0              <1>  fld dword  [  ebp+     -16]
   950 00000721 8B5D08              <1>  mov ebx,DWORD  [  ebp+     8]
   951 00000724 D80B                <1>  fmul DWORD  [ ebx]
   952 00000726 8B5D0C              <1>  mov ebx,DWORD  [  ebp+     12]
   953 00000729 D80493              <1>  fadd DWORD  [  ebx+edx* 4]
   954 0000072C D95DF0              <1>  fstp dword  [  ebp+     -16]
   955 0000072F 42                  <1>  inc DWORD edx
   956 00000730 E9E0FFFFFF          <1>  jmp  lea9d312c241a9
   957                              <1>  lea9d312c241aa:
   958                              <1> ;280
   959 00000735 D945F0              <1>  fld dword  [  ebp+     -16]
   960 00000738 D95DF4              <1>  fstp dword  [  ebp+     -12]
   961                              <1> ;281
   962                              <1>  lea9d30e93013c:
   963 0000073B D945F4              <1>  fld dword  [  ebp+     -12]
   964                              <1> spaceforp1evl equ 24
   965                              <1> p1evlexit:
   966 0000073E C9                  <1> leave
   967 0000073F C20000              <1>  ret 0
   968                              <1> section .text  
   969                              <1> ; procedure generated by code generator class ilcg.tree.PentiumCG
   970                              <1> ; Walker version 0.43255946
   971                              <1> lea9d30e854136:
   972                              <1> ;	 polevl
   973 00000742 C8100002            <1>  enter   spaceforpolevl-4*2,2
   974                              <1> ;261
   975 00000746 8B5D0C              <1>  mov ebx,DWORD  [  ebp+     12]
   976 00000749 D903                <1>  fld dword  [ ebx]
   977 0000074B D95DF0              <1>  fstp dword  [  ebp+     -16]
   978                              <1> ;262
   979 0000074E 8B5D10              <1>  mov ebx,DWORD  [  ebp+     16]
   980 00000751 895DE8              <1>  mov DWORD  [  ebp+     -24],ebx
   981 00000754 BA01000000          <1>  mov DWORD edx,     1
   982                              <1>  lea9d312ddc1ab:
   983 00000759 3B55E8              <1>  cmp edx,DWORD    [  ebp+     -24]
   984 0000075C 0F8F17000000        <1>  jg near  lea9d312ddc1ac
   985 00000762 D945F0              <1>  fld dword  [  ebp+     -16]
   986 00000765 8B5D08              <1>  mov ebx,DWORD  [  ebp+     8]
   987 00000768 D80B                <1>  fmul DWORD  [ ebx]
   988 0000076A 8B5D0C              <1>  mov ebx,DWORD  [  ebp+     12]
   989 0000076D D80493              <1>  fadd DWORD  [  ebx+edx* 4]
   990 00000770 D95DF0              <1>  fstp dword  [  ebp+     -16]
   991 00000773 42                  <1>  inc DWORD edx
   992 00000774 E9E0FFFFFF          <1>  jmp  lea9d312ddc1ab
   993                              <1>  lea9d312ddc1ac:
   994                              <1> ;263
   995 00000779 D945F0              <1>  fld dword  [  ebp+     -16]
   996 0000077C D95DF4              <1>  fstp dword  [  ebp+     -12]
   997                              <1> ;264
   998                              <1>  lea9d30e890138:
   999 0000077F D945F4              <1>  fld dword  [  ebp+     -12]
  1000                              <1> spaceforpolevl equ 24
  1001                              <1> polevlexit:
  1002 00000782 C9                  <1> leave
  1003 00000783 C20000              <1>  ret 0
  1004                              <1> section .text  
  1005                              <1> ; procedure generated by code generator class ilcg.tree.PentiumCG
  1006                              <1> ; Walker version 0.43255946
  1007                              <1> lea9d30e7b412e:
  1008                              <1> ;	 ldexp
  1009 00000786 C8080002            <1>  enter   spaceforldexp-4*2,2
  1010                              <1> ;202
  1011                              <1>  floadlit 1.0
  1012                              <2> section .data
  1013 000000D6 000000000000F03F    <2> %%lit: dq %1
  1014                              <2> 	section .text
  1015 0000078A DD05[D6000000]      <2> 	fld qword[%%lit]
  1016 00000790 D95DF0              <1>  fstp dword  [  ebp+     -16]
  1017                              <1> ;214
  1018 00000793 817D0C00000000      <1>  cmp DWORD  [  ebp+     12],      0
  1019 0000079A 0F8F36000000        <1>  jg near  lea9d312e4a1ad
  1020                              <1>  lea9d30e822133:
  1021 000007A0 8B5D0C              <1>  mov ebx,DWORD  [  ebp+     12]
  1022 000007A3 81FB00000000        <1>  cmp ebx,DWORD      0
  1023 000007A9 0F9CC3              <1>  setl bl
  1024 000007AC D0CB                <1>  ror bl,1
  1025 000007AE C0FB07              <1>  sar bl,7
  1026 000007B1 F6D3                <1>  not BYTE bl
  1027 000007B3 20DB                <1>  and bl,bl
  1028 000007B5 0F8516000000        <1>  jnz near lea9d30e822134
  1029                              <1> ;212
  1030 000007BB D945F0              <1>  fld dword  [  ebp+     -16]
  1031                              <1>  floadlit 2.0
  1032                              <2> section .data
  1033 000000DE 0000000000000040    <2> %%lit: dq %1
  1034                              <2> 	section .text
  1035 000007BE DD05[DE000000]      <2> 	fld qword[%%lit]
  1036 000007C4 DEF9                <1>  fdivp st1
  1037 000007C6 D95DF0              <1>  fstp dword  [  ebp+     -16]
  1038                              <1> ;213
  1039 000007C9 FF450C              <1>  inc DWORD  [  ebp+     12]
  1040                              <1> ;213
  1041                              <1> ;214
  1042 000007CC E9CFFFFFFF          <1>  jmp  lea9d30e822133
  1043                              <1>  lea9d30e822134:
  1044 000007D1 E931000000          <1>  jmp  lea9d312e4a1ae
  1045                              <1>  lea9d312e4a1ad:
  1046                              <1>  lea9d30e7e6131:
  1047 000007D6 8B5D0C              <1>  mov ebx,DWORD  [  ebp+     12]
  1048 000007D9 81FB00000000        <1>  cmp ebx,DWORD      0
  1049 000007DF 0F9FC3              <1>  setg bl
  1050 000007E2 D0CB                <1>  ror bl,1
  1051 000007E4 C0FB07              <1>  sar bl,7
  1052 000007E7 F6D3                <1>  not BYTE bl
  1053 000007E9 20DB                <1>  and bl,bl
  1054 000007EB 0F8516000000        <1>  jnz near lea9d30e7e6132
  1055                              <1> ;206
  1056 000007F1 D945F0              <1>  fld dword  [  ebp+     -16]
  1057                              <1>  floadlit 2.0
  1058                              <2> section .data
  1059 000000E6 0000000000000040    <2> %%lit: dq %1
  1060                              <2> 	section .text
  1061 000007F4 DD05[E6000000]      <2> 	fld qword[%%lit]
  1062 000007FA DEC9                <1>  fmulp st1
  1063 000007FC D95DF0              <1>  fstp dword  [  ebp+     -16]
  1064                              <1> ;207
  1065 000007FF FF4D0C              <1>  dec DWORD  [  ebp+     12]
  1066                              <1> ;208
  1067 00000802 E9CFFFFFFF          <1>  jmp  lea9d30e7e6131
  1068                              <1>  lea9d30e7e6132:
  1069                              <1>  lea9d312e4a1ae:
  1070                              <1> ;215
  1071 00000807 D94508              <1>  fld dword  [  ebp+     8]
  1072 0000080A D84DF0              <1>  fmul DWORD  [  ebp+     -16]
  1073 0000080D D95DF4              <1>  fstp dword  [  ebp+     -12]
  1074                              <1> ;216
  1075                              <1>  lea9d30e7e6130:
  1076 00000810 D945F4              <1>  fld dword  [  ebp+     -12]
  1077                              <1> spaceforldexp equ 16
  1078                              <1> ldexpexit:
  1079 00000813 C9                  <1> leave
  1080 00000814 C20000              <1>  ret 0
  1081                              <1> section .text  
  1082                              <1> ; procedure generated by code generator class ilcg.tree.PentiumCG
  1083                              <1> ; Walker version 0.43255946
  1084                              <1> lea9d30e412b2:
  1085                              <1> ;	 random
  1086 00000817 C8080002            <1>  enter   spaceforrandom-4*2,2
  1087                              <1> ;196
  1088                              <1> 	EXTERN _rand
  1089 0000081B E8(00000000)        <1>  call _rand; imported
  1090 00000820 81C400000000        <1>  add esp, 0
  1091 00000826 8945F0              <1>  mov DWORD  [  ebp+     -16],eax
  1092 00000829 8B5DF0              <1>  mov ebx,DWORD  [  ebp+     -16]
  1093 0000082C 895DF4              <1>  mov DWORD  [  ebp+     -12],ebx
  1094                              <1> ;196
  1095                              <1>  lea9d30e7b412c:
  1096 0000082F 8B45F4              <1>  mov eax,DWORD  [  ebp+     -12]
  1097                              <1> spaceforrandom equ 16
  1098                              <1> randomexit:
  1099 00000832 C9                  <1> leave
  1100 00000833 C20000              <1>  ret 0
  1101                              <1> section .text  
  1102                              <1> ; procedure generated by code generator class ilcg.tree.PentiumCG
  1103                              <1> ; Walker version 0.43255946
  1104                              <1> lea9d30e1105c:
  1105                              <1> ;	 int
  1106 00000836 C8080002            <1>  enter   spaceforint-4*2,2
  1107                              <1> ;193
  1108 0000083A FF7508              <1>  push DWORD  [  ebp+     8]
  1109                              <1> 	EXTERN _trunc
  1110 0000083D E8(00000000)        <1>  call _trunc; imported
  1111 00000842 81C404000000        <1>  add esp, 4
  1112 00000848 8945F0              <1>  mov DWORD  [  ebp+     -16],eax
  1113 0000084B DB45F0              <1>  fild DWORD  [  ebp+     -16]
  1114 0000084E D95DF4              <1>  fstp dword  [  ebp+     -12]
  1115                              <1> ;193
  1116                              <1>  lea9d30e7b4128:
  1117 00000851 D945F4              <1>  fld dword  [  ebp+     -12]
  1118                              <1> spaceforint equ 16
  1119                              <1> intexit:
  1120 00000854 C9                  <1> leave
  1121 00000855 C20000              <1>  ret 0
  1122                              <1> section .text  
  1123                              <1> ; procedure generated by code generator class ilcg.tree.PentiumCG
  1124                              <1> ; Walker version 0.43255946
  1125                              <1> lea9d30e5caf0:
  1126                              <1> ;	 sqr
  1127 00000858 C8040002            <1>  enter   spaceforsqr-4*2,2
  1128                              <1> ;190
  1129 0000085C D94508              <1>  fld dword  [  ebp+     8]
  1130 0000085F D84D08              <1>  fmul DWORD  [  ebp+     8]
  1131 00000862 D95DF4              <1>  fstp dword  [  ebp+     -12]
  1132                              <1> ;191
  1133                              <1>  lea9d30e7b4124:
  1134 00000865 D945F4              <1>  fld dword  [  ebp+     -12]
  1135                              <1> spaceforsqr equ 12
  1136                              <1> sqrexit:
  1137 00000868 C9                  <1> leave
  1138 00000869 C20000              <1>  ret 0
  1139                              <1> section .text  
  1140                              <1> ; procedure generated by code generator class ilcg.tree.PentiumCG
  1141                              <1> ; Walker version 0.43255946
  1142                              <1> lea9d30de409:
  1143                              <1> ;	 absr
  1144 0000086C C8040002            <1>  enter   spaceforabsr-4*2,2
  1145                              <1> ;185
  1146 00000870 D94508              <1>  fld dword  [  ebp+     8]
  1147                              <1>  floadlit 0.0
  1148                              <2> section .data
  1149 000000EE 0000000000000000    <2> %%lit: dq %1
  1150                              <2> 	section .text
  1151 00000873 DD05[EE000000]      <2> 	fld qword[%%lit]
  1152 00000879 D9C9                <1>  fxch
  1153 0000087B DED9                <1>  fcompp
  1154 0000087D 6650                <1>  push ax
  1155 0000087F 9BDFE0              <1>  fstsw ax
  1156 00000882 9E                  <1>  sahf
  1157 00000883 6658                <1>  pop ax
  1158 00000885 0F92C3              <1>  setc bl 
  1159 00000888 20DB                <1>  and bl,bl
  1160 0000088A 0F850B000000        <1>  jnz near lea9d3130701b1
  1161 00000890 D94508              <1>  fld dword  [  ebp+     8]
  1162 00000893 D95DF4              <1>  fstp dword  [  ebp+     -12]
  1163 00000896 E90C000000          <1>  jmp  lea9d3130701b2
  1164                              <1>  lea9d3130701b1:
  1165                              <1>  floadlit 0.0
  1166                              <2> section .data
  1167 000000F6 0000000000000000    <2> %%lit: dq %1
  1168                              <2> 	section .text
  1169 0000089B DD05[F6000000]      <2> 	fld qword[%%lit]
  1170 000008A1 D86508              <1>  fsub DWORD  [  ebp+     8]
  1171 000008A4 D95DF4              <1>  fstp dword  [  ebp+     -12]
  1172                              <1>  lea9d3130701b2:
  1173                              <1> ;186
  1174                              <1>  lea9d30e782120:
  1175 000008A7 D945F4              <1>  fld dword  [  ebp+     -12]
  1176                              <1> spaceforabsr equ 12
  1177                              <1> absrexit:
  1178 000008AA C9                  <1> leave
  1179 000008AB C20000              <1>  ret 0
  1180                              <1> section .text  
  1181                              <1> ; procedure generated by code generator class ilcg.tree.PentiumCG
  1182                              <1> ; Walker version 0.43255946
  1183                              <1> lea9d30de406:
  1184                              <1> ;	 absi
  1185 000008AE C8040002            <1>  enter   spaceforabsi-4*2,2
  1186                              <1> ;180
  1187 000008B2 817D0800000000      <1>  cmp DWORD  [  ebp+     8],      0
  1188 000008B9 0F8C0B000000        <1>  jl near  lea9d3130de1b3
  1189 000008BF 8B5D08              <1>  mov ebx,DWORD  [  ebp+     8]
  1190 000008C2 895DF4              <1>  mov DWORD  [  ebp+     -12],ebx
  1191 000008C5 E908000000          <1>  jmp  lea9d3131101b4
  1192                              <1>  lea9d3130de1b3:
  1193 000008CA 8B5D08              <1>  mov ebx,DWORD  [  ebp+     8]
  1194 000008CD F7DB                <1>  neg  ebx
  1195 000008CF 895DF4              <1>  mov DWORD  [  ebp+     -12],ebx
  1196                              <1>  lea9d3131101b4:
  1197                              <1> ;181
  1198                              <1>  lea9d30e74611c:
  1199 000008D2 8B45F4              <1>  mov eax,DWORD  [  ebp+     -12]
  1200                              <1> spaceforabsi equ 12
  1201                              <1> absiexit:
  1202 000008D5 C9                  <1> leave
  1203 000008D6 C20000              <1>  ret 0
  1204                              <1> 	EXTERN _printpointer
  1205                              <1> 	EXTERN _printpointer
  1206                              <1> section .text  
  1207                              <1> ; procedure generated by code generator class ilcg.tree.PentiumCG
  1208                              <1> ; Walker version 0.43255946
  1209                              <1> lea9d30e5caed:
  1210                              <1> ;	 stringneq
  1211 000008D9 C8080002            <1>  enter   spaceforstringneq-4*2,2
  1212                              <1> ;164
  1213 000008DD 55                  <1>  push ebp
  1214 000008DE 81042408010000      <1>  add  dword[esp] ,     264
  1215 000008E5 55                  <1>  push ebp
  1216 000008E6 81042408000000      <1>  add  dword[esp] ,     8
  1217                              <1> 	EXTERN _stringcompare
  1218 000008ED E8(00000000)        <1>  call _stringcompare; imported
  1219 000008F2 81C408000000        <1>  add esp, 8
  1220 000008F8 8945F0              <1>  mov DWORD  [  ebp+     -16],eax
  1221 000008FB 8B5DF0              <1>  mov ebx,DWORD  [  ebp+     -16]
  1222 000008FE 81FB00000000        <1>  cmp ebx,DWORD      0
  1223 00000904 0F95C3              <1>  setnz bl
  1224 00000907 D0CB                <1>  ror bl,1
  1225 00000909 C0FB07              <1>  sar bl,7
  1226 0000090C 885DF7              <1>  mov byte  [  ebp+     -9],bl
  1227                              <1> ;164
  1228                              <1>  lea9d30e746114:
  1229 0000090F B800000000          <1>  mov DWORD eax,     0
  1230 00000914 8A45F7              <1>  mov al,BYTE  [  ebp+     -9]
  1231                              <1> spaceforstringneq equ 16
  1232                              <1> stringneqexit:
  1233 00000917 C9                  <1> leave
  1234 00000918 C20000              <1>  ret 0
  1235                              <1> section .text  
  1236                              <1> ; procedure generated by code generator class ilcg.tree.PentiumCG
  1237                              <1> ; Walker version 0.43255946
  1238                              <1> lea9d30e5caea:
  1239                              <1> ;	 stringeq
  1240 0000091B C8080002            <1>  enter   spaceforstringeq-4*2,2
  1241                              <1> ;162
  1242 0000091F 55                  <1>  push ebp
  1243 00000920 81042408010000      <1>  add  dword[esp] ,     264
  1244 00000927 55                  <1>  push ebp
  1245 00000928 81042408000000      <1>  add  dword[esp] ,     8
  1246                              <1> 	EXTERN _stringcompare
  1247 0000092F E8(00000000)        <1>  call _stringcompare; imported
  1248 00000934 81C408000000        <1>  add esp, 8
  1249 0000093A 8945F0              <1>  mov DWORD  [  ebp+     -16],eax
  1250 0000093D 8B5DF0              <1>  mov ebx,DWORD  [  ebp+     -16]
  1251 00000940 81FB00000000        <1>  cmp ebx,DWORD      0
  1252 00000946 0F94C3              <1>  setz bl
  1253 00000949 D0CB                <1>  ror bl,1
  1254 0000094B C0FB07              <1>  sar bl,7
  1255 0000094E 885DF7              <1>  mov byte  [  ebp+     -9],bl
  1256                              <1> ;162
  1257                              <1>  lea9d30e6d8110:
  1258 00000951 B800000000          <1>  mov DWORD eax,     0
  1259 00000956 8A45F7              <1>  mov al,BYTE  [  ebp+     -9]
  1260                              <1> spaceforstringeq equ 16
  1261                              <1> stringeqexit:
  1262 00000959 C9                  <1> leave
  1263 0000095A C20000              <1>  ret 0
  1264                              <1> section .text  
  1265                              <1> ; procedure generated by code generator class ilcg.tree.PentiumCG
  1266                              <1> ; Walker version 0.43255946
  1267                              <1> lea9d30e58ee7:
  1268                              <1> ;	 stringgeq
  1269 0000095D C8080002            <1>  enter   spaceforstringgeq-4*2,2
  1270                              <1> ;160
  1271 00000961 55                  <1>  push ebp
  1272 00000962 81042408010000      <1>  add  dword[esp] ,     264
  1273 00000969 55                  <1>  push ebp
  1274 0000096A 81042408000000      <1>  add  dword[esp] ,     8
  1275                              <1> 	EXTERN _stringcompare
  1276 00000971 E8(00000000)        <1>  call _stringcompare; imported
  1277 00000976 81C408000000        <1>  add esp, 8
  1278 0000097C 8945F0              <1>  mov DWORD  [  ebp+     -16],eax
  1279 0000097F 8B5DF0              <1>  mov ebx,DWORD  [  ebp+     -16]
  1280 00000982 81FB00000000        <1>  cmp ebx,DWORD      0
  1281 00000988 0F9DC3              <1>  setge bl
  1282 0000098B D0CB                <1>  ror bl,1
  1283 0000098D C0FB07              <1>  sar bl,7
  1284 00000990 885DF7              <1>  mov byte  [  ebp+     -9],bl
  1285                              <1> ;160
  1286                              <1>  lea9d30e6a610c:
  1287 00000993 B800000000          <1>  mov DWORD eax,     0
  1288 00000998 8A45F7              <1>  mov al,BYTE  [  ebp+     -9]
  1289                              <1> spaceforstringgeq equ 16
  1290                              <1> stringgeqexit:
  1291 0000099B C9                  <1> leave
  1292 0000099C C20000              <1>  ret 0
  1293                              <1> section .text  
  1294                              <1> ; procedure generated by code generator class ilcg.tree.PentiumCG
  1295                              <1> ; Walker version 0.43255946
  1296                              <1> lea9d30e4eee4:
  1297                              <1> ;	 stringleq
  1298 0000099F C8080002            <1>  enter   spaceforstringleq-4*2,2
  1299                              <1> ;158
  1300 000009A3 55                  <1>  push ebp
  1301 000009A4 81042408010000      <1>  add  dword[esp] ,     264
  1302 000009AB 55                  <1>  push ebp
  1303 000009AC 81042408000000      <1>  add  dword[esp] ,     8
  1304                              <1> 	EXTERN _stringcompare
  1305 000009B3 E8(00000000)        <1>  call _stringcompare; imported
  1306 000009B8 81C408000000        <1>  add esp, 8
  1307 000009BE 8945F0              <1>  mov DWORD  [  ebp+     -16],eax
  1308 000009C1 8B5DF0              <1>  mov ebx,DWORD  [  ebp+     -16]
  1309 000009C4 81FB00000000        <1>  cmp ebx,DWORD      0
  1310 000009CA 0F9EC3              <1>  setle bl
  1311 000009CD D0CB                <1>  ror bl,1
  1312 000009CF C0FB07              <1>  sar bl,7
  1313 000009D2 885DF7              <1>  mov byte  [  ebp+     -9],bl
  1314                              <1> ;158
  1315                              <1>  lea9d30e6a6108:
  1316 000009D5 B800000000          <1>  mov DWORD eax,     0
  1317 000009DA 8A45F7              <1>  mov al,BYTE  [  ebp+     -9]
  1318                              <1> spaceforstringleq equ 16
  1319                              <1> stringleqexit:
  1320 000009DD C9                  <1> leave
  1321 000009DE C20000              <1>  ret 0
  1322                              <1> section .text  
  1323                              <1> ; procedure generated by code generator class ilcg.tree.PentiumCG
  1324                              <1> ; Walker version 0.43255946
  1325                              <1> lea9d30e4eee1:
  1326                              <1> ;	 stringgt
  1327 000009E1 C8080002            <1>  enter   spaceforstringgt-4*2,2
  1328                              <1> ;156
  1329 000009E5 55                  <1>  push ebp
  1330 000009E6 81042408010000      <1>  add  dword[esp] ,     264
  1331 000009ED 55                  <1>  push ebp
  1332 000009EE 81042408000000      <1>  add  dword[esp] ,     8
  1333                              <1> 	EXTERN _stringcompare
  1334 000009F5 E8(00000000)        <1>  call _stringcompare; imported
  1335 000009FA 81C408000000        <1>  add esp, 8
  1336 00000A00 8945F0              <1>  mov DWORD  [  ebp+     -16],eax
  1337 00000A03 8B5DF0              <1>  mov ebx,DWORD  [  ebp+     -16]
  1338 00000A06 81FB00000000        <1>  cmp ebx,DWORD      0
  1339 00000A0C 0F9FC3              <1>  setg bl
  1340 00000A0F D0CB                <1>  ror bl,1
  1341 00000A11 C0FB07              <1>  sar bl,7
  1342 00000A14 885DF7              <1>  mov byte  [  ebp+     -9],bl
  1343                              <1> ;156
  1344                              <1>  lea9d30e6a6104:
  1345 00000A17 B800000000          <1>  mov DWORD eax,     0
  1346 00000A1C 8A45F7              <1>  mov al,BYTE  [  ebp+     -9]
  1347                              <1> spaceforstringgt equ 16
  1348                              <1> stringgtexit:
  1349 00000A1F C9                  <1> leave
  1350 00000A20 C20000              <1>  ret 0
  1351                              <1> section .text  
  1352                              <1> ; procedure generated by code generator class ilcg.tree.PentiumCG
  1353                              <1> ; Walker version 0.43255946
  1354                              <1> lea9d30e4b2de:
  1355                              <1> ;	 stringlt
  1356 00000A23 C8080002            <1>  enter   spaceforstringlt-4*2,2
  1357                              <1> ;154
  1358 00000A27 55                  <1>  push ebp
  1359 00000A28 81042408010000      <1>  add  dword[esp] ,     264
  1360 00000A2F 55                  <1>  push ebp
  1361 00000A30 81042408000000      <1>  add  dword[esp] ,     8
  1362                              <1> 	EXTERN _stringcompare
  1363 00000A37 E8(00000000)        <1>  call _stringcompare; imported
  1364 00000A3C 81C408000000        <1>  add esp, 8
  1365 00000A42 8945F0              <1>  mov DWORD  [  ebp+     -16],eax
  1366 00000A45 8B5DF0              <1>  mov ebx,DWORD  [  ebp+     -16]
  1367 00000A48 81FB00000000        <1>  cmp ebx,DWORD      0
  1368 00000A4E 0F9CC3              <1>  setl bl
  1369 00000A51 D0CB                <1>  ror bl,1
  1370 00000A53 C0FB07              <1>  sar bl,7
  1371 00000A56 885DF7              <1>  mov byte  [  ebp+     -9],bl
  1372                              <1> ;154
  1373                              <1>  lea9d30e66a100:
  1374 00000A59 B800000000          <1>  mov DWORD eax,     0
  1375 00000A5E 8A45F7              <1>  mov al,BYTE  [  ebp+     -9]
  1376                              <1> spaceforstringlt equ 16
  1377                              <1> stringltexit:
  1378 00000A61 C9                  <1> leave
  1379 00000A62 C20000              <1>  ret 0
  1380                              <1> section .text  
  1381                              <1> ; procedure generated by code generator class ilcg.tree.PentiumCG
  1382                              <1> ; Walker version 0.43255946
  1383                              <1> lea9d30e4b2db:
  1384                              <1> ;	 strcomp
  1385 00000A65 C8080002            <1>  enter   spaceforstrcomp-4*2,2
  1386                              <1> ;151
  1387 00000A69 55                  <1>  push ebp
  1388 00000A6A 81042408010000      <1>  add  dword[esp] ,     264
  1389 00000A71 55                  <1>  push ebp
  1390 00000A72 81042408000000      <1>  add  dword[esp] ,     8
  1391                              <1> 	EXTERN _stringcompare
  1392 00000A79 E8(00000000)        <1>  call _stringcompare; imported
  1393 00000A7E 81C408000000        <1>  add esp, 8
  1394 00000A84 8945F0              <1>  mov DWORD  [  ebp+     -16],eax
  1395 00000A87 8B5DF0              <1>  mov ebx,DWORD  [  ebp+     -16]
  1396 00000A8A 895DF4              <1>  mov DWORD  [  ebp+     -12],ebx
  1397                              <1> ;152
  1398                              <1>  lea9d30e5fcfc:
  1399 00000A8D 8B45F4              <1>  mov eax,DWORD  [  ebp+     -12]
  1400                              <1> spaceforstrcomp equ 16
  1401                              <1> strcompexit:
  1402 00000A90 C9                  <1> leave
  1403 00000A91 C20000              <1>  ret 0
  1404                              <1> 	EXTERN _trunc
  1405                              <1> 	EXTERN _stringcompare
  1406                              <1> 	EXTERN _stringappend
  1407                              <1> 	EXTERN _stringassign
  1408                              <1> 	EXTERN _rewrite
  1409                              <1> 	EXTERN _reset
  1410                              <1> 	EXTERN _rand
  1411                              <1> 	EXTERN _endoffile
  1412                              <1> 	EXTERN _endofline
  1413                              <1> 	EXTERN _readline
  1414                              <1> 	EXTERN _readordinal
  1415                              <1> 	EXTERN _readbool
  1416                              <1> 	EXTERN _readint
  1417                              <1> 	EXTERN _readreal
  1418                              <1> 	EXTERN _readchar
  1419                              <1> 	EXTERN _readstring
  1420                              <1> 	EXTERN _println
  1421                              <1> 	EXTERN _printordinal
  1422                              <1> 	EXTERN _printbool
  1423                              <1> 	EXTERN _printint
  1424                              <1> 	EXTERN _printreal
  1425                              <1> 	EXTERN _printchar
  1426                              <1> 	EXTERN _printstring
  1427                              <1> 	EXTERN _secs
  1428                              <1> 	EXTERN _pascalexit
  1429                              <1> 	EXTERN _ioresult
  1430                              <1> 	EXTERN _initvec
  1431                              <1> 	EXTERN _gettime
  1432                              <1> 	EXTERN _getmem
  1433                              <1> 	EXTERN _freemem
  1434                              <1> 	EXTERN _filepos
  1435                              <1> 	EXTERN _filesize
  1436                              <1> 	EXTERN _eoln
  1437                              <1> 	EXTERN _erase
  1438                              <1> 	EXTERN _eof
  1439                              <1> 	EXTERN _close
  1440                              <1> 	EXTERN _blockwrite
  1441                              <1> 	EXTERN _blockread
  1442                              <1> 	EXTERN _assign
  1443                              <1> 	EXTERN _append
  1444                              <1> section .text  
  1445                              <1> ; procedure generated by code generator class ilcg.tree.PentiumCG
  1446                              <1> ; Walker version 0.43255946
  1447                              <1> lea9d30f5a618f:
  1448                              <1> ;	 unit$system
  1449                              <1> unit$system:
  1450 00000A94 C8000000            <1>  enter  0,0
  1451 00000A98 803D[1E010000]01    <1> cmp byte[unit$systemready],1
  1452 00000A9F 7505                <1>  jnz unit$systeminit
  1453 00000AA1 E951000000          <1>  jmp unit$systemexit
  1454 00000AA6 C605[1E010000]01    <1> unit$systeminit:mov byte[unit$systemready],1
  1455                              <1> ;474
  1456 00000AAD BA00000000          <1>  mov DWORD edx,     0
  1457                              <1>  lea9d3135981bc:
  1458 00000AB2 81FA01000000        <1>  cmp DWORD edx,      1
  1459 00000AB8 0F8F21000000        <1>  jg near  lea9d3135981bd
  1460                              <1>  floadlit 0.0
  1461                              <2> section .data
  1462 000000FE 0000000000000000    <2> %%lit: dq %1
  1463                              <2> 	section .text
  1464 00000ABE DD05[FE000000]      <2> 	fld qword[%%lit]
  1465 00000AC4 D91C95[0C000000]    <1>  fstp dword  [  edx* 4+ lea9d30dbe83+    -16]
  1466 00000ACB 42                  <1>  inc DWORD edx
  1467                              <1>  floadlit 0.0
  1468                              <2> section .data
  1469 00000106 0000000000000000    <2> %%lit: dq %1
  1470                              <2> 	section .text
  1471 00000ACC DD05[06010000]      <2> 	fld qword[%%lit]
  1472 00000AD2 D91C95[0C000000]    <1>  fstp dword  [  edx* 4+ lea9d30dbe83+    -16]
  1473 00000AD9 42                  <1>  inc DWORD edx
  1474 00000ADA E9D3FFFFFF          <1>  jmp  lea9d3135981bc
  1475                              <1>  lea9d3135981bd:
  1476                              <1> ;475
  1477                              <1>  floadlit 1.0
  1478                              <2> section .data
  1479 0000010E 000000000000F03F    <2> %%lit: dq %1
  1480                              <2> 	section .text
  1481 00000ADF DD05[0E010000]      <2> 	fld qword[%%lit]
  1482 00000AE5 D91D[04000000]      <1>  fstp dword  [  lea9d30dbe83+    -24]
  1483                              <1> ;476
  1484                              <1>  floadlit 0.0
  1485                              <2> section .data
  1486 00000116 0000000000000000    <2> %%lit: dq %1
  1487                              <2> 	section .text
  1488 00000AEB DD05[16010000]      <2> 	fld qword[%%lit]
  1489 00000AF1 D91D[08000000]      <1>  fstp dword  [  lea9d30dbe83+    -20]
  1490                              <1> ;478
  1491                              <1>  lea9d30e5fcf8:
  1492                              <1> spaceforunit$system equ 28
  1493                              <1> unit$systemexit:
  1494 00000AF7 C9                  <1> leave
  1495 00000AF8 C20000              <1>  ret 0
  1496                              <1> 	SECTION .bss
  1497 00000000 <res 0000001C>      <1> resb spaceforunit$system
  1498                              <1>  lea9d30dbe83:
  1499                              <1> 	SECTION .data
  1500 0000011E 00000000            <1> unit$systemready dd 0
  1501 00000122 90<rept>            <1>  align 16
  1502                              <1>  lea9d30e9da142:
  1503 00000130 C57A4936            <1>  dd 3.0022794727988763E-6
  1504 00000134 B272253B            <1>  dd 0.0025245365355322288
  1505 00000138 6EB8683E            <1>  dd 0.22726604419835267
  1506 0000013C 00000040            <1>  dd 2.0
  1507 00000140 00000000            <1>  dd 0.0
  1508 00000144 00000000            <1>  dd 0.0
  1509 00000148 00000000            <1>  dd 0.0
  1510                              <1>  lea9d30e99e141:
  1511 0000014C 04500439            <1>  dd 1.2618309283445855E-4
  1512 00000150 0E37F83C            <1>  dd 0.030299688765843012
  1513 00000154 0000803F            <1>  dd 1.0
  1514 00000158 00000000            <1>  dd 0.0
  1515 0000015C 00000000            <1>  dd 0.0
  1516 00000160 00000000            <1>  dd 0.0
  1517 00000164 00000000            <1>  dd 0.0
  1518                              <1> %endif
  1519                                  %include "./testunary.asm"
  1520                              <1> %ifndef testunary
  1521                              <1> %define testunary
  1522                              <1> section .text  
  1523                              <1> ; procedure generated by code generator class ilcg.tree.PentiumCG
  1524                              <1> ; Walker version 0.43255946
  1525                              <1> lea9d3146be1c2:
  1526                              <1> ;	 unaries
  1527 00000AFB C8D40001            <1>  enter   spaceforunaries-4*1,1
  1528                              <1> ;18
  1529                              <1>  floadlit -2.0
  1530                              <2> section .data
  1531 00000168 00000000000000C0    <2> %%lit: dq %1
  1532                              <2> 	section .text
  1533 00000AFF DD05[68010000]      <2> 	fld qword[%%lit]
  1534 00000B05 D95DF8              <1>  fstp dword  [  ebp+     -8]
  1535                              <1> ;19
  1536                              <1>  floadlit 0.0
  1537                              <2> section .data
  1538 00000170 0000000000000000    <2> %%lit: dq %1
  1539                              <2> 	section .text
  1540 00000B08 DD05[70010000]      <2> 	fld qword[%%lit]
  1541 00000B0E D95DF4              <1>  fstp dword  [  ebp+     -12]
  1542                              <1> ;20
  1543 00000B11 D945F8              <1>  fld dword  [  ebp+     -8]
  1544 00000B14 D9FC                <1>   frndint
  1545 00000B16 81EC04000000        <1>  sub esp,4
  1546 00000B1C DB1C24              <1>  fistp dword [esp]
  1547 00000B1F 5B                  <1>  pop dword ebx
  1548 00000B20 899D54FFFFFF        <1>  mov DWORD  [  ebp+     -172],ebx
  1549                              <1> ;21
  1550 00000B26 66C78550FFFFFF0500  <1>  mov WORD  [  ebp+     -176],   5
  1551                              <1> ;22
  1552 00000B2F D945F8              <1>  fld dword  [  ebp+     -8]
  1553 00000B32 D945F4              <1>  fld dword  [  ebp+     -12]
  1554 00000B35 D9C9                <1>  fxch
  1555 00000B37 DED9                <1>  fcompp
  1556 00000B39 6650                <1>  push ax
  1557 00000B3B 9BDFE0              <1>  fstsw ax
  1558 00000B3E 9E                  <1>  sahf
  1559 00000B3F 6658                <1>  pop ax
  1560 00000B41 0F92C3              <1>  setc bl 
  1561 00000B44 889D53FFFFFF        <1>  mov byte  [  ebp+     -173],bl
  1562                              <1> ;23
  1563 00000B4A 6805000000          <1>  push DWORD      5
  1564 00000B4F 680C000000          <1>  push DWORD      12
  1565 00000B54 68[87040000]        <1>  push DWORD  lea9d3146fa1c8
  1566 00000B59 6800000000          <1>  push DWORD      0
  1567                              <1> 	EXTERN _printstring
  1568 00000B5E E8(00000000)        <1>  call _printstring; imported
  1569 00000B63 81C410000000        <1>  add esp, 16
  1570 00000B69 6800000000          <1>  push DWORD      0
  1571                              <1> 	EXTERN _println
  1572 00000B6E E8(00000000)        <1>  call _println; imported
  1573 00000B73 81C404000000        <1>  add esp, 4
  1574                              <1> ;24
  1575 00000B79 6805000000          <1>  push DWORD      5
  1576 00000B7E 680C000000          <1>  push DWORD      12
  1577 00000B83 68[81040000]        <1>  push DWORD  lea9d3146fa1c9
  1578 00000B88 6800000000          <1>  push DWORD      0
  1579                              <1> 	EXTERN _printstring
  1580 00000B8D E8(00000000)        <1>  call _printstring; imported
  1581 00000B92 81C410000000        <1>  add esp, 16
  1582 00000B98 6805000000          <1>  push DWORD      5
  1583 00000B9D 680C000000          <1>  push DWORD      12
  1584 00000BA2 FFB553FFFFFF        <1>  push DWORD  [  ebp+     -173]
  1585 00000BA8 6800000000          <1>  push DWORD      0
  1586                              <1> 	EXTERN _printbool
  1587 00000BAD E8(00000000)        <1>  call _printbool; imported
  1588 00000BB2 81C410000000        <1>  add esp, 16
  1589 00000BB8 6800000000          <1>  push DWORD      0
  1590                              <1> 	EXTERN _println
  1591 00000BBD E8(00000000)        <1>  call _println; imported
  1592 00000BC2 81C404000000        <1>  add esp, 4
  1593                              <1> ;26
  1594 00000BC8 6805000000          <1>  push DWORD      5
  1595 00000BCD 680C000000          <1>  push DWORD      12
  1596 00000BD2 68[7D040000]        <1>  push DWORD  lea9d31472c1ca
  1597 00000BD7 6800000000          <1>  push DWORD      0
  1598                              <1> 	EXTERN _printstring
  1599 00000BDC E8(00000000)        <1>  call _printstring; imported
  1600 00000BE1 81C410000000        <1>  add esp, 16
  1601 00000BE7 6805000000          <1>  push DWORD      5
  1602 00000BEC 680C000000          <1>  push DWORD      12
  1603 00000BF1 FF75F8              <1>  push DWORD  [  ebp+     -8]
  1604 00000BF4 6800000000          <1>  push DWORD      0
  1605                              <1> 	EXTERN _printreal
  1606 00000BF9 E8(00000000)        <1>  call _printreal; imported
  1607 00000BFE 81C410000000        <1>  add esp, 16
  1608 00000C04 6805000000          <1>  push DWORD      5
  1609 00000C09 680C000000          <1>  push DWORD      12
  1610 00000C0E 68[79040000]        <1>  push DWORD  lea9d31472c1cb
  1611 00000C13 6800000000          <1>  push DWORD      0
  1612                              <1> 	EXTERN _printstring
  1613 00000C18 E8(00000000)        <1>  call _printstring; imported
  1614 00000C1D 81C410000000        <1>  add esp, 16
  1615 00000C23 6805000000          <1>  push DWORD      5
  1616 00000C28 680C000000          <1>  push DWORD      12
  1617 00000C2D FF75F4              <1>  push DWORD  [  ebp+     -12]
  1618 00000C30 6800000000          <1>  push DWORD      0
  1619                              <1> 	EXTERN _printreal
  1620 00000C35 E8(00000000)        <1>  call _printreal; imported
  1621 00000C3A 81C410000000        <1>  add esp, 16
  1622 00000C40 6800000000          <1>  push DWORD      0
  1623                              <1> 	EXTERN _println
  1624 00000C45 E8(00000000)        <1>  call _println; imported
  1625 00000C4A 81C404000000        <1>  add esp, 4
  1626                              <1> ;27
  1627 00000C50 D945F8              <1>  fld dword  [  ebp+     -8]
  1628                              <1>  floadlit 0.0
  1629                              <2> section .data
  1630 00000178 0000000000000000    <2> %%lit: dq %1
  1631                              <2> 	section .text
  1632 00000C53 DD05[78010000]      <2> 	fld qword[%%lit]
  1633 00000C59 D9C9                <1>  fxch
  1634 00000C5B DED9                <1>  fcompp
  1635 00000C5D 6650                <1>  push ax
  1636 00000C5F 9BDFE0              <1>  fstsw ax
  1637 00000C62 9E                  <1>  sahf
  1638 00000C63 6658                <1>  pop ax
  1639 00000C65 0F92C3              <1>  setc bl 
  1640 00000C68 20DB                <1>  and bl,bl
  1641 00000C6A 0F8551000000        <1>  jnz near lea9d315410218
  1642 00000C70 6805000000          <1>  push DWORD      5
  1643 00000C75 680C000000          <1>  push DWORD      12
  1644 00000C7A FF75F8              <1>  push DWORD  [  ebp+     -8]
  1645 00000C7D 6800000000          <1>  push DWORD      0
  1646                              <1> 	EXTERN _printreal
  1647 00000C82 E8(00000000)        <1>  call _printreal; imported
  1648 00000C87 81C410000000        <1>  add esp, 16
  1649 00000C8D 6805000000          <1>  push DWORD      5
  1650 00000C92 680C000000          <1>  push DWORD      12
  1651 00000C97 68[70040000]        <1>  push DWORD  lea9d31472c1cd
  1652 00000C9C 6800000000          <1>  push DWORD      0
  1653                              <1> 	EXTERN _printstring
  1654 00000CA1 E8(00000000)        <1>  call _printstring; imported
  1655 00000CA6 81C410000000        <1>  add esp, 16
  1656 00000CAC 6800000000          <1>  push DWORD      0
  1657                              <1> 	EXTERN _println
  1658 00000CB1 E8(00000000)        <1>  call _println; imported
  1659 00000CB6 81C404000000        <1>  add esp, 4
  1660 00000CBC E94C000000          <1>  jmp  lea9d315410219
  1661                              <1>  lea9d315410218:
  1662 00000CC1 6805000000          <1>  push DWORD      5
  1663 00000CC6 680C000000          <1>  push DWORD      12
  1664 00000CCB FF75F8              <1>  push DWORD  [  ebp+     -8]
  1665 00000CCE 6800000000          <1>  push DWORD      0
  1666                              <1> 	EXTERN _printreal
  1667 00000CD3 E8(00000000)        <1>  call _printreal; imported
  1668 00000CD8 81C410000000        <1>  add esp, 16
  1669 00000CDE 6805000000          <1>  push DWORD      5
  1670 00000CE3 680C000000          <1>  push DWORD      12
  1671 00000CE8 68[75040000]        <1>  push DWORD  lea9d31472c1cc
  1672 00000CED 6800000000          <1>  push DWORD      0
  1673                              <1> 	EXTERN _printstring
  1674 00000CF2 E8(00000000)        <1>  call _printstring; imported
  1675 00000CF7 81C410000000        <1>  add esp, 16
  1676 00000CFD 6800000000          <1>  push DWORD      0
  1677                              <1> 	EXTERN _println
  1678 00000D02 E8(00000000)        <1>  call _println; imported
  1679 00000D07 81C404000000        <1>  add esp, 4
  1680                              <1>  lea9d315410219:
  1681                              <1> ;28
  1682 00000D0D D945F8              <1>  fld dword  [  ebp+     -8]
  1683 00000D10 D945F4              <1>  fld dword  [  ebp+     -12]
  1684 00000D13 D9C9                <1>  fxch
  1685 00000D15 DED9                <1>  fcompp
  1686 00000D17 6650                <1>  push ax
  1687 00000D19 9BDFE0              <1>  fstsw ax
  1688 00000D1C 9E                  <1>  sahf
  1689 00000D1D 6658                <1>  pop ax
  1690 00000D1F 0F92C3              <1>  setc bl 
  1691 00000D22 20DB                <1>  and bl,bl
  1692 00000D24 0F8551000000        <1>  jnz near lea9d31547e220
  1693 00000D2A 6805000000          <1>  push DWORD      5
  1694 00000D2F 680C000000          <1>  push DWORD      12
  1695 00000D34 FF75F8              <1>  push DWORD  [  ebp+     -8]
  1696 00000D37 6800000000          <1>  push DWORD      0
  1697                              <1> 	EXTERN _printreal
  1698 00000D3C E8(00000000)        <1>  call _printreal; imported
  1699 00000D41 81C410000000        <1>  add esp, 16
  1700 00000D47 6805000000          <1>  push DWORD      5
  1701 00000D4C 680C000000          <1>  push DWORD      12
  1702 00000D51 68[67040000]        <1>  push DWORD  lea9d3147681cf
  1703 00000D56 6800000000          <1>  push DWORD      0
  1704                              <1> 	EXTERN _printstring
  1705 00000D5B E8(00000000)        <1>  call _printstring; imported
  1706 00000D60 81C410000000        <1>  add esp, 16
  1707 00000D66 6800000000          <1>  push DWORD      0
  1708                              <1> 	EXTERN _println
  1709 00000D6B E8(00000000)        <1>  call _println; imported
  1710 00000D70 81C404000000        <1>  add esp, 4
  1711 00000D76 E94C000000          <1>  jmp  lea9d31547e221
  1712                              <1>  lea9d31547e220:
  1713 00000D7B 6805000000          <1>  push DWORD      5
  1714 00000D80 680C000000          <1>  push DWORD      12
  1715 00000D85 FF75F8              <1>  push DWORD  [  ebp+     -8]
  1716 00000D88 6800000000          <1>  push DWORD      0
  1717                              <1> 	EXTERN _printreal
  1718 00000D8D E8(00000000)        <1>  call _printreal; imported
  1719 00000D92 81C410000000        <1>  add esp, 16
  1720 00000D98 6805000000          <1>  push DWORD      5
  1721 00000D9D 680C000000          <1>  push DWORD      12
  1722 00000DA2 68[6C040000]        <1>  push DWORD  lea9d3147681ce
  1723 00000DA7 6800000000          <1>  push DWORD      0
  1724                              <1> 	EXTERN _printstring
  1725 00000DAC E8(00000000)        <1>  call _printstring; imported
  1726 00000DB1 81C410000000        <1>  add esp, 16
  1727 00000DB7 6800000000          <1>  push DWORD      0
  1728                              <1> 	EXTERN _println
  1729 00000DBC E8(00000000)        <1>  call _println; imported
  1730 00000DC1 81C404000000        <1>  add esp, 4
  1731                              <1>  lea9d31547e221:
  1732                              <1> ;29
  1733 00000DC7 D945F8              <1>  fld dword  [  ebp+     -8]
  1734                              <1>  floadlit 0.0
  1735                              <2> section .data
  1736 00000180 0000000000000000    <2> %%lit: dq %1
  1737                              <2> 	section .text
  1738 00000DCA DD05[80010000]      <2> 	fld qword[%%lit]
  1739 00000DD0 D9C9                <1>  fxch
  1740 00000DD2 DED9                <1>  fcompp
  1741 00000DD4 6650                <1>  push ax
  1742 00000DD6 9BDFE0              <1>  fstsw ax
  1743 00000DD9 9E                  <1>  sahf
  1744 00000DDA 6658                <1>  pop ax
  1745 00000DDC 0F93C3              <1>  setnc bl 
  1746 00000DDF 20DB                <1>  and bl,bl
  1747 00000DE1 0F8551000000        <1>  jnz near lea9d3154ec228
  1748 00000DE7 6805000000          <1>  push DWORD      5
  1749 00000DEC 680C000000          <1>  push DWORD      12
  1750 00000DF1 FF75F8              <1>  push DWORD  [  ebp+     -8]
  1751 00000DF4 6800000000          <1>  push DWORD      0
  1752                              <1> 	EXTERN _printreal
  1753 00000DF9 E8(00000000)        <1>  call _printreal; imported
  1754 00000DFE 81C410000000        <1>  add esp, 16
  1755 00000E04 6805000000          <1>  push DWORD      5
  1756 00000E09 680C000000          <1>  push DWORD      12
  1757 00000E0E 68[5E040000]        <1>  push DWORD  lea9d31479a1d1
  1758 00000E13 6800000000          <1>  push DWORD      0
  1759                              <1> 	EXTERN _printstring
  1760 00000E18 E8(00000000)        <1>  call _printstring; imported
  1761 00000E1D 81C410000000        <1>  add esp, 16
  1762 00000E23 6800000000          <1>  push DWORD      0
  1763                              <1> 	EXTERN _println
  1764 00000E28 E8(00000000)        <1>  call _println; imported
  1765 00000E2D 81C404000000        <1>  add esp, 4
  1766 00000E33 E94C000000          <1>  jmp  lea9d3154ec229
  1767                              <1>  lea9d3154ec228:
  1768 00000E38 6805000000          <1>  push DWORD      5
  1769 00000E3D 680C000000          <1>  push DWORD      12
  1770 00000E42 FF75F8              <1>  push DWORD  [  ebp+     -8]
  1771 00000E45 6800000000          <1>  push DWORD      0
  1772                              <1> 	EXTERN _printreal
  1773 00000E4A E8(00000000)        <1>  call _printreal; imported
  1774 00000E4F 81C410000000        <1>  add esp, 16
  1775 00000E55 6805000000          <1>  push DWORD      5
  1776 00000E5A 680C000000          <1>  push DWORD      12
  1777 00000E5F 68[63040000]        <1>  push DWORD  lea9d31479a1d0
  1778 00000E64 6800000000          <1>  push DWORD      0
  1779                              <1> 	EXTERN _printstring
  1780 00000E69 E8(00000000)        <1>  call _printstring; imported
  1781 00000E6E 81C410000000        <1>  add esp, 16
  1782 00000E74 6800000000          <1>  push DWORD      0
  1783                              <1> 	EXTERN _println
  1784 00000E79 E8(00000000)        <1>  call _println; imported
  1785 00000E7E 81C404000000        <1>  add esp, 4
  1786                              <1>  lea9d3154ec229:
  1787                              <1> ;30
  1788 00000E84 D945F8              <1>  fld dword  [  ebp+     -8]
  1789                              <1>  floadlit 0.0
  1790                              <2> section .data
  1791 00000188 0000000000000000    <2> %%lit: dq %1
  1792                              <2> 	section .text
  1793 00000E87 DD05[88010000]      <2> 	fld qword[%%lit]
  1794 00000E8D D9C9                <1>  fxch
  1795 00000E8F DED9                <1>  fcompp
  1796 00000E91 6650                <1>  push ax
  1797 00000E93 9BDFE0              <1>  fstsw ax
  1798 00000E96 9E                  <1>  sahf
  1799 00000E97 6658                <1>  pop ax
  1800 00000E99 0F96C3              <1>  setna bl 
  1801 00000E9C 20DB                <1>  and bl,bl
  1802 00000E9E 0F8551000000        <1>  jnz near lea9d31558c230
  1803 00000EA4 6805000000          <1>  push DWORD      5
  1804 00000EA9 680C000000          <1>  push DWORD      12
  1805 00000EAE FF75F8              <1>  push DWORD  [  ebp+     -8]
  1806 00000EB1 6800000000          <1>  push DWORD      0
  1807                              <1> 	EXTERN _printreal
  1808 00000EB6 E8(00000000)        <1>  call _printreal; imported
  1809 00000EBB 81C410000000        <1>  add esp, 16
  1810 00000EC1 6805000000          <1>  push DWORD      5
  1811 00000EC6 680C000000          <1>  push DWORD      12
  1812 00000ECB 68[55040000]        <1>  push DWORD  lea9d31479a1d3
  1813 00000ED0 6800000000          <1>  push DWORD      0
  1814                              <1> 	EXTERN _printstring
  1815 00000ED5 E8(00000000)        <1>  call _printstring; imported
  1816 00000EDA 81C410000000        <1>  add esp, 16
  1817 00000EE0 6800000000          <1>  push DWORD      0
  1818                              <1> 	EXTERN _println
  1819 00000EE5 E8(00000000)        <1>  call _println; imported
  1820 00000EEA 81C404000000        <1>  add esp, 4
  1821 00000EF0 E94C000000          <1>  jmp  lea9d31558c231
  1822                              <1>  lea9d31558c230:
  1823 00000EF5 6805000000          <1>  push DWORD      5
  1824 00000EFA 680C000000          <1>  push DWORD      12
  1825 00000EFF FF75F8              <1>  push DWORD  [  ebp+     -8]
  1826 00000F02 6800000000          <1>  push DWORD      0
  1827                              <1> 	EXTERN _printreal
  1828 00000F07 E8(00000000)        <1>  call _printreal; imported
  1829 00000F0C 81C410000000        <1>  add esp, 16
  1830 00000F12 6805000000          <1>  push DWORD      5
  1831 00000F17 680C000000          <1>  push DWORD      12
  1832 00000F1C 68[59040000]        <1>  push DWORD  lea9d31479a1d2
  1833 00000F21 6800000000          <1>  push DWORD      0
  1834                              <1> 	EXTERN _printstring
  1835 00000F26 E8(00000000)        <1>  call _printstring; imported
  1836 00000F2B 81C410000000        <1>  add esp, 16
  1837 00000F31 6800000000          <1>  push DWORD      0
  1838                              <1> 	EXTERN _println
  1839 00000F36 E8(00000000)        <1>  call _println; imported
  1840 00000F3B 81C404000000        <1>  add esp, 4
  1841                              <1>  lea9d31558c231:
  1842                              <1> ;32
  1843 00000F41 D945F8              <1>  fld dword  [  ebp+     -8]
  1844                              <1>  floadlit 0.0
  1845                              <2> section .data
  1846 00000190 0000000000000000    <2> %%lit: dq %1
  1847                              <2> 	section .text
  1848 00000F44 DD05[90010000]      <2> 	fld qword[%%lit]
  1849 00000F4A D9C9                <1>  fxch
  1850 00000F4C DED9                <1>  fcompp
  1851 00000F4E 6650                <1>  push ax
  1852 00000F50 9BDFE0              <1>  fstsw ax
  1853 00000F53 9E                  <1>  sahf
  1854 00000F54 6658                <1>  pop ax
  1855 00000F56 0F93C3              <1>  setae bl 
  1856 00000F59 20DB                <1>  and bl,bl
  1857 00000F5B 0F8551000000        <1>  jnz near lea9d315636238
  1858 00000F61 6805000000          <1>  push DWORD      5
  1859 00000F66 680C000000          <1>  push DWORD      12
  1860 00000F6B FF75F8              <1>  push DWORD  [  ebp+     -8]
  1861 00000F6E 6800000000          <1>  push DWORD      0
  1862                              <1> 	EXTERN _printreal
  1863 00000F73 E8(00000000)        <1>  call _printreal; imported
  1864 00000F78 81C410000000        <1>  add esp, 16
  1865 00000F7E 6805000000          <1>  push DWORD      5
  1866 00000F83 680C000000          <1>  push DWORD      12
  1867 00000F88 68[4C040000]        <1>  push DWORD  lea9d31479a1d5
  1868 00000F8D 6800000000          <1>  push DWORD      0
  1869                              <1> 	EXTERN _printstring
  1870 00000F92 E8(00000000)        <1>  call _printstring; imported
  1871 00000F97 81C410000000        <1>  add esp, 16
  1872 00000F9D 6800000000          <1>  push DWORD      0
  1873                              <1> 	EXTERN _println
  1874 00000FA2 E8(00000000)        <1>  call _println; imported
  1875 00000FA7 81C404000000        <1>  add esp, 4
  1876 00000FAD E94C000000          <1>  jmp  lea9d315636239
  1877                              <1>  lea9d315636238:
  1878 00000FB2 6805000000          <1>  push DWORD      5
  1879 00000FB7 680C000000          <1>  push DWORD      12
  1880 00000FBC FF75F8              <1>  push DWORD  [  ebp+     -8]
  1881 00000FBF 6800000000          <1>  push DWORD      0
  1882                              <1> 	EXTERN _printreal
  1883 00000FC4 E8(00000000)        <1>  call _printreal; imported
  1884 00000FC9 81C410000000        <1>  add esp, 16
  1885 00000FCF 6805000000          <1>  push DWORD      5
  1886 00000FD4 680C000000          <1>  push DWORD      12
  1887 00000FD9 68[50040000]        <1>  push DWORD  lea9d31479a1d4
  1888 00000FDE 6800000000          <1>  push DWORD      0
  1889                              <1> 	EXTERN _printstring
  1890 00000FE3 E8(00000000)        <1>  call _printstring; imported
  1891 00000FE8 81C410000000        <1>  add esp, 16
  1892 00000FEE 6800000000          <1>  push DWORD      0
  1893                              <1> 	EXTERN _println
  1894 00000FF3 E8(00000000)        <1>  call _println; imported
  1895 00000FF8 81C404000000        <1>  add esp, 4
  1896                              <1>  lea9d315636239:
  1897                              <1> ;33
  1898 00000FFE D945F8              <1>  fld dword  [  ebp+     -8]
  1899 00001001 D945F4              <1>  fld dword  [  ebp+     -12]
  1900 00001004 D9C9                <1>  fxch
  1901 00001006 DED9                <1>  fcompp
  1902 00001008 6650                <1>  push ax
  1903 0000100A 9BDFE0              <1>  fstsw ax
  1904 0000100D 9E                  <1>  sahf
  1905 0000100E 6658                <1>  pop ax
  1906 00001010 0F93C3              <1>  setnc bl 
  1907 00001013 20DB                <1>  and bl,bl
  1908 00001015 0F8551000000        <1>  jnz near lea9d3156a4240
  1909 0000101B 6805000000          <1>  push DWORD      5
  1910 00001020 680C000000          <1>  push DWORD      12
  1911 00001025 FF75F8              <1>  push DWORD  [  ebp+     -8]
  1912 00001028 6800000000          <1>  push DWORD      0
  1913                              <1> 	EXTERN _printreal
  1914 0000102D E8(00000000)        <1>  call _printreal; imported
  1915 00001032 81C410000000        <1>  add esp, 16
  1916 00001038 6805000000          <1>  push DWORD      5
  1917 0000103D 680C000000          <1>  push DWORD      12
  1918 00001042 68[43040000]        <1>  push DWORD  lea9d3148081d7
  1919 00001047 6800000000          <1>  push DWORD      0
  1920                              <1> 	EXTERN _printstring
  1921 0000104C E8(00000000)        <1>  call _printstring; imported
  1922 00001051 81C410000000        <1>  add esp, 16
  1923 00001057 6800000000          <1>  push DWORD      0
  1924                              <1> 	EXTERN _println
  1925 0000105C E8(00000000)        <1>  call _println; imported
  1926 00001061 81C404000000        <1>  add esp, 4
  1927 00001067 E94C000000          <1>  jmp  lea9d3156a4241
  1928                              <1>  lea9d3156a4240:
  1929 0000106C 6805000000          <1>  push DWORD      5
  1930 00001071 680C000000          <1>  push DWORD      12
  1931 00001076 FF75F8              <1>  push DWORD  [  ebp+     -8]
  1932 00001079 6800000000          <1>  push DWORD      0
  1933                              <1> 	EXTERN _printreal
  1934 0000107E E8(00000000)        <1>  call _printreal; imported
  1935 00001083 81C410000000        <1>  add esp, 16
  1936 00001089 6805000000          <1>  push DWORD      5
  1937 0000108E 680C000000          <1>  push DWORD      12
  1938 00001093 68[48040000]        <1>  push DWORD  lea9d3148081d6
  1939 00001098 6800000000          <1>  push DWORD      0
  1940                              <1> 	EXTERN _printstring
  1941 0000109D E8(00000000)        <1>  call _printstring; imported
  1942 000010A2 81C410000000        <1>  add esp, 16
  1943 000010A8 6800000000          <1>  push DWORD      0
  1944                              <1> 	EXTERN _println
  1945 000010AD E8(00000000)        <1>  call _println; imported
  1946 000010B2 81C404000000        <1>  add esp, 4
  1947                              <1>  lea9d3156a4241:
  1948                              <1> ;34
  1949 000010B8 D945F8              <1>  fld dword  [  ebp+     -8]
  1950 000010BB D945F4              <1>  fld dword  [  ebp+     -12]
  1951 000010BE D9C9                <1>  fxch
  1952 000010C0 DED9                <1>  fcompp
  1953 000010C2 6650                <1>  push ax
  1954 000010C4 9BDFE0              <1>  fstsw ax
  1955 000010C7 9E                  <1>  sahf
  1956 000010C8 6658                <1>  pop ax
  1957 000010CA 0F96C3              <1>  setna bl 
  1958 000010CD 20DB                <1>  and bl,bl
  1959 000010CF 0F8551000000        <1>  jnz near lea9d315780248
  1960 000010D5 6805000000          <1>  push DWORD      5
  1961 000010DA 680C000000          <1>  push DWORD      12
  1962 000010DF FF75F8              <1>  push DWORD  [  ebp+     -8]
  1963 000010E2 6800000000          <1>  push DWORD      0
  1964                              <1> 	EXTERN _printreal
  1965 000010E7 E8(00000000)        <1>  call _printreal; imported
  1966 000010EC 81C410000000        <1>  add esp, 16
  1967 000010F2 6805000000          <1>  push DWORD      5
  1968 000010F7 680C000000          <1>  push DWORD      12
  1969 000010FC 68[3A040000]        <1>  push DWORD  lea9d3148081d9
  1970 00001101 6800000000          <1>  push DWORD      0
  1971                              <1> 	EXTERN _printstring
  1972 00001106 E8(00000000)        <1>  call _printstring; imported
  1973 0000110B 81C410000000        <1>  add esp, 16
  1974 00001111 6800000000          <1>  push DWORD      0
  1975                              <1> 	EXTERN _println
  1976 00001116 E8(00000000)        <1>  call _println; imported
  1977 0000111B 81C404000000        <1>  add esp, 4
  1978 00001121 E94C000000          <1>  jmp  lea9d315780249
  1979                              <1>  lea9d315780248:
  1980 00001126 6805000000          <1>  push DWORD      5
  1981 0000112B 680C000000          <1>  push DWORD      12
  1982 00001130 FF75F8              <1>  push DWORD  [  ebp+     -8]
  1983 00001133 6800000000          <1>  push DWORD      0
  1984                              <1> 	EXTERN _printreal
  1985 00001138 E8(00000000)        <1>  call _printreal; imported
  1986 0000113D 81C410000000        <1>  add esp, 16
  1987 00001143 6805000000          <1>  push DWORD      5
  1988 00001148 680C000000          <1>  push DWORD      12
  1989 0000114D 68[3E040000]        <1>  push DWORD  lea9d3148081d8
  1990 00001152 6800000000          <1>  push DWORD      0
  1991                              <1> 	EXTERN _printstring
  1992 00001157 E8(00000000)        <1>  call _printstring; imported
  1993 0000115C 81C410000000        <1>  add esp, 16
  1994 00001162 6800000000          <1>  push DWORD      0
  1995                              <1> 	EXTERN _println
  1996 00001167 E8(00000000)        <1>  call _println; imported
  1997 0000116C 81C404000000        <1>  add esp, 4
  1998                              <1>  lea9d315780249:
  1999                              <1> ;35
  2000 00001172 D945F8              <1>  fld dword  [  ebp+     -8]
  2001 00001175 D945F4              <1>  fld dword  [  ebp+     -12]
  2002 00001178 D9C9                <1>  fxch
  2003 0000117A DED9                <1>  fcompp
  2004 0000117C 6650                <1>  push ax
  2005 0000117E 9BDFE0              <1>  fstsw ax
  2006 00001181 9E                  <1>  sahf
  2007 00001182 6658                <1>  pop ax
  2008 00001184 0F93C3              <1>  setae bl 
  2009 00001187 20DB                <1>  and bl,bl
  2010 00001189 0F8541000000        <1>  jnz near lea9d315820250
  2011 0000118F 6805000000          <1>  push DWORD      5
  2012 00001194 680C000000          <1>  push DWORD      12
  2013 00001199 FF75F8              <1>  push DWORD  [  ebp+     -8]
  2014 0000119C 6800000000          <1>  push DWORD      0
  2015                              <1> 	EXTERN _printreal
  2016 000011A1 E8(00000000)        <1>  call _printreal; imported
  2017 000011A6 81C410000000        <1>  add esp, 16
  2018 000011AC 6805000000          <1>  push DWORD      5
  2019 000011B1 680C000000          <1>  push DWORD      12
  2020 000011B6 68[31040000]        <1>  push DWORD  lea9d3148441db
  2021 000011BB 6800000000          <1>  push DWORD      0
  2022                              <1> 	EXTERN _printstring
  2023 000011C0 E8(00000000)        <1>  call _printstring; imported
  2024 000011C5 81C410000000        <1>  add esp, 16
  2025 000011CB E93C000000          <1>  jmp  lea9d315820251
  2026                              <1>  lea9d315820250:
  2027 000011D0 6805000000          <1>  push DWORD      5
  2028 000011D5 680C000000          <1>  push DWORD      12
  2029 000011DA FF75F8              <1>  push DWORD  [  ebp+     -8]
  2030 000011DD 6800000000          <1>  push DWORD      0
  2031                              <1> 	EXTERN _printreal
  2032 000011E2 E8(00000000)        <1>  call _printreal; imported
  2033 000011E7 81C410000000        <1>  add esp, 16
  2034 000011ED 6805000000          <1>  push DWORD      5
  2035 000011F2 680C000000          <1>  push DWORD      12
  2036 000011F7 68[35040000]        <1>  push DWORD  lea9d3148441da
  2037 000011FC 6800000000          <1>  push DWORD      0
  2038                              <1> 	EXTERN _printstring
  2039 00001201 E8(00000000)        <1>  call _printstring; imported
  2040 00001206 81C410000000        <1>  add esp, 16
  2041                              <1>  lea9d315820251:
  2042                              <1> ;36
  2043 0000120C 6805000000          <1>  push DWORD      5
  2044 00001211 680C000000          <1>  push DWORD      12
  2045 00001216 68[0F040000]        <1>  push DWORD  lea9d3148441dc
  2046 0000121B 6800000000          <1>  push DWORD      0
  2047                              <1> 	EXTERN _printstring
  2048 00001220 E8(00000000)        <1>  call _printstring; imported
  2049 00001225 81C410000000        <1>  add esp, 16
  2050 0000122B 6800000000          <1>  push DWORD      0
  2051                              <1> 	EXTERN _println
  2052 00001230 E8(00000000)        <1>  call _println; imported
  2053 00001235 81C404000000        <1>  add esp, 4
  2054                              <1> ;37
  2055 0000123B 668B9D50FFFFFF      <1>  mov bx,WORD  [  ebp+     -176]
  2056 00001242 0FBFDB              <1>  movsx ebx,   bx
  2057 00001245 81FB00000000        <1>  cmp DWORD ebx,      0
  2058 0000124B 0F8C59000000        <1>  jl near  lea9d3158ca258
  2059 00001251 6805000000          <1>  push DWORD      5
  2060 00001256 680C000000          <1>  push DWORD      12
  2061 0000125B 668B9D50FFFFFF      <1>  mov bx,WORD  [  ebp+     -176]
  2062 00001262 0FBFDB              <1>  movsx ebx,   bx
  2063 00001265 53                  <1>  push ebx
  2064 00001266 6800000000          <1>  push DWORD      0
  2065                              <1> 	EXTERN _printint
  2066 0000126B E8(00000000)        <1>  call _printint; imported
  2067 00001270 81C410000000        <1>  add esp, 16
  2068 00001276 6805000000          <1>  push DWORD      5
  2069 0000127B 680C000000          <1>  push DWORD      12
  2070 00001280 68[06040000]        <1>  push DWORD  lea9d3148441de
  2071 00001285 6800000000          <1>  push DWORD      0
  2072                              <1> 	EXTERN _printstring
  2073 0000128A E8(00000000)        <1>  call _printstring; imported
  2074 0000128F 81C410000000        <1>  add esp, 16
  2075 00001295 6800000000          <1>  push DWORD      0
  2076                              <1> 	EXTERN _println
  2077 0000129A E8(00000000)        <1>  call _println; imported
  2078 0000129F 81C404000000        <1>  add esp, 4
  2079 000012A5 E954000000          <1>  jmp  lea9d3158ca259
  2080                              <1>  lea9d3158ca258:
  2081 000012AA 6805000000          <1>  push DWORD      5
  2082 000012AF 680C000000          <1>  push DWORD      12
  2083 000012B4 668B9D50FFFFFF      <1>  mov bx,WORD  [  ebp+     -176]
  2084 000012BB 0FBFDB              <1>  movsx ebx,   bx
  2085 000012BE 53                  <1>  push ebx
  2086 000012BF 6800000000          <1>  push DWORD      0
  2087                              <1> 	EXTERN _printint
  2088 000012C4 E8(00000000)        <1>  call _printint; imported
  2089 000012C9 81C410000000        <1>  add esp, 16
  2090 000012CF 6805000000          <1>  push DWORD      5
  2091 000012D4 680C000000          <1>  push DWORD      12
  2092 000012D9 68[0B040000]        <1>  push DWORD  lea9d3148441dd
  2093 000012DE 6800000000          <1>  push DWORD      0
  2094                              <1> 	EXTERN _printstring
  2095 000012E3 E8(00000000)        <1>  call _printstring; imported
  2096 000012E8 81C410000000        <1>  add esp, 16
  2097 000012EE 6800000000          <1>  push DWORD      0
  2098                              <1> 	EXTERN _println
  2099 000012F3 E8(00000000)        <1>  call _println; imported
  2100 000012F8 81C404000000        <1>  add esp, 4
  2101                              <1>  lea9d3158ca259:
  2102                              <1> ;38
  2103 000012FE 668B9D50FFFFFF      <1>  mov bx,WORD  [  ebp+     -176]
  2104 00001305 0FBFDB              <1>  movsx ebx,   bx
  2105 00001308 53                  <1>  push ebx
  2106 00001309 DB0424              <1>  fild dword [esp]
  2107 0000130C 81C404000000        <1>  add esp,4
  2108 00001312 D945F4              <1>  fld dword  [  ebp+     -12]
  2109 00001315 D9C9                <1>  fxch
  2110 00001317 DED9                <1>  fcompp
  2111 00001319 6650                <1>  push ax
  2112 0000131B 9BDFE0              <1>  fstsw ax
  2113 0000131E 9E                  <1>  sahf
  2114 0000131F 6658                <1>  pop ax
  2115 00001321 0F92C3              <1>  setc bl 
  2116 00001324 20DB                <1>  and bl,bl
  2117 00001326 0F8559000000        <1>  jnz near lea9d3159a6260
  2118 0000132C 6805000000          <1>  push DWORD      5
  2119 00001331 680C000000          <1>  push DWORD      12
  2120 00001336 668B9D50FFFFFF      <1>  mov bx,WORD  [  ebp+     -176]
  2121 0000133D 0FBFDB              <1>  movsx ebx,   bx
  2122 00001340 53                  <1>  push ebx
  2123 00001341 6800000000          <1>  push DWORD      0
  2124                              <1> 	EXTERN _printint
  2125 00001346 E8(00000000)        <1>  call _printint; imported
  2126 0000134B 81C410000000        <1>  add esp, 16
  2127 00001351 6805000000          <1>  push DWORD      5
  2128 00001356 680C000000          <1>  push DWORD      12
  2129 0000135B 68[FD030000]        <1>  push DWORD  lea9d3148761e0
  2130 00001360 6800000000          <1>  push DWORD      0
  2131                              <1> 	EXTERN _printstring
  2132 00001365 E8(00000000)        <1>  call _printstring; imported
  2133 0000136A 81C410000000        <1>  add esp, 16
  2134 00001370 6800000000          <1>  push DWORD      0
  2135                              <1> 	EXTERN _println
  2136 00001375 E8(00000000)        <1>  call _println; imported
  2137 0000137A 81C404000000        <1>  add esp, 4
  2138 00001380 E954000000          <1>  jmp  lea9d3159a6261
  2139                              <1>  lea9d3159a6260:
  2140 00001385 6805000000          <1>  push DWORD      5
  2141 0000138A 680C000000          <1>  push DWORD      12
  2142 0000138F 668B9D50FFFFFF      <1>  mov bx,WORD  [  ebp+     -176]
  2143 00001396 0FBFDB              <1>  movsx ebx,   bx
  2144 00001399 53                  <1>  push ebx
  2145 0000139A 6800000000          <1>  push DWORD      0
  2146                              <1> 	EXTERN _printint
  2147 0000139F E8(00000000)        <1>  call _printint; imported
  2148 000013A4 81C410000000        <1>  add esp, 16
  2149 000013AA 6805000000          <1>  push DWORD      5
  2150 000013AF 680C000000          <1>  push DWORD      12
  2151 000013B4 68[02040000]        <1>  push DWORD  lea9d3148441df
  2152 000013B9 6800000000          <1>  push DWORD      0
  2153                              <1> 	EXTERN _printstring
  2154 000013BE E8(00000000)        <1>  call _printstring; imported
  2155 000013C3 81C410000000        <1>  add esp, 16
  2156 000013C9 6800000000          <1>  push DWORD      0
  2157                              <1> 	EXTERN _println
  2158 000013CE E8(00000000)        <1>  call _println; imported
  2159 000013D3 81C404000000        <1>  add esp, 4
  2160                              <1>  lea9d3159a6261:
  2161                              <1> ;39
  2162 000013D9 668B9D50FFFFFF      <1>  mov bx,WORD  [  ebp+     -176]
  2163 000013E0 0FBFDB              <1>  movsx ebx,   bx
  2164 000013E3 81FB00000000        <1>  cmp DWORD ebx,      0
  2165 000013E9 0F8F59000000        <1>  jg near  lea9d315ab4268
  2166 000013EF 6805000000          <1>  push DWORD      5
  2167 000013F4 680C000000          <1>  push DWORD      12
  2168 000013F9 668B9D50FFFFFF      <1>  mov bx,WORD  [  ebp+     -176]
  2169 00001400 0FBFDB              <1>  movsx ebx,   bx
  2170 00001403 53                  <1>  push ebx
  2171 00001404 6800000000          <1>  push DWORD      0
  2172                              <1> 	EXTERN _printint
  2173 00001409 E8(00000000)        <1>  call _printint; imported
  2174 0000140E 81C410000000        <1>  add esp, 16
  2175 00001414 6805000000          <1>  push DWORD      5
  2176 00001419 680C000000          <1>  push DWORD      12
  2177 0000141E 68[F4030000]        <1>  push DWORD  lea9d3148761e2
  2178 00001423 6800000000          <1>  push DWORD      0
  2179                              <1> 	EXTERN _printstring
  2180 00001428 E8(00000000)        <1>  call _printstring; imported
  2181 0000142D 81C410000000        <1>  add esp, 16
  2182 00001433 6800000000          <1>  push DWORD      0
  2183                              <1> 	EXTERN _println
  2184 00001438 E8(00000000)        <1>  call _println; imported
  2185 0000143D 81C404000000        <1>  add esp, 4
  2186 00001443 E954000000          <1>  jmp  lea9d315ab4269
  2187                              <1>  lea9d315ab4268:
  2188 00001448 6805000000          <1>  push DWORD      5
  2189 0000144D 680C000000          <1>  push DWORD      12
  2190 00001452 668B9D50FFFFFF      <1>  mov bx,WORD  [  ebp+     -176]
  2191 00001459 0FBFDB              <1>  movsx ebx,   bx
  2192 0000145C 53                  <1>  push ebx
  2193 0000145D 6800000000          <1>  push DWORD      0
  2194                              <1> 	EXTERN _printint
  2195 00001462 E8(00000000)        <1>  call _printint; imported
  2196 00001467 81C410000000        <1>  add esp, 16
  2197 0000146D 6805000000          <1>  push DWORD      5
  2198 00001472 680C000000          <1>  push DWORD      12
  2199 00001477 68[F9030000]        <1>  push DWORD  lea9d3148761e1
  2200 0000147C 6800000000          <1>  push DWORD      0
  2201                              <1> 	EXTERN _printstring
  2202 00001481 E8(00000000)        <1>  call _printstring; imported
  2203 00001486 81C410000000        <1>  add esp, 16
  2204 0000148C 6800000000          <1>  push DWORD      0
  2205                              <1> 	EXTERN _println
  2206 00001491 E8(00000000)        <1>  call _println; imported
  2207 00001496 81C404000000        <1>  add esp, 4
  2208                              <1>  lea9d315ab4269:
  2209                              <1> ;40
  2210 0000149C 668B9D50FFFFFF      <1>  mov bx,WORD  [  ebp+     -176]
  2211 000014A3 0FBFDB              <1>  movsx ebx,   bx
  2212 000014A6 81FB00000000        <1>  cmp DWORD ebx,      0
  2213 000014AC 0F8E59000000        <1>  jle near  lea9d315b54270
  2214 000014B2 6805000000          <1>  push DWORD      5
  2215 000014B7 680C000000          <1>  push DWORD      12
  2216 000014BC 668B9D50FFFFFF      <1>  mov bx,WORD  [  ebp+     -176]
  2217 000014C3 0FBFDB              <1>  movsx ebx,   bx
  2218 000014C6 53                  <1>  push ebx
  2219 000014C7 6800000000          <1>  push DWORD      0
  2220                              <1> 	EXTERN _printint
  2221 000014CC E8(00000000)        <1>  call _printint; imported
  2222 000014D1 81C410000000        <1>  add esp, 16
  2223 000014D7 6805000000          <1>  push DWORD      5
  2224 000014DC 680C000000          <1>  push DWORD      12
  2225 000014E1 68[EB030000]        <1>  push DWORD  lea9d3148761e4
  2226 000014E6 6800000000          <1>  push DWORD      0
  2227                              <1> 	EXTERN _printstring
  2228 000014EB E8(00000000)        <1>  call _printstring; imported
  2229 000014F0 81C410000000        <1>  add esp, 16
  2230 000014F6 6800000000          <1>  push DWORD      0
  2231                              <1> 	EXTERN _println
  2232 000014FB E8(00000000)        <1>  call _println; imported
  2233 00001500 81C404000000        <1>  add esp, 4
  2234 00001506 E954000000          <1>  jmp  lea9d315b54271
  2235                              <1>  lea9d315b54270:
  2236 0000150B 6805000000          <1>  push DWORD      5
  2237 00001510 680C000000          <1>  push DWORD      12
  2238 00001515 668B9D50FFFFFF      <1>  mov bx,WORD  [  ebp+     -176]
  2239 0000151C 0FBFDB              <1>  movsx ebx,   bx
  2240 0000151F 53                  <1>  push ebx
  2241 00001520 6800000000          <1>  push DWORD      0
  2242                              <1> 	EXTERN _printint
  2243 00001525 E8(00000000)        <1>  call _printint; imported
  2244 0000152A 81C410000000        <1>  add esp, 16
  2245 00001530 6805000000          <1>  push DWORD      5
  2246 00001535 680C000000          <1>  push DWORD      12
  2247 0000153A 68[EF030000]        <1>  push DWORD  lea9d3148761e3
  2248 0000153F 6800000000          <1>  push DWORD      0
  2249                              <1> 	EXTERN _printstring
  2250 00001544 E8(00000000)        <1>  call _printstring; imported
  2251 00001549 81C410000000        <1>  add esp, 16
  2252 0000154F 6800000000          <1>  push DWORD      0
  2253                              <1> 	EXTERN _println
  2254 00001554 E8(00000000)        <1>  call _println; imported
  2255 00001559 81C404000000        <1>  add esp, 4
  2256                              <1>  lea9d315b54271:
  2257                              <1> ;41
  2258 0000155F 668B9D50FFFFFF      <1>  mov bx,WORD  [  ebp+     -176]
  2259 00001566 0FBFDB              <1>  movsx ebx,   bx
  2260 00001569 81FB00000000        <1>  cmp DWORD ebx,      0
  2261 0000156F 0F8D59000000        <1>  jge near  lea9d315bc2278
  2262 00001575 6805000000          <1>  push DWORD      5
  2263 0000157A 680C000000          <1>  push DWORD      12
  2264 0000157F 668B9D50FFFFFF      <1>  mov bx,WORD  [  ebp+     -176]
  2265 00001586 0FBFDB              <1>  movsx ebx,   bx
  2266 00001589 53                  <1>  push ebx
  2267 0000158A 6800000000          <1>  push DWORD      0
  2268                              <1> 	EXTERN _printint
  2269 0000158F E8(00000000)        <1>  call _printint; imported
  2270 00001594 81C410000000        <1>  add esp, 16
  2271 0000159A 6805000000          <1>  push DWORD      5
  2272 0000159F 680C000000          <1>  push DWORD      12
  2273 000015A4 68[E2030000]        <1>  push DWORD  lea9d3148b21e6
  2274 000015A9 6800000000          <1>  push DWORD      0
  2275                              <1> 	EXTERN _printstring
  2276 000015AE E8(00000000)        <1>  call _printstring; imported
  2277 000015B3 81C410000000        <1>  add esp, 16
  2278 000015B9 6800000000          <1>  push DWORD      0
  2279                              <1> 	EXTERN _println
  2280 000015BE E8(00000000)        <1>  call _println; imported
  2281 000015C3 81C404000000        <1>  add esp, 4
  2282 000015C9 E954000000          <1>  jmp  lea9d315bc2279
  2283                              <1>  lea9d315bc2278:
  2284 000015CE 6805000000          <1>  push DWORD      5
  2285 000015D3 680C000000          <1>  push DWORD      12
  2286 000015D8 668B9D50FFFFFF      <1>  mov bx,WORD  [  ebp+     -176]
  2287 000015DF 0FBFDB              <1>  movsx ebx,   bx
  2288 000015E2 53                  <1>  push ebx
  2289 000015E3 6800000000          <1>  push DWORD      0
  2290                              <1> 	EXTERN _printint
  2291 000015E8 E8(00000000)        <1>  call _printint; imported
  2292 000015ED 81C410000000        <1>  add esp, 16
  2293 000015F3 6805000000          <1>  push DWORD      5
  2294 000015F8 680C000000          <1>  push DWORD      12
  2295 000015FD 68[E6030000]        <1>  push DWORD  lea9d3148761e5
  2296 00001602 6800000000          <1>  push DWORD      0
  2297                              <1> 	EXTERN _printstring
  2298 00001607 E8(00000000)        <1>  call _printstring; imported
  2299 0000160C 81C410000000        <1>  add esp, 16
  2300 00001612 6800000000          <1>  push DWORD      0
  2301                              <1> 	EXTERN _println
  2302 00001617 E8(00000000)        <1>  call _println; imported
  2303 0000161C 81C404000000        <1>  add esp, 4
  2304                              <1>  lea9d315bc2279:
  2305                              <1> ;42
  2306 00001622 668B9D50FFFFFF      <1>  mov bx,WORD  [  ebp+     -176]
  2307 00001629 0FBFDB              <1>  movsx ebx,   bx
  2308 0000162C 53                  <1>  push ebx
  2309 0000162D DB0424              <1>  fild dword [esp]
  2310 00001630 81C404000000        <1>  add esp,4
  2311 00001636 D945F4              <1>  fld dword  [  ebp+     -12]
  2312 00001639 D9C9                <1>  fxch
  2313 0000163B DED9                <1>  fcompp
  2314 0000163D 6650                <1>  push ax
  2315 0000163F 9BDFE0              <1>  fstsw ax
  2316 00001642 9E                  <1>  sahf
  2317 00001643 6658                <1>  pop ax
  2318 00001645 0F93C3              <1>  setnc bl 
  2319 00001648 20DB                <1>  and bl,bl
  2320 0000164A 0F8559000000        <1>  jnz near lea9d315c30280
  2321 00001650 6805000000          <1>  push DWORD      5
  2322 00001655 680C000000          <1>  push DWORD      12
  2323 0000165A 668B9D50FFFFFF      <1>  mov bx,WORD  [  ebp+     -176]
  2324 00001661 0FBFDB              <1>  movsx ebx,   bx
  2325 00001664 53                  <1>  push ebx
  2326 00001665 6800000000          <1>  push DWORD      0
  2327                              <1> 	EXTERN _printint
  2328 0000166A E8(00000000)        <1>  call _printint; imported
  2329 0000166F 81C410000000        <1>  add esp, 16
  2330 00001675 6805000000          <1>  push DWORD      5
  2331 0000167A 680C000000          <1>  push DWORD      12
  2332 0000167F 68[D9030000]        <1>  push DWORD  lea9d3148b21e8
  2333 00001684 6800000000          <1>  push DWORD      0
  2334                              <1> 	EXTERN _printstring
  2335 00001689 E8(00000000)        <1>  call _printstring; imported
  2336 0000168E 81C410000000        <1>  add esp, 16
  2337 00001694 6800000000          <1>  push DWORD      0
  2338                              <1> 	EXTERN _println
  2339 00001699 E8(00000000)        <1>  call _println; imported
  2340 0000169E 81C404000000        <1>  add esp, 4
  2341 000016A4 E954000000          <1>  jmp  lea9d315c30281
  2342                              <1>  lea9d315c30280:
  2343 000016A9 6805000000          <1>  push DWORD      5
  2344 000016AE 680C000000          <1>  push DWORD      12
  2345 000016B3 668B9D50FFFFFF      <1>  mov bx,WORD  [  ebp+     -176]
  2346 000016BA 0FBFDB              <1>  movsx ebx,   bx
  2347 000016BD 53                  <1>  push ebx
  2348 000016BE 6800000000          <1>  push DWORD      0
  2349                              <1> 	EXTERN _printint
  2350 000016C3 E8(00000000)        <1>  call _printint; imported
  2351 000016C8 81C410000000        <1>  add esp, 16
  2352 000016CE 6805000000          <1>  push DWORD      5
  2353 000016D3 680C000000          <1>  push DWORD      12
  2354 000016D8 68[DE030000]        <1>  push DWORD  lea9d3148b21e7
  2355 000016DD 6800000000          <1>  push DWORD      0
  2356                              <1> 	EXTERN _printstring
  2357 000016E2 E8(00000000)        <1>  call _printstring; imported
  2358 000016E7 81C410000000        <1>  add esp, 16
  2359 000016ED 6800000000          <1>  push DWORD      0
  2360                              <1> 	EXTERN _println
  2361 000016F2 E8(00000000)        <1>  call _println; imported
  2362 000016F7 81C404000000        <1>  add esp, 4
  2363                              <1>  lea9d315c30281:
  2364                              <1> ;43
  2365 000016FD 668B9D50FFFFFF      <1>  mov bx,WORD  [  ebp+     -176]
  2366 00001704 0FBFDB              <1>  movsx ebx,   bx
  2367 00001707 53                  <1>  push ebx
  2368 00001708 DB0424              <1>  fild dword [esp]
  2369 0000170B 81C404000000        <1>  add esp,4
  2370 00001711 D945F4              <1>  fld dword  [  ebp+     -12]
  2371 00001714 D9C9                <1>  fxch
  2372 00001716 DED9                <1>  fcompp
  2373 00001718 6650                <1>  push ax
  2374 0000171A 9BDFE0              <1>  fstsw ax
  2375 0000171D 9E                  <1>  sahf
  2376 0000171E 6658                <1>  pop ax
  2377 00001720 0F96C3              <1>  setna bl 
  2378 00001723 20DB                <1>  and bl,bl
  2379 00001725 0F8559000000        <1>  jnz near lea9d315cda288
  2380 0000172B 6805000000          <1>  push DWORD      5
  2381 00001730 680C000000          <1>  push DWORD      12
  2382 00001735 668B9D50FFFFFF      <1>  mov bx,WORD  [  ebp+     -176]
  2383 0000173C 0FBFDB              <1>  movsx ebx,   bx
  2384 0000173F 53                  <1>  push ebx
  2385 00001740 6800000000          <1>  push DWORD      0
  2386                              <1> 	EXTERN _printint
  2387 00001745 E8(00000000)        <1>  call _printint; imported
  2388 0000174A 81C410000000        <1>  add esp, 16
  2389 00001750 6805000000          <1>  push DWORD      5
  2390 00001755 680C000000          <1>  push DWORD      12
  2391 0000175A 68[D0030000]        <1>  push DWORD  lea9d3148b21ea
  2392 0000175F 6800000000          <1>  push DWORD      0
  2393                              <1> 	EXTERN _printstring
  2394 00001764 E8(00000000)        <1>  call _printstring; imported
  2395 00001769 81C410000000        <1>  add esp, 16
  2396 0000176F 6800000000          <1>  push DWORD      0
  2397                              <1> 	EXTERN _println
  2398 00001774 E8(00000000)        <1>  call _println; imported
  2399 00001779 81C404000000        <1>  add esp, 4
  2400 0000177F E954000000          <1>  jmp  lea9d315cda289
  2401                              <1>  lea9d315cda288:
  2402 00001784 6805000000          <1>  push DWORD      5
  2403 00001789 680C000000          <1>  push DWORD      12
  2404 0000178E 668B9D50FFFFFF      <1>  mov bx,WORD  [  ebp+     -176]
  2405 00001795 0FBFDB              <1>  movsx ebx,   bx
  2406 00001798 53                  <1>  push ebx
  2407 00001799 6800000000          <1>  push DWORD      0
  2408                              <1> 	EXTERN _printint
  2409 0000179E E8(00000000)        <1>  call _printint; imported
  2410 000017A3 81C410000000        <1>  add esp, 16
  2411 000017A9 6805000000          <1>  push DWORD      5
  2412 000017AE 680C000000          <1>  push DWORD      12
  2413 000017B3 68[D4030000]        <1>  push DWORD  lea9d3148b21e9
  2414 000017B8 6800000000          <1>  push DWORD      0
  2415                              <1> 	EXTERN _printstring
  2416 000017BD E8(00000000)        <1>  call _printstring; imported
  2417 000017C2 81C410000000        <1>  add esp, 16
  2418 000017C8 6800000000          <1>  push DWORD      0
  2419                              <1> 	EXTERN _println
  2420 000017CD E8(00000000)        <1>  call _println; imported
  2421 000017D2 81C404000000        <1>  add esp, 4
  2422                              <1>  lea9d315cda289:
  2423                              <1> ;44
  2424 000017D8 668B9D50FFFFFF      <1>  mov bx,WORD  [  ebp+     -176]
  2425 000017DF 0FBFDB              <1>  movsx ebx,   bx
  2426 000017E2 53                  <1>  push ebx
  2427 000017E3 DB0424              <1>  fild dword [esp]
  2428 000017E6 81C404000000        <1>  add esp,4
  2429 000017EC D945F4              <1>  fld dword  [  ebp+     -12]
  2430 000017EF D9C9                <1>  fxch
  2431 000017F1 DED9                <1>  fcompp
  2432 000017F3 6650                <1>  push ax
  2433 000017F5 9BDFE0              <1>  fstsw ax
  2434 000017F8 9E                  <1>  sahf
  2435 000017F9 6658                <1>  pop ax
  2436 000017FB 0F93C3              <1>  setae bl 
  2437 000017FE 20DB                <1>  and bl,bl
  2438 00001800 0F8549000000        <1>  jnz near lea9d315de8290
  2439 00001806 6805000000          <1>  push DWORD      5
  2440 0000180B 680C000000          <1>  push DWORD      12
  2441 00001810 668B9D50FFFFFF      <1>  mov bx,WORD  [  ebp+     -176]
  2442 00001817 0FBFDB              <1>  movsx ebx,   bx
  2443 0000181A 53                  <1>  push ebx
  2444 0000181B 6800000000          <1>  push DWORD      0
  2445                              <1> 	EXTERN _printint
  2446 00001820 E8(00000000)        <1>  call _printint; imported
  2447 00001825 81C410000000        <1>  add esp, 16
  2448 0000182B 6805000000          <1>  push DWORD      5
  2449 00001830 680C000000          <1>  push DWORD      12
  2450 00001835 68[C7030000]        <1>  push DWORD  lea9d3149201ec
  2451 0000183A 6800000000          <1>  push DWORD      0
  2452                              <1> 	EXTERN _printstring
  2453 0000183F E8(00000000)        <1>  call _printstring; imported
  2454 00001844 81C410000000        <1>  add esp, 16
  2455 0000184A E944000000          <1>  jmp  lea9d315de8291
  2456                              <1>  lea9d315de8290:
  2457 0000184F 6805000000          <1>  push DWORD      5
  2458 00001854 680C000000          <1>  push DWORD      12
  2459 00001859 668B9D50FFFFFF      <1>  mov bx,WORD  [  ebp+     -176]
  2460 00001860 0FBFDB              <1>  movsx ebx,   bx
  2461 00001863 53                  <1>  push ebx
  2462 00001864 6800000000          <1>  push DWORD      0
  2463                              <1> 	EXTERN _printint
  2464 00001869 E8(00000000)        <1>  call _printint; imported
  2465 0000186E 81C410000000        <1>  add esp, 16
  2466 00001874 6805000000          <1>  push DWORD      5
  2467 00001879 680C000000          <1>  push DWORD      12
  2468 0000187E 68[CB030000]        <1>  push DWORD  lea9d3149201eb
  2469 00001883 6800000000          <1>  push DWORD      0
  2470                              <1> 	EXTERN _printstring
  2471 00001888 E8(00000000)        <1>  call _printstring; imported
  2472 0000188D 81C410000000        <1>  add esp, 16
  2473                              <1>  lea9d315de8291:
  2474                              <1> ;46
  2475 00001893 6805000000          <1>  push DWORD      5
  2476 00001898 680C000000          <1>  push DWORD      12
  2477 0000189D 68[AE030000]        <1>  push DWORD  lea9d3149201ed
  2478 000018A2 6800000000          <1>  push DWORD      0
  2479                              <1> 	EXTERN _printstring
  2480 000018A7 E8(00000000)        <1>  call _printstring; imported
  2481 000018AC 81C410000000        <1>  add esp, 16
  2482 000018B2 6800000000          <1>  push DWORD      0
  2483                              <1> 	EXTERN _println
  2484 000018B7 E8(00000000)        <1>  call _println; imported
  2485 000018BC 81C404000000        <1>  add esp, 4
  2486                              <1> ;47
  2487 000018C2 81BD54FFFFFF000000- <1>  cmp DWORD  [  ebp+     -172],      0
  2488 000018CB 00                  <1>
  2489 000018CC 0F8C54000000        <1>  jl near  lea9d315ec4298
  2490 000018D2 6805000000          <1>  push DWORD      5
  2491 000018D7 680C000000          <1>  push DWORD      12
  2492 000018DC FFB554FFFFFF        <1>  push DWORD  [  ebp+     -172]
  2493 000018E2 6800000000          <1>  push DWORD      0
  2494                              <1> 	EXTERN _printint
  2495 000018E7 E8(00000000)        <1>  call _printint; imported
  2496 000018EC 81C410000000        <1>  add esp, 16
  2497 000018F2 6805000000          <1>  push DWORD      5
  2498 000018F7 680C000000          <1>  push DWORD      12
  2499 000018FC 68[A5030000]        <1>  push DWORD  lea9d3149521ef
  2500 00001901 6800000000          <1>  push DWORD      0
  2501                              <1> 	EXTERN _printstring
  2502 00001906 E8(00000000)        <1>  call _printstring; imported
  2503 0000190B 81C410000000        <1>  add esp, 16
  2504 00001911 6800000000          <1>  push DWORD      0
  2505                              <1> 	EXTERN _println
  2506 00001916 E8(00000000)        <1>  call _println; imported
  2507 0000191B 81C404000000        <1>  add esp, 4
  2508 00001921 E94F000000          <1>  jmp  lea9d315ec4299
  2509                              <1>  lea9d315ec4298:
  2510 00001926 6805000000          <1>  push DWORD      5
  2511 0000192B 680C000000          <1>  push DWORD      12
  2512 00001930 FFB554FFFFFF        <1>  push DWORD  [  ebp+     -172]
  2513 00001936 6800000000          <1>  push DWORD      0
  2514                              <1> 	EXTERN _printint
  2515 0000193B E8(00000000)        <1>  call _printint; imported
  2516 00001940 81C410000000        <1>  add esp, 16
  2517 00001946 6805000000          <1>  push DWORD      5
  2518 0000194B 680C000000          <1>  push DWORD      12
  2519 00001950 68[AA030000]        <1>  push DWORD  lea9d3149521ee
  2520 00001955 6800000000          <1>  push DWORD      0
  2521                              <1> 	EXTERN _printstring
  2522 0000195A E8(00000000)        <1>  call _printstring; imported
  2523 0000195F 81C410000000        <1>  add esp, 16
  2524 00001965 6800000000          <1>  push DWORD      0
  2525                              <1> 	EXTERN _println
  2526 0000196A E8(00000000)        <1>  call _println; imported
  2527 0000196F 81C404000000        <1>  add esp, 4
  2528                              <1>  lea9d315ec4299:
  2529                              <1> ;48
  2530 00001975 DB8554FFFFFF        <1>  fild DWORD  [  ebp+     -172]
  2531 0000197B D945F4              <1>  fld dword  [  ebp+     -12]
  2532 0000197E D9C9                <1>  fxch
  2533 00001980 DED9                <1>  fcompp
  2534 00001982 6650                <1>  push ax
  2535 00001984 9BDFE0              <1>  fstsw ax
  2536 00001987 9E                  <1>  sahf
  2537 00001988 6658                <1>  pop ax
  2538 0000198A 0F92C3              <1>  setc bl 
  2539 0000198D 20DB                <1>  and bl,bl
  2540 0000198F 0F8554000000        <1>  jnz near lea9d315f002a0
  2541 00001995 6805000000          <1>  push DWORD      5
  2542 0000199A 680C000000          <1>  push DWORD      12
  2543 0000199F FFB554FFFFFF        <1>  push DWORD  [  ebp+     -172]
  2544 000019A5 6800000000          <1>  push DWORD      0
  2545                              <1> 	EXTERN _printint
  2546 000019AA E8(00000000)        <1>  call _printint; imported
  2547 000019AF 81C410000000        <1>  add esp, 16
  2548 000019B5 6805000000          <1>  push DWORD      5
  2549 000019BA 680C000000          <1>  push DWORD      12
  2550 000019BF 68[9C030000]        <1>  push DWORD  lea9d31498e1f1
  2551 000019C4 6800000000          <1>  push DWORD      0
  2552                              <1> 	EXTERN _printstring
  2553 000019C9 E8(00000000)        <1>  call _printstring; imported
  2554 000019CE 81C410000000        <1>  add esp, 16
  2555 000019D4 6800000000          <1>  push DWORD      0
  2556                              <1> 	EXTERN _println
  2557 000019D9 E8(00000000)        <1>  call _println; imported
  2558 000019DE 81C404000000        <1>  add esp, 4
  2559 000019E4 E94F000000          <1>  jmp  lea9d315f002a1
  2560                              <1>  lea9d315f002a0:
  2561 000019E9 6805000000          <1>  push DWORD      5
  2562 000019EE 680C000000          <1>  push DWORD      12
  2563 000019F3 FFB554FFFFFF        <1>  push DWORD  [  ebp+     -172]
  2564 000019F9 6800000000          <1>  push DWORD      0
  2565                              <1> 	EXTERN _printint
  2566 000019FE E8(00000000)        <1>  call _printint; imported
  2567 00001A03 81C410000000        <1>  add esp, 16
  2568 00001A09 6805000000          <1>  push DWORD      5
  2569 00001A0E 680C000000          <1>  push DWORD      12
  2570 00001A13 68[A1030000]        <1>  push DWORD  lea9d3149521f0
  2571 00001A18 6800000000          <1>  push DWORD      0
  2572                              <1> 	EXTERN _printstring
  2573 00001A1D E8(00000000)        <1>  call _printstring; imported
  2574 00001A22 81C410000000        <1>  add esp, 16
  2575 00001A28 6800000000          <1>  push DWORD      0
  2576                              <1> 	EXTERN _println
  2577 00001A2D E8(00000000)        <1>  call _println; imported
  2578 00001A32 81C404000000        <1>  add esp, 4
  2579                              <1>  lea9d315f002a1:
  2580                              <1> ;49
  2581 00001A38 81BD54FFFFFF000000- <1>  cmp DWORD  [  ebp+     -172],      0
  2582 00001A41 00                  <1>
  2583 00001A42 0F8F54000000        <1>  jg near  lea9d315fa02a8
  2584 00001A48 6805000000          <1>  push DWORD      5
  2585 00001A4D 680C000000          <1>  push DWORD      12
  2586 00001A52 FFB554FFFFFF        <1>  push DWORD  [  ebp+     -172]
  2587 00001A58 6800000000          <1>  push DWORD      0
  2588                              <1> 	EXTERN _printint
  2589 00001A5D E8(00000000)        <1>  call _printint; imported
  2590 00001A62 81C410000000        <1>  add esp, 16
  2591 00001A68 6805000000          <1>  push DWORD      5
  2592 00001A6D 680C000000          <1>  push DWORD      12
  2593 00001A72 68[93030000]        <1>  push DWORD  lea9d31498e1f3
  2594 00001A77 6800000000          <1>  push DWORD      0
  2595                              <1> 	EXTERN _printstring
  2596 00001A7C E8(00000000)        <1>  call _printstring; imported
  2597 00001A81 81C410000000        <1>  add esp, 16
  2598 00001A87 6800000000          <1>  push DWORD      0
  2599                              <1> 	EXTERN _println
  2600 00001A8C E8(00000000)        <1>  call _println; imported
  2601 00001A91 81C404000000        <1>  add esp, 4
  2602 00001A97 E94F000000          <1>  jmp  lea9d315fa02a9
  2603                              <1>  lea9d315fa02a8:
  2604 00001A9C 6805000000          <1>  push DWORD      5
  2605 00001AA1 680C000000          <1>  push DWORD      12
  2606 00001AA6 FFB554FFFFFF        <1>  push DWORD  [  ebp+     -172]
  2607 00001AAC 6800000000          <1>  push DWORD      0
  2608                              <1> 	EXTERN _printint
  2609 00001AB1 E8(00000000)        <1>  call _printint; imported
  2610 00001AB6 81C410000000        <1>  add esp, 16
  2611 00001ABC 6805000000          <1>  push DWORD      5
  2612 00001AC1 680C000000          <1>  push DWORD      12
  2613 00001AC6 68[98030000]        <1>  push DWORD  lea9d31498e1f2
  2614 00001ACB 6800000000          <1>  push DWORD      0
  2615                              <1> 	EXTERN _printstring
  2616 00001AD0 E8(00000000)        <1>  call _printstring; imported
  2617 00001AD5 81C410000000        <1>  add esp, 16
  2618 00001ADB 6800000000          <1>  push DWORD      0
  2619                              <1> 	EXTERN _println
  2620 00001AE0 E8(00000000)        <1>  call _println; imported
  2621 00001AE5 81C404000000        <1>  add esp, 4
  2622                              <1>  lea9d315fa02a9:
  2623                              <1> ;50
  2624 00001AEB 81BD54FFFFFF000000- <1>  cmp DWORD  [  ebp+     -172],      0
  2625 00001AF4 00                  <1>
  2626 00001AF5 0F8E54000000        <1>  jle near  lea9d31600e2b0
  2627 00001AFB 6805000000          <1>  push DWORD      5
  2628 00001B00 680C000000          <1>  push DWORD      12
  2629 00001B05 FFB554FFFFFF        <1>  push DWORD  [  ebp+     -172]
  2630 00001B0B 6800000000          <1>  push DWORD      0
  2631                              <1> 	EXTERN _printint
  2632 00001B10 E8(00000000)        <1>  call _printint; imported
  2633 00001B15 81C410000000        <1>  add esp, 16
  2634 00001B1B 6805000000          <1>  push DWORD      5
  2635 00001B20 680C000000          <1>  push DWORD      12
  2636 00001B25 68[8A030000]        <1>  push DWORD  lea9d31498e1f5
  2637 00001B2A 6800000000          <1>  push DWORD      0
  2638                              <1> 	EXTERN _printstring
  2639 00001B2F E8(00000000)        <1>  call _printstring; imported
  2640 00001B34 81C410000000        <1>  add esp, 16
  2641 00001B3A 6800000000          <1>  push DWORD      0
  2642                              <1> 	EXTERN _println
  2643 00001B3F E8(00000000)        <1>  call _println; imported
  2644 00001B44 81C404000000        <1>  add esp, 4
  2645 00001B4A E94F000000          <1>  jmp  lea9d31600e2b1
  2646                              <1>  lea9d31600e2b0:
  2647 00001B4F 6805000000          <1>  push DWORD      5
  2648 00001B54 680C000000          <1>  push DWORD      12
  2649 00001B59 FFB554FFFFFF        <1>  push DWORD  [  ebp+     -172]
  2650 00001B5F 6800000000          <1>  push DWORD      0
  2651                              <1> 	EXTERN _printint
  2652 00001B64 E8(00000000)        <1>  call _printint; imported
  2653 00001B69 81C410000000        <1>  add esp, 16
  2654 00001B6F 6805000000          <1>  push DWORD      5
  2655 00001B74 680C000000          <1>  push DWORD      12
  2656 00001B79 68[8E030000]        <1>  push DWORD  lea9d31498e1f4
  2657 00001B7E 6800000000          <1>  push DWORD      0
  2658                              <1> 	EXTERN _printstring
  2659 00001B83 E8(00000000)        <1>  call _printstring; imported
  2660 00001B88 81C410000000        <1>  add esp, 16
  2661 00001B8E 6800000000          <1>  push DWORD      0
  2662                              <1> 	EXTERN _println
  2663 00001B93 E8(00000000)        <1>  call _println; imported
  2664 00001B98 81C404000000        <1>  add esp, 4
  2665                              <1>  lea9d31600e2b1:
  2666                              <1> ;51
  2667 00001B9E 81BD54FFFFFF000000- <1>  cmp DWORD  [  ebp+     -172],      0
  2668 00001BA7 00                  <1>
  2669 00001BA8 0F8D54000000        <1>  jge near  lea9d31604a2b8
  2670 00001BAE 6805000000          <1>  push DWORD      5
  2671 00001BB3 680C000000          <1>  push DWORD      12
  2672 00001BB8 FFB554FFFFFF        <1>  push DWORD  [  ebp+     -172]
  2673 00001BBE 6800000000          <1>  push DWORD      0
  2674                              <1> 	EXTERN _printint
  2675 00001BC3 E8(00000000)        <1>  call _printint; imported
  2676 00001BC8 81C410000000        <1>  add esp, 16
  2677 00001BCE 6805000000          <1>  push DWORD      5
  2678 00001BD3 680C000000          <1>  push DWORD      12
  2679 00001BD8 68[81030000]        <1>  push DWORD  lea9d31498e1f7
  2680 00001BDD 6800000000          <1>  push DWORD      0
  2681                              <1> 	EXTERN _printstring
  2682 00001BE2 E8(00000000)        <1>  call _printstring; imported
  2683 00001BE7 81C410000000        <1>  add esp, 16
  2684 00001BED 6800000000          <1>  push DWORD      0
  2685                              <1> 	EXTERN _println
  2686 00001BF2 E8(00000000)        <1>  call _println; imported
  2687 00001BF7 81C404000000        <1>  add esp, 4
  2688 00001BFD E94F000000          <1>  jmp  lea9d31604a2b9
  2689                              <1>  lea9d31604a2b8:
  2690 00001C02 6805000000          <1>  push DWORD      5
  2691 00001C07 680C000000          <1>  push DWORD      12
  2692 00001C0C FFB554FFFFFF        <1>  push DWORD  [  ebp+     -172]
  2693 00001C12 6800000000          <1>  push DWORD      0
  2694                              <1> 	EXTERN _printint
  2695 00001C17 E8(00000000)        <1>  call _printint; imported
  2696 00001C1C 81C410000000        <1>  add esp, 16
  2697 00001C22 6805000000          <1>  push DWORD      5
  2698 00001C27 680C000000          <1>  push DWORD      12
  2699 00001C2C 68[85030000]        <1>  push DWORD  lea9d31498e1f6
  2700 00001C31 6800000000          <1>  push DWORD      0
  2701                              <1> 	EXTERN _printstring
  2702 00001C36 E8(00000000)        <1>  call _printstring; imported
  2703 00001C3B 81C410000000        <1>  add esp, 16
  2704 00001C41 6800000000          <1>  push DWORD      0
  2705                              <1> 	EXTERN _println
  2706 00001C46 E8(00000000)        <1>  call _println; imported
  2707 00001C4B 81C404000000        <1>  add esp, 4
  2708                              <1>  lea9d31604a2b9:
  2709                              <1> ;52
  2710 00001C51 DB8554FFFFFF        <1>  fild DWORD  [  ebp+     -172]
  2711 00001C57 D945F4              <1>  fld dword  [  ebp+     -12]
  2712 00001C5A D9C9                <1>  fxch
  2713 00001C5C DED9                <1>  fcompp
  2714 00001C5E 6650                <1>  push ax
  2715 00001C60 9BDFE0              <1>  fstsw ax
  2716 00001C63 9E                  <1>  sahf
  2717 00001C64 6658                <1>  pop ax
  2718 00001C66 0F93C3              <1>  setnc bl 
  2719 00001C69 20DB                <1>  and bl,bl
  2720 00001C6B 0F8554000000        <1>  jnz near lea9d3160b82c0
  2721 00001C71 6805000000          <1>  push DWORD      5
  2722 00001C76 680C000000          <1>  push DWORD      12
  2723 00001C7B FFB554FFFFFF        <1>  push DWORD  [  ebp+     -172]
  2724 00001C81 6800000000          <1>  push DWORD      0
  2725                              <1> 	EXTERN _printint
  2726 00001C86 E8(00000000)        <1>  call _printint; imported
  2727 00001C8B 81C410000000        <1>  add esp, 16
  2728 00001C91 6805000000          <1>  push DWORD      5
  2729 00001C96 680C000000          <1>  push DWORD      12
  2730 00001C9B 68[78030000]        <1>  push DWORD  lea9d3149c01f9
  2731 00001CA0 6800000000          <1>  push DWORD      0
  2732                              <1> 	EXTERN _printstring
  2733 00001CA5 E8(00000000)        <1>  call _printstring; imported
  2734 00001CAA 81C410000000        <1>  add esp, 16
  2735 00001CB0 6800000000          <1>  push DWORD      0
  2736                              <1> 	EXTERN _println
  2737 00001CB5 E8(00000000)        <1>  call _println; imported
  2738 00001CBA 81C404000000        <1>  add esp, 4
  2739 00001CC0 E94F000000          <1>  jmp  lea9d3160b82c1
  2740                              <1>  lea9d3160b82c0:
  2741 00001CC5 6805000000          <1>  push DWORD      5
  2742 00001CCA 680C000000          <1>  push DWORD      12
  2743 00001CCF FFB554FFFFFF        <1>  push DWORD  [  ebp+     -172]
  2744 00001CD5 6800000000          <1>  push DWORD      0
  2745                              <1> 	EXTERN _printint
  2746 00001CDA E8(00000000)        <1>  call _printint; imported
  2747 00001CDF 81C410000000        <1>  add esp, 16
  2748 00001CE5 6805000000          <1>  push DWORD      5
  2749 00001CEA 680C000000          <1>  push DWORD      12
  2750 00001CEF 68[7D030000]        <1>  push DWORD  lea9d3149c01f8
  2751 00001CF4 6800000000          <1>  push DWORD      0
  2752                              <1> 	EXTERN _printstring
  2753 00001CF9 E8(00000000)        <1>  call _printstring; imported
  2754 00001CFE 81C410000000        <1>  add esp, 16
  2755 00001D04 6800000000          <1>  push DWORD      0
  2756                              <1> 	EXTERN _println
  2757 00001D09 E8(00000000)        <1>  call _println; imported
  2758 00001D0E 81C404000000        <1>  add esp, 4
  2759                              <1>  lea9d3160b82c1:
  2760                              <1> ;53
  2761 00001D14 DB8554FFFFFF        <1>  fild DWORD  [  ebp+     -172]
  2762 00001D1A D945F4              <1>  fld dword  [  ebp+     -12]
  2763 00001D1D D9C9                <1>  fxch
  2764 00001D1F DED9                <1>  fcompp
  2765 00001D21 6650                <1>  push ax
  2766 00001D23 9BDFE0              <1>  fstsw ax
  2767 00001D26 9E                  <1>  sahf
  2768 00001D27 6658                <1>  pop ax
  2769 00001D29 0F96C3              <1>  setna bl 
  2770 00001D2C 20DB                <1>  and bl,bl
  2771 00001D2E 0F8554000000        <1>  jnz near lea9d3161582c8
  2772 00001D34 6805000000          <1>  push DWORD      5
  2773 00001D39 680C000000          <1>  push DWORD      12
  2774 00001D3E FFB554FFFFFF        <1>  push DWORD  [  ebp+     -172]
  2775 00001D44 6800000000          <1>  push DWORD      0
  2776                              <1> 	EXTERN _printint
  2777 00001D49 E8(00000000)        <1>  call _printint; imported
  2778 00001D4E 81C410000000        <1>  add esp, 16
  2779 00001D54 6805000000          <1>  push DWORD      5
  2780 00001D59 680C000000          <1>  push DWORD      12
  2781 00001D5E 68[6F030000]        <1>  push DWORD  lea9d3149c01fb
  2782 00001D63 6800000000          <1>  push DWORD      0
  2783                              <1> 	EXTERN _printstring
  2784 00001D68 E8(00000000)        <1>  call _printstring; imported
  2785 00001D6D 81C410000000        <1>  add esp, 16
  2786 00001D73 6800000000          <1>  push DWORD      0
  2787                              <1> 	EXTERN _println
  2788 00001D78 E8(00000000)        <1>  call _println; imported
  2789 00001D7D 81C404000000        <1>  add esp, 4
  2790 00001D83 E94F000000          <1>  jmp  lea9d3161582c9
  2791                              <1>  lea9d3161582c8:
  2792 00001D88 6805000000          <1>  push DWORD      5
  2793 00001D8D 680C000000          <1>  push DWORD      12
  2794 00001D92 FFB554FFFFFF        <1>  push DWORD  [  ebp+     -172]
  2795 00001D98 6800000000          <1>  push DWORD      0
  2796                              <1> 	EXTERN _printint
  2797 00001D9D E8(00000000)        <1>  call _printint; imported
  2798 00001DA2 81C410000000        <1>  add esp, 16
  2799 00001DA8 6805000000          <1>  push DWORD      5
  2800 00001DAD 680C000000          <1>  push DWORD      12
  2801 00001DB2 68[73030000]        <1>  push DWORD  lea9d3149c01fa
  2802 00001DB7 6800000000          <1>  push DWORD      0
  2803                              <1> 	EXTERN _printstring
  2804 00001DBC E8(00000000)        <1>  call _printstring; imported
  2805 00001DC1 81C410000000        <1>  add esp, 16
  2806 00001DC7 6800000000          <1>  push DWORD      0
  2807                              <1> 	EXTERN _println
  2808 00001DCC E8(00000000)        <1>  call _println; imported
  2809 00001DD1 81C404000000        <1>  add esp, 4
  2810                              <1>  lea9d3161582c9:
  2811                              <1> ;54
  2812 00001DD7 DB8554FFFFFF        <1>  fild DWORD  [  ebp+     -172]
  2813 00001DDD D945F4              <1>  fld dword  [  ebp+     -12]
  2814 00001DE0 D9C9                <1>  fxch
  2815 00001DE2 DED9                <1>  fcompp
  2816 00001DE4 6650                <1>  push ax
  2817 00001DE6 9BDFE0              <1>  fstsw ax
  2818 00001DE9 9E                  <1>  sahf
  2819 00001DEA 6658                <1>  pop ax
  2820 00001DEC 0F93C3              <1>  setae bl 
  2821 00001DEF 20DB                <1>  and bl,bl
  2822 00001DF1 0F8544000000        <1>  jnz near lea9d3161c62d0
  2823 00001DF7 6805000000          <1>  push DWORD      5
  2824 00001DFC 680C000000          <1>  push DWORD      12
  2825 00001E01 FFB554FFFFFF        <1>  push DWORD  [  ebp+     -172]
  2826 00001E07 6800000000          <1>  push DWORD      0
  2827                              <1> 	EXTERN _printint
  2828 00001E0C E8(00000000)        <1>  call _printint; imported
  2829 00001E11 81C410000000        <1>  add esp, 16
  2830 00001E17 6805000000          <1>  push DWORD      5
  2831 00001E1C 680C000000          <1>  push DWORD      12
  2832 00001E21 68[66030000]        <1>  push DWORD  lea9d3149c01fd
  2833 00001E26 6800000000          <1>  push DWORD      0
  2834                              <1> 	EXTERN _printstring
  2835 00001E2B E8(00000000)        <1>  call _printstring; imported
  2836 00001E30 81C410000000        <1>  add esp, 16
  2837 00001E36 E93F000000          <1>  jmp  lea9d3161c62d1
  2838                              <1>  lea9d3161c62d0:
  2839 00001E3B 6805000000          <1>  push DWORD      5
  2840 00001E40 680C000000          <1>  push DWORD      12
  2841 00001E45 FFB554FFFFFF        <1>  push DWORD  [  ebp+     -172]
  2842 00001E4B 6800000000          <1>  push DWORD      0
  2843                              <1> 	EXTERN _printint
  2844 00001E50 E8(00000000)        <1>  call _printint; imported
  2845 00001E55 81C410000000        <1>  add esp, 16
  2846 00001E5B 6805000000          <1>  push DWORD      5
  2847 00001E60 680C000000          <1>  push DWORD      12
  2848 00001E65 68[6A030000]        <1>  push DWORD  lea9d3149c01fc
  2849 00001E6A 6800000000          <1>  push DWORD      0
  2850                              <1> 	EXTERN _printstring
  2851 00001E6F E8(00000000)        <1>  call _printstring; imported
  2852 00001E74 81C410000000        <1>  add esp, 16
  2853                              <1>  lea9d3161c62d1:
  2854                              <1> ;57
  2855 00001E7A 6805000000          <1>  push DWORD      5
  2856 00001E7F 680C000000          <1>  push DWORD      12
  2857 00001E84 68[44030000]        <1>  push DWORD  lea9d3149c01fe
  2858 00001E89 6800000000          <1>  push DWORD      0
  2859                              <1> 	EXTERN _printstring
  2860 00001E8E E8(00000000)        <1>  call _printstring; imported
  2861 00001E93 81C410000000        <1>  add esp, 16
  2862 00001E99 6800000000          <1>  push DWORD      0
  2863                              <1> 	EXTERN _println
  2864 00001E9E E8(00000000)        <1>  call _println; imported
  2865 00001EA3 81C404000000        <1>  add esp, 4
  2866                              <1> ;58
  2867 00001EA9 68A4704541          <1>  push DWORD      1095069860
  2868                              <1> 	EXTERN _trunc
  2869 00001EAE E8(00000000)        <1>  call _trunc; imported
  2870 00001EB3 81C404000000        <1>  add esp, 4
  2871 00001EB9 89854CFFFFFF        <1>  mov DWORD  [  ebp+     -180],eax
  2872                              <1>  floadlit -12.34
  2873                              <2> section .data
  2874 00000198 AE47E17A14AE28C0    <2> %%lit: dq %1
  2875                              <2> 	section .text
  2876 00001EBF DD05[98010000]      <2> 	fld qword[%%lit]
  2877 00001EC5 81EC04000000        <1>  sub esp,4
  2878 00001ECB D91C24              <1>  fstp dword [esp]
  2879                              <1> 	EXTERN _trunc
  2880 00001ECE E8(00000000)        <1>  call _trunc; imported
  2881 00001ED3 81C404000000        <1>  add esp, 4
  2882 00001ED9 898548FFFFFF        <1>  mov DWORD  [  ebp+     -184],eax
  2883 00001EDF 6800000000          <1>  push DWORD      0
  2884 00001EE4 680C000000          <1>  push DWORD      12
  2885 00001EE9 68A4704541          <1>  push DWORD      1095069860
  2886 00001EEE 6800000000          <1>  push DWORD      0
  2887                              <1> 	EXTERN _printreal
  2888 00001EF3 E8(00000000)        <1>  call _printreal; imported
  2889 00001EF8 81C410000000        <1>  add esp, 16
  2890 00001EFE 6805000000          <1>  push DWORD      5
  2891 00001F03 680C000000          <1>  push DWORD      12
  2892 00001F08 FFB54CFFFFFF        <1>  push DWORD  [  ebp+     -180]
  2893 00001F0E 6800000000          <1>  push DWORD      0
  2894                              <1> 	EXTERN _printint
  2895 00001F13 E8(00000000)        <1>  call _printint; imported
  2896 00001F18 81C410000000        <1>  add esp, 16
  2897 00001F1E 6805000000          <1>  push DWORD      5
  2898 00001F23 680C000000          <1>  push DWORD      12
  2899 00001F28 FFB548FFFFFF        <1>  push DWORD  [  ebp+     -184]
  2900 00001F2E 6800000000          <1>  push DWORD      0
  2901                              <1> 	EXTERN _printint
  2902 00001F33 E8(00000000)        <1>  call _printint; imported
  2903 00001F38 81C410000000        <1>  add esp, 16
  2904 00001F3E 6800000000          <1>  push DWORD      0
  2905                              <1> 	EXTERN _println
  2906 00001F43 E8(00000000)        <1>  call _println; imported
  2907 00001F48 81C404000000        <1>  add esp, 4
  2908                              <1> ;59
  2909 00001F4E 6805000000          <1>  push DWORD      5
  2910 00001F53 680C000000          <1>  push DWORD      12
  2911 00001F58 68[22030000]        <1>  push DWORD  lea9d314a2e1ff
  2912 00001F5D 6800000000          <1>  push DWORD      0
  2913                              <1> 	EXTERN _printstring
  2914 00001F62 E8(00000000)        <1>  call _printstring; imported
  2915 00001F67 81C410000000        <1>  add esp, 16
  2916 00001F6D 6800000000          <1>  push DWORD      0
  2917                              <1> 	EXTERN _println
  2918 00001F72 E8(00000000)        <1>  call _println; imported
  2919 00001F77 81C404000000        <1>  add esp, 4
  2920                              <1> ;60
  2921 00001F7D 6800000000          <1>  push DWORD      0
  2922 00001F82 680C000000          <1>  push DWORD      12
  2923 00001F87 68A4704541          <1>  push DWORD      1095069860
  2924 00001F8C 6800000000          <1>  push DWORD      0
  2925                              <1> 	EXTERN _printreal
  2926 00001F91 E8(00000000)        <1>  call _printreal; imported
  2927 00001F96 81C410000000        <1>  add esp, 16
  2928 00001F9C 6805000000          <1>  push DWORD      5
  2929 00001FA1 680C000000          <1>  push DWORD      12
  2930 00001FA6 680C000000          <1>  push DWORD      12
  2931 00001FAB 6800000000          <1>  push DWORD      0
  2932                              <1> 	EXTERN _printint
  2933 00001FB0 E8(00000000)        <1>  call _printint; imported
  2934 00001FB5 81C410000000        <1>  add esp, 16
  2935 00001FBB 6805000000          <1>  push DWORD      5
  2936 00001FC0 680C000000          <1>  push DWORD      12
  2937 00001FC5 68F4FFFFFF          <1>  push DWORD      -12
  2938 00001FCA 6800000000          <1>  push DWORD      0
  2939                              <1> 	EXTERN _printint
  2940 00001FCF E8(00000000)        <1>  call _printint; imported
  2941 00001FD4 81C410000000        <1>  add esp, 16
  2942 00001FDA 6800000000          <1>  push DWORD      0
  2943                              <1> 	EXTERN _println
  2944 00001FDF E8(00000000)        <1>  call _println; imported
  2945 00001FE4 81C404000000        <1>  add esp, 4
  2946                              <1> ;61
  2947 00001FEA 6805000000          <1>  push DWORD      5
  2948 00001FEF 680C000000          <1>  push DWORD      12
  2949 00001FF4 68[04030000]        <1>  push DWORD  lea9d314a6a200
  2950 00001FF9 6800000000          <1>  push DWORD      0
  2951                              <1> 	EXTERN _printstring
  2952 00001FFE E8(00000000)        <1>  call _printstring; imported
  2953 00002003 81C410000000        <1>  add esp, 16
  2954 00002009 6800000000          <1>  push DWORD      0
  2955                              <1> 	EXTERN _println
  2956 0000200E E8(00000000)        <1>  call _println; imported
  2957 00002013 81C404000000        <1>  add esp, 4
  2958                              <1> ;62
  2959 00002019 68A4704541          <1>  push DWORD      1095069860
  2960 0000201E E813E8FFFF          <1>  call lea9d30e1105c
  2961 00002023 81C404000000        <1>  add esp, 4
  2962 00002029 D99D44FFFFFF        <1>  fstp dword  [  ebp+     -188]
  2963                              <1>  floadlit -12.34
  2964                              <2> section .data
  2965 000001A0 AE47E17A14AE28C0    <2> %%lit: dq %1
  2966                              <2> 	section .text
  2967 0000202F DD05[A0010000]      <2> 	fld qword[%%lit]
  2968 00002035 81EC04000000        <1>  sub esp,4
  2969 0000203B D91C24              <1>  fstp dword [esp]
  2970 0000203E E8F3E7FFFF          <1>  call lea9d30e1105c
  2971 00002043 81C404000000        <1>  add esp, 4
  2972 00002049 D99D40FFFFFF        <1>  fstp dword  [  ebp+     -192]
  2973 0000204F 6800000000          <1>  push DWORD      0
  2974 00002054 680C000000          <1>  push DWORD      12
  2975 00002059 68A4704541          <1>  push DWORD      1095069860
  2976 0000205E 6800000000          <1>  push DWORD      0
  2977                              <1> 	EXTERN _printreal
  2978 00002063 E8(00000000)        <1>  call _printreal; imported
  2979 00002068 81C410000000        <1>  add esp, 16
  2980 0000206E 6800000000          <1>  push DWORD      0
  2981 00002073 680C000000          <1>  push DWORD      12
  2982 00002078 FFB544FFFFFF        <1>  push DWORD  [  ebp+     -188]
  2983 0000207E 6800000000          <1>  push DWORD      0
  2984                              <1> 	EXTERN _printreal
  2985 00002083 E8(00000000)        <1>  call _printreal; imported
  2986 00002088 81C410000000        <1>  add esp, 16
  2987 0000208E 6800000000          <1>  push DWORD      0
  2988 00002093 680C000000          <1>  push DWORD      12
  2989 00002098 FFB540FFFFFF        <1>  push DWORD  [  ebp+     -192]
  2990 0000209E 6800000000          <1>  push DWORD      0
  2991                              <1> 	EXTERN _printreal
  2992 000020A3 E8(00000000)        <1>  call _printreal; imported
  2993 000020A8 81C410000000        <1>  add esp, 16
  2994 000020AE 6800000000          <1>  push DWORD      0
  2995                              <1> 	EXTERN _println
  2996 000020B3 E8(00000000)        <1>  call _println; imported
  2997 000020B8 81C404000000        <1>  add esp, 4
  2998                              <1> ;63
  2999                              <1>  floadlit 12.34
  3000                              <2> section .data
  3001 000001A8 AE47E17A14AE2840    <2> %%lit: dq %1
  3002                              <2> 	section .text
  3003 000020BE DD05[A8010000]      <2> 	fld qword[%%lit]
  3004 000020C4 D95DF8              <1>  fstp dword  [  ebp+     -8]
  3005                              <1> ;64
  3006 000020C7 6805000000          <1>  push DWORD      5
  3007 000020CC 680C000000          <1>  push DWORD      12
  3008 000020D1 68[EE020000]        <1>  push DWORD  lea9d314a6a201
  3009 000020D6 6800000000          <1>  push DWORD      0
  3010                              <1> 	EXTERN _printstring
  3011 000020DB E8(00000000)        <1>  call _printstring; imported
  3012 000020E0 81C410000000        <1>  add esp, 16
  3013 000020E6 6800000000          <1>  push DWORD      0
  3014                              <1> 	EXTERN _println
  3015 000020EB E8(00000000)        <1>  call _println; imported
  3016 000020F0 81C404000000        <1>  add esp, 4
  3017                              <1> ;65
  3018 000020F6 FF75F8              <1>  push DWORD  [  ebp+     -8]
  3019                              <1> 	EXTERN _trunc
  3020 000020F9 E8(00000000)        <1>  call _trunc; imported
  3021 000020FE 81C404000000        <1>  add esp, 4
  3022 00002104 89853CFFFFFF        <1>  mov DWORD  [  ebp+     -196],eax
  3023                              <1>  floadlit 0.0
  3024                              <2> section .data
  3025 000001B0 0000000000000000    <2> %%lit: dq %1
  3026                              <2> 	section .text
  3027 0000210A DD05[B0010000]      <2> 	fld qword[%%lit]
  3028 00002110 D865F8              <1>  fsub DWORD  [  ebp+     -8]
  3029 00002113 81EC04000000        <1>  sub esp,4
  3030 00002119 D91C24              <1>  fstp dword [esp]
  3031                              <1> 	EXTERN _trunc
  3032 0000211C E8(00000000)        <1>  call _trunc; imported
  3033 00002121 81C404000000        <1>  add esp, 4
  3034 00002127 898538FFFFFF        <1>  mov DWORD  [  ebp+     -200],eax
  3035 0000212D 6805000000          <1>  push DWORD      5
  3036 00002132 680C000000          <1>  push DWORD      12
  3037 00002137 FF75F8              <1>  push DWORD  [  ebp+     -8]
  3038 0000213A 6800000000          <1>  push DWORD      0
  3039                              <1> 	EXTERN _printreal
  3040 0000213F E8(00000000)        <1>  call _printreal; imported
  3041 00002144 81C410000000        <1>  add esp, 16
  3042 0000214A 6805000000          <1>  push DWORD      5
  3043 0000214F 680C000000          <1>  push DWORD      12
  3044 00002154 FFB53CFFFFFF        <1>  push DWORD  [  ebp+     -196]
  3045 0000215A 6800000000          <1>  push DWORD      0
  3046                              <1> 	EXTERN _printint
  3047 0000215F E8(00000000)        <1>  call _printint; imported
  3048 00002164 81C410000000        <1>  add esp, 16
  3049 0000216A 6805000000          <1>  push DWORD      5
  3050 0000216F 680C000000          <1>  push DWORD      12
  3051 00002174 FFB538FFFFFF        <1>  push DWORD  [  ebp+     -200]
  3052 0000217A 6800000000          <1>  push DWORD      0
  3053                              <1> 	EXTERN _printint
  3054 0000217F E8(00000000)        <1>  call _printint; imported
  3055 00002184 81C410000000        <1>  add esp, 16
  3056 0000218A 6800000000          <1>  push DWORD      0
  3057                              <1> 	EXTERN _println
  3058 0000218F E8(00000000)        <1>  call _println; imported
  3059 00002194 81C404000000        <1>  add esp, 4
  3060                              <1> ;66
  3061 0000219A 6805000000          <1>  push DWORD      5
  3062 0000219F 680C000000          <1>  push DWORD      12
  3063 000021A4 68[D8020000]        <1>  push DWORD  lea9d314a6a202
  3064 000021A9 6800000000          <1>  push DWORD      0
  3065                              <1> 	EXTERN _printstring
  3066 000021AE E8(00000000)        <1>  call _printstring; imported
  3067 000021B3 81C410000000        <1>  add esp, 16
  3068 000021B9 6800000000          <1>  push DWORD      0
  3069                              <1> 	EXTERN _println
  3070 000021BE E8(00000000)        <1>  call _println; imported
  3071 000021C3 81C404000000        <1>  add esp, 4
  3072                              <1> ;67
  3073 000021C9 6805000000          <1>  push DWORD      5
  3074 000021CE 680C000000          <1>  push DWORD      12
  3075 000021D3 FF75F8              <1>  push DWORD  [  ebp+     -8]
  3076 000021D6 6800000000          <1>  push DWORD      0
  3077                              <1> 	EXTERN _printreal
  3078 000021DB E8(00000000)        <1>  call _printreal; imported
  3079 000021E0 81C410000000        <1>  add esp, 16
  3080 000021E6 6805000000          <1>  push DWORD      5
  3081 000021EB 680C000000          <1>  push DWORD      12
  3082 000021F0 D945F8              <1>  fld dword  [  ebp+     -8]
  3083 000021F3 D9FC                <1>   frndint
  3084 000021F5 81EC04000000        <1>  sub esp,4
  3085 000021FB DB1C24              <1>  fistp dword [esp]
  3086 000021FE 6800000000          <1>  push DWORD      0
  3087                              <1> 	EXTERN _printint
  3088 00002203 E8(00000000)        <1>  call _printint; imported
  3089 00002208 81C410000000        <1>  add esp, 16
  3090 0000220E 6805000000          <1>  push DWORD      5
  3091 00002213 680C000000          <1>  push DWORD      12
  3092                              <1>  floadlit 0.0
  3093                              <2> section .data
  3094 000001B8 0000000000000000    <2> %%lit: dq %1
  3095                              <2> 	section .text
  3096 00002218 DD05[B8010000]      <2> 	fld qword[%%lit]
  3097 0000221E D865F8              <1>  fsub DWORD  [  ebp+     -8]
  3098 00002221 D9FC                <1>   frndint
  3099 00002223 81EC04000000        <1>  sub esp,4
  3100 00002229 DB1C24              <1>  fistp dword [esp]
  3101 0000222C 5B                  <1>  pop dword ebx
  3102 0000222D 53                  <1>  push ebx
  3103 0000222E 6800000000          <1>  push DWORD      0
  3104                              <1> 	EXTERN _printint
  3105 00002233 E8(00000000)        <1>  call _printint; imported
  3106 00002238 81C410000000        <1>  add esp, 16
  3107 0000223E 6800000000          <1>  push DWORD      0
  3108                              <1> 	EXTERN _println
  3109 00002243 E8(00000000)        <1>  call _println; imported
  3110 00002248 81C404000000        <1>  add esp, 4
  3111                              <1> ;68
  3112 0000224E 6805000000          <1>  push DWORD      5
  3113 00002253 680C000000          <1>  push DWORD      12
  3114 00002258 68[C6020000]        <1>  push DWORD  lea9d314a9c203
  3115 0000225D 6800000000          <1>  push DWORD      0
  3116                              <1> 	EXTERN _printstring
  3117 00002262 E8(00000000)        <1>  call _printstring; imported
  3118 00002267 81C410000000        <1>  add esp, 16
  3119 0000226D 6800000000          <1>  push DWORD      0
  3120                              <1> 	EXTERN _println
  3121 00002272 E8(00000000)        <1>  call _println; imported
  3122 00002277 81C404000000        <1>  add esp, 4
  3123                              <1> ;69
  3124 0000227D FF75F8              <1>  push DWORD  [  ebp+     -8]
  3125 00002280 E8B1E5FFFF          <1>  call lea9d30e1105c
  3126 00002285 81C404000000        <1>  add esp, 4
  3127 0000228B D99D34FFFFFF        <1>  fstp dword  [  ebp+     -204]
  3128                              <1>  floadlit 0.0
  3129                              <2> section .data
  3130 000001C0 0000000000000000    <2> %%lit: dq %1
  3131                              <2> 	section .text
  3132 00002291 DD05[C0010000]      <2> 	fld qword[%%lit]
  3133 00002297 D865F8              <1>  fsub DWORD  [  ebp+     -8]
  3134 0000229A 81EC04000000        <1>  sub esp,4
  3135 000022A0 D91C24              <1>  fstp dword [esp]
  3136 000022A3 E88EE5FFFF          <1>  call lea9d30e1105c
  3137 000022A8 81C404000000        <1>  add esp, 4
  3138 000022AE D99D30FFFFFF        <1>  fstp dword  [  ebp+     -208]
  3139 000022B4 6805000000          <1>  push DWORD      5
  3140 000022B9 680C000000          <1>  push DWORD      12
  3141 000022BE FF75F8              <1>  push DWORD  [  ebp+     -8]
  3142 000022C1 6800000000          <1>  push DWORD      0
  3143                              <1> 	EXTERN _printreal
  3144 000022C6 E8(00000000)        <1>  call _printreal; imported
  3145 000022CB 81C410000000        <1>  add esp, 16
  3146 000022D1 6800000000          <1>  push DWORD      0
  3147 000022D6 680C000000          <1>  push DWORD      12
  3148 000022DB FFB534FFFFFF        <1>  push DWORD  [  ebp+     -204]
  3149 000022E1 6800000000          <1>  push DWORD      0
  3150                              <1> 	EXTERN _printreal
  3151 000022E6 E8(00000000)        <1>  call _printreal; imported
  3152 000022EB 81C410000000        <1>  add esp, 16
  3153 000022F1 6800000000          <1>  push DWORD      0
  3154 000022F6 680C000000          <1>  push DWORD      12
  3155 000022FB FFB530FFFFFF        <1>  push DWORD  [  ebp+     -208]
  3156 00002301 6800000000          <1>  push DWORD      0
  3157                              <1> 	EXTERN _printreal
  3158 00002306 E8(00000000)        <1>  call _printreal; imported
  3159 0000230B 81C410000000        <1>  add esp, 16
  3160 00002311 6800000000          <1>  push DWORD      0
  3161                              <1> 	EXTERN _println
  3162 00002316 E8(00000000)        <1>  call _println; imported
  3163 0000231B 81C404000000        <1>  add esp, 4
  3164                              <1> ;71
  3165 00002321 6805000000          <1>  push DWORD      5
  3166 00002326 680C000000          <1>  push DWORD      12
  3167 0000232B 68[B4020000]        <1>  push DWORD  lea9d314a9c204
  3168 00002330 6800000000          <1>  push DWORD      0
  3169                              <1> 	EXTERN _printstring
  3170 00002335 E8(00000000)        <1>  call _printstring; imported
  3171 0000233A 81C410000000        <1>  add esp, 16
  3172 00002340 6800000000          <1>  push DWORD      0
  3173                              <1> 	EXTERN _println
  3174 00002345 E8(00000000)        <1>  call _println; imported
  3175 0000234A 81C404000000        <1>  add esp, 4
  3176                              <1> ;72
  3177 00002350 6800000000          <1>  push DWORD      0
  3178 00002355 680C000000          <1>  push DWORD      12
  3179 0000235A 68A4704541          <1>  push DWORD      1095069860
  3180 0000235F 6800000000          <1>  push DWORD      0
  3181                              <1> 	EXTERN _printreal
  3182 00002364 E8(00000000)        <1>  call _printreal; imported
  3183 00002369 81C410000000        <1>  add esp, 16
  3184 0000236F 6800000000          <1>  push DWORD      0
  3185 00002374 680C000000          <1>  push DWORD      12
  3186                              <1>  floadlit 2.5128460184772416
  3187                              <2> section .data
  3188 000001C8 D2F269034F1A0440    <2> %%lit: dq %1
  3189                              <2> 	section .text
  3190 00002379 DD05[C8010000]      <2> 	fld qword[%%lit]
  3191 0000237F 81EC04000000        <1>  sub esp,4
  3192 00002385 D91C24              <1>  fstp dword [esp]
  3193 00002388 6800000000          <1>  push DWORD      0
  3194                              <1> 	EXTERN _printreal
  3195 0000238D E8(00000000)        <1>  call _printreal; imported
  3196 00002392 81C410000000        <1>  add esp, 16
  3197 00002398 6800000000          <1>  push DWORD      0
  3198                              <1> 	EXTERN _println
  3199 0000239D E8(00000000)        <1>  call _println; imported
  3200 000023A2 81C404000000        <1>  add esp, 4
  3201                              <1> ;73
  3202 000023A8 6805000000          <1>  push DWORD      5
  3203 000023AD 680C000000          <1>  push DWORD      12
  3204 000023B2 68[A0020000]        <1>  push DWORD  lea9d314a9c205
  3205 000023B7 6800000000          <1>  push DWORD      0
  3206                              <1> 	EXTERN _printstring
  3207 000023BC E8(00000000)        <1>  call _printstring; imported
  3208 000023C1 81C410000000        <1>  add esp, 16
  3209 000023C7 6800000000          <1>  push DWORD      0
  3210                              <1> 	EXTERN _println
  3211 000023CC E8(00000000)        <1>  call _println; imported
  3212 000023D1 81C404000000        <1>  add esp, 4
  3213                              <1> ;74
  3214 000023D7 6800000000          <1>  push DWORD      0
  3215 000023DC 680C000000          <1>  push DWORD      12
  3216 000023E1 68A4704541          <1>  push DWORD      1095069860
  3217 000023E6 6800000000          <1>  push DWORD      0
  3218                              <1> 	EXTERN _printreal
  3219 000023EB E8(00000000)        <1>  call _printreal; imported
  3220 000023F0 81C410000000        <1>  add esp, 16
  3221 000023F6 6800000000          <1>  push DWORD      0
  3222 000023FB 680C000000          <1>  push DWORD      12
  3223                              <1>  floadlit 3.5128336140500593
  3224                              <2> section .data
  3225 000001D0 70138582481A0C40    <2> %%lit: dq %1
  3226                              <2> 	section .text
  3227 00002400 DD05[D0010000]      <2> 	fld qword[%%lit]
  3228 00002406 81EC04000000        <1>  sub esp,4
  3229 0000240C D91C24              <1>  fstp dword [esp]
  3230 0000240F 6800000000          <1>  push DWORD      0
  3231                              <1> 	EXTERN _printreal
  3232 00002414 E8(00000000)        <1>  call _printreal; imported
  3233 00002419 81C410000000        <1>  add esp, 16
  3234 0000241F 6800000000          <1>  push DWORD      0
  3235                              <1> 	EXTERN _println
  3236 00002424 E8(00000000)        <1>  call _println; imported
  3237 00002429 81C404000000        <1>  add esp, 4
  3238                              <1> ;75
  3239 0000242F 6805000000          <1>  push DWORD      5
  3240 00002434 680C000000          <1>  push DWORD      12
  3241 00002439 68[92020000]        <1>  push DWORD  lea9d314ad8206
  3242 0000243E 6800000000          <1>  push DWORD      0
  3243                              <1> 	EXTERN _printstring
  3244 00002443 E8(00000000)        <1>  call _printstring; imported
  3245 00002448 81C410000000        <1>  add esp, 16
  3246 0000244E 6800000000          <1>  push DWORD      0
  3247                              <1> 	EXTERN _println
  3248 00002453 E8(00000000)        <1>  call _println; imported
  3249 00002458 81C404000000        <1>  add esp, 4
  3250                              <1> ;76
  3251 0000245E 6805000000          <1>  push DWORD      5
  3252 00002463 680C000000          <1>  push DWORD      12
  3253 00002468 680C000000          <1>  push DWORD      12
  3254 0000246D 6800000000          <1>  push DWORD      0
  3255                              <1> 	EXTERN _printint
  3256 00002472 E8(00000000)        <1>  call _printint; imported
  3257 00002477 81C410000000        <1>  add esp, 16
  3258 0000247D 6800000000          <1>  push DWORD      0
  3259 00002482 680C000000          <1>  push DWORD      12
  3260                              <1>  floadlit 3.4641016151377544
  3261                              <2> section .data
  3262 000001D8 AA4C58E87AB60B40    <2> %%lit: dq %1
  3263                              <2> 	section .text
  3264 00002487 DD05[D8010000]      <2> 	fld qword[%%lit]
  3265 0000248D 81EC04000000        <1>  sub esp,4
  3266 00002493 D91C24              <1>  fstp dword [esp]
  3267 00002496 6800000000          <1>  push DWORD      0
  3268                              <1> 	EXTERN _printreal
  3269 0000249B E8(00000000)        <1>  call _printreal; imported
  3270 000024A0 81C410000000        <1>  add esp, 16
  3271 000024A6 6800000000          <1>  push DWORD      0
  3272                              <1> 	EXTERN _println
  3273 000024AB E8(00000000)        <1>  call _println; imported
  3274 000024B0 81C404000000        <1>  add esp, 4
  3275                              <1> ;77
  3276 000024B6 6805000000          <1>  push DWORD      5
  3277 000024BB 680C000000          <1>  push DWORD      12
  3278 000024C0 68[74020000]        <1>  push DWORD  lea9d314ad8207
  3279 000024C5 6800000000          <1>  push DWORD      0
  3280                              <1> 	EXTERN _printstring
  3281 000024CA E8(00000000)        <1>  call _printstring; imported
  3282 000024CF 81C410000000        <1>  add esp, 16
  3283 000024D5 6800000000          <1>  push DWORD      0
  3284                              <1> 	EXTERN _println
  3285 000024DA E8(00000000)        <1>  call _println; imported
  3286 000024DF 81C404000000        <1>  add esp, 4
  3287                              <1> ;78
  3288 000024E5 6800000000          <1>  push DWORD      0
  3289 000024EA 680C000000          <1>  push DWORD      12
  3290 000024EF 68A4704541          <1>  push DWORD      1095069860
  3291 000024F4 6800000000          <1>  push DWORD      0
  3292                              <1> 	EXTERN _printreal
  3293 000024F9 E8(00000000)        <1>  call _printreal; imported
  3294 000024FE 81C410000000        <1>  add esp, 16
  3295 00002504 6800000000          <1>  push DWORD      0
  3296 00002509 680C000000          <1>  push DWORD      12
  3297                              <1>  floadlit -0.22444221895185537
  3298                              <2> section .data
  3299 000001E0 B9B41ECB85BACCBF    <2> %%lit: dq %1
  3300                              <2> 	section .text
  3301 0000250E DD05[E0010000]      <2> 	fld qword[%%lit]
  3302 00002514 81EC04000000        <1>  sub esp,4
  3303 0000251A D91C24              <1>  fstp dword [esp]
  3304 0000251D 6800000000          <1>  push DWORD      0
  3305                              <1> 	EXTERN _printreal
  3306 00002522 E8(00000000)        <1>  call _printreal; imported
  3307 00002527 81C410000000        <1>  add esp, 16
  3308 0000252D 6800000000          <1>  push DWORD      0
  3309 00002532 680C000000          <1>  push DWORD      12
  3310                              <1>  floadlit 0.22444221895185537
  3311                              <2> section .data
  3312 000001E8 B9B41ECB85BACC3F    <2> %%lit: dq %1
  3313                              <2> 	section .text
  3314 00002537 DD05[E8010000]      <2> 	fld qword[%%lit]
  3315 0000253D 81EC04000000        <1>  sub esp,4
  3316 00002543 D91C24              <1>  fstp dword [esp]
  3317 00002546 6800000000          <1>  push DWORD      0
  3318                              <1> 	EXTERN _printreal
  3319 0000254B E8(00000000)        <1>  call _printreal; imported
  3320 00002550 81C410000000        <1>  add esp, 16
  3321 00002556 6800000000          <1>  push DWORD      0
  3322                              <1> 	EXTERN _println
  3323 0000255B E8(00000000)        <1>  call _println; imported
  3324 00002560 81C404000000        <1>  add esp, 4
  3325                              <1> ;79
  3326 00002566 6805000000          <1>  push DWORD      5
  3327 0000256B 680C000000          <1>  push DWORD      12
  3328 00002570 68[64020000]        <1>  push DWORD  lea9d314ad8208
  3329 00002575 6800000000          <1>  push DWORD      0
  3330                              <1> 	EXTERN _printstring
  3331 0000257A E8(00000000)        <1>  call _printstring; imported
  3332 0000257F 81C410000000        <1>  add esp, 16
  3333 00002585 6800000000          <1>  push DWORD      0
  3334                              <1> 	EXTERN _println
  3335 0000258A E8(00000000)        <1>  call _println; imported
  3336 0000258F 81C404000000        <1>  add esp, 4
  3337                              <1> ;80
  3338 00002595 6805000000          <1>  push DWORD      5
  3339 0000259A 680C000000          <1>  push DWORD      12
  3340 0000259F FF75F8              <1>  push DWORD  [  ebp+     -8]
  3341 000025A2 6800000000          <1>  push DWORD      0
  3342                              <1> 	EXTERN _printreal
  3343 000025A7 E8(00000000)        <1>  call _printreal; imported
  3344 000025AC 81C410000000        <1>  add esp, 16
  3345 000025B2 6800000000          <1>  push DWORD      0
  3346 000025B7 680C000000          <1>  push DWORD      12
  3347 000025BC D945F8              <1>  fld dword  [  ebp+     -8]
  3348 000025BF D9ED                <1>   fldln2
  3349 000025C1 D9C9                <1>  fxch
  3350 000025C3 D9F1                <1>  fyl2x
  3351 000025C5 81EC04000000        <1>  sub esp,4
  3352 000025CB D91C24              <1>  fstp dword [esp]
  3353 000025CE 6800000000          <1>  push DWORD      0
  3354                              <1> 	EXTERN _printreal
  3355 000025D3 E8(00000000)        <1>  call _printreal; imported
  3356 000025D8 81C410000000        <1>  add esp, 16
  3357 000025DE 6800000000          <1>  push DWORD      0
  3358 000025E3 680C000000          <1>  push DWORD      12
  3359                              <1>  floadlit 0.0
  3360                              <2> section .data
  3361 000001F0 0000000000000000    <2> %%lit: dq %1
  3362                              <2> 	section .text
  3363 000025E8 DD05[F0010000]      <2> 	fld qword[%%lit]
  3364 000025EE D865F8              <1>  fsub DWORD  [  ebp+     -8]
  3365 000025F1 D9ED                <1>   fldln2
  3366 000025F3 D9C9                <1>  fxch
  3367 000025F5 D9F1                <1>  fyl2x
  3368 000025F7 81EC04000000        <1>  sub esp,4
  3369 000025FD D91C24              <1>  fstp dword [esp]
  3370 00002600 6800000000          <1>  push DWORD      0
  3371                              <1> 	EXTERN _printreal
  3372 00002605 E8(00000000)        <1>  call _printreal; imported
  3373 0000260A 81C410000000        <1>  add esp, 16
  3374 00002610 6800000000          <1>  push DWORD      0
  3375                              <1> 	EXTERN _println
  3376 00002615 E8(00000000)        <1>  call _println; imported
  3377 0000261A 81C404000000        <1>  add esp, 4
  3378                              <1> ;81
  3379 00002620 6805000000          <1>  push DWORD      5
  3380 00002625 680C000000          <1>  push DWORD      12
  3381 0000262A 68[50020000]        <1>  push DWORD  lea9d314b0a209
  3382 0000262F 6800000000          <1>  push DWORD      0
  3383                              <1> 	EXTERN _printstring
  3384 00002634 E8(00000000)        <1>  call _printstring; imported
  3385 00002639 81C410000000        <1>  add esp, 16
  3386 0000263F 6800000000          <1>  push DWORD      0
  3387                              <1> 	EXTERN _println
  3388 00002644 E8(00000000)        <1>  call _println; imported
  3389 00002649 81C404000000        <1>  add esp, 4
  3390                              <1> ;82
  3391 0000264F 6805000000          <1>  push DWORD      5
  3392 00002654 680C000000          <1>  push DWORD      12
  3393 00002659 FF75F8              <1>  push DWORD  [  ebp+     -8]
  3394 0000265C 6800000000          <1>  push DWORD      0
  3395                              <1> 	EXTERN _printreal
  3396 00002661 E8(00000000)        <1>  call _printreal; imported
  3397 00002666 81C410000000        <1>  add esp, 16
  3398 0000266C 6800000000          <1>  push DWORD      0
  3399 00002671 680C000000          <1>  push DWORD      12
  3400 00002676 D945F8              <1>  fld dword  [  ebp+     -8]
  3401 00002679 D9FA                <1>   fsqrt
  3402 0000267B 81EC04000000        <1>  sub esp,4
  3403 00002681 D91C24              <1>  fstp dword [esp]
  3404 00002684 6800000000          <1>  push DWORD      0
  3405                              <1> 	EXTERN _printreal
  3406 00002689 E8(00000000)        <1>  call _printreal; imported
  3407 0000268E 81C410000000        <1>  add esp, 16
  3408 00002694 6800000000          <1>  push DWORD      0
  3409 00002699 680C000000          <1>  push DWORD      12
  3410                              <1>  floadlit 0.0
  3411                              <2> section .data
  3412 000001F8 0000000000000000    <2> %%lit: dq %1
  3413                              <2> 	section .text
  3414 0000269E DD05[F8010000]      <2> 	fld qword[%%lit]
  3415 000026A4 D865F8              <1>  fsub DWORD  [  ebp+     -8]
  3416 000026A7 D9FA                <1>   fsqrt
  3417 000026A9 81EC04000000        <1>  sub esp,4
  3418 000026AF D91C24              <1>  fstp dword [esp]
  3419 000026B2 6800000000          <1>  push DWORD      0
  3420                              <1> 	EXTERN _printreal
  3421 000026B7 E8(00000000)        <1>  call _printreal; imported
  3422 000026BC 81C410000000        <1>  add esp, 16
  3423 000026C2 6800000000          <1>  push DWORD      0
  3424                              <1> 	EXTERN _println
  3425 000026C7 E8(00000000)        <1>  call _println; imported
  3426 000026CC 81C404000000        <1>  add esp, 4
  3427                              <1> ;83
  3428 000026D2 6805000000          <1>  push DWORD      5
  3429 000026D7 680C000000          <1>  push DWORD      12
  3430 000026DC 68[3E020000]        <1>  push DWORD  lea9d314b4620a
  3431 000026E1 6800000000          <1>  push DWORD      0
  3432                              <1> 	EXTERN _printstring
  3433 000026E6 E8(00000000)        <1>  call _printstring; imported
  3434 000026EB 81C410000000        <1>  add esp, 16
  3435 000026F1 6800000000          <1>  push DWORD      0
  3436                              <1> 	EXTERN _println
  3437 000026F6 E8(00000000)        <1>  call _println; imported
  3438 000026FB 81C404000000        <1>  add esp, 4
  3439                              <1> ;84
  3440 00002701 6805000000          <1>  push DWORD      5
  3441 00002706 680C000000          <1>  push DWORD      12
  3442 0000270B FF75F8              <1>  push DWORD  [  ebp+     -8]
  3443 0000270E 6800000000          <1>  push DWORD      0
  3444                              <1> 	EXTERN _printreal
  3445 00002713 E8(00000000)        <1>  call _printreal; imported
  3446 00002718 81C410000000        <1>  add esp, 16
  3447 0000271E 6800000000          <1>  push DWORD      0
  3448 00002723 680C000000          <1>  push DWORD      12
  3449 00002728 D945F8              <1>  fld dword  [  ebp+     -8]
  3450 0000272B D9FE                <1>   fsin
  3451 0000272D 81EC04000000        <1>  sub esp,4
  3452 00002733 D91C24              <1>  fstp dword [esp]
  3453 00002736 6800000000          <1>  push DWORD      0
  3454                              <1> 	EXTERN _printreal
  3455 0000273B E8(00000000)        <1>  call _printreal; imported
  3456 00002740 81C410000000        <1>  add esp, 16
  3457 00002746 6800000000          <1>  push DWORD      0
  3458 0000274B 680C000000          <1>  push DWORD      12
  3459                              <1>  floadlit 0.0
  3460                              <2> section .data
  3461 00000200 0000000000000000    <2> %%lit: dq %1
  3462                              <2> 	section .text
  3463 00002750 DD05[00020000]      <2> 	fld qword[%%lit]
  3464 00002756 D865F8              <1>  fsub DWORD  [  ebp+     -8]
  3465 00002759 D9FE                <1>   fsin
  3466 0000275B 81EC04000000        <1>  sub esp,4
  3467 00002761 D91C24              <1>  fstp dword [esp]
  3468 00002764 6800000000          <1>  push DWORD      0
  3469                              <1> 	EXTERN _printreal
  3470 00002769 E8(00000000)        <1>  call _printreal; imported
  3471 0000276E 81C410000000        <1>  add esp, 16
  3472 00002774 6800000000          <1>  push DWORD      0
  3473                              <1> 	EXTERN _println
  3474 00002779 E8(00000000)        <1>  call _println; imported
  3475 0000277E 81C404000000        <1>  add esp, 4
  3476                              <1> ;87
  3477 00002784 6805000000          <1>  push DWORD      5
  3478 00002789 680C000000          <1>  push DWORD      12
  3479 0000278E 68[20020000]        <1>  push DWORD  lea9d314b4620b
  3480 00002793 6800000000          <1>  push DWORD      0
  3481                              <1> 	EXTERN _printstring
  3482 00002798 E8(00000000)        <1>  call _printstring; imported
  3483 0000279D 81C410000000        <1>  add esp, 16
  3484 000027A3 6800000000          <1>  push DWORD      0
  3485                              <1> 	EXTERN _println
  3486 000027A8 E8(00000000)        <1>  call _println; imported
  3487 000027AD 81C404000000        <1>  add esp, 4
  3488                              <1> ;88
  3489 000027B3 68A4704541          <1>  push DWORD      1095069860
  3490 000027B8 E8AFE0FFFF          <1>  call lea9d30de409
  3491 000027BD 81C404000000        <1>  add esp, 4
  3492 000027C3 D99D2CFFFFFF        <1>  fstp dword  [  ebp+     -212]
  3493                              <1>  floadlit -12.34
  3494                              <2> section .data
  3495 00000208 AE47E17A14AE28C0    <2> %%lit: dq %1
  3496                              <2> 	section .text
  3497 000027C9 DD05[08020000]      <2> 	fld qword[%%lit]
  3498 000027CF 81EC04000000        <1>  sub esp,4
  3499 000027D5 D91C24              <1>  fstp dword [esp]
  3500 000027D8 E88FE0FFFF          <1>  call lea9d30de409
  3501 000027DD 81C404000000        <1>  add esp, 4
  3502 000027E3 D99D28FFFFFF        <1>  fstp dword  [  ebp+     -216]
  3503 000027E9 6800000000          <1>  push DWORD      0
  3504 000027EE 680C000000          <1>  push DWORD      12
  3505 000027F3 68A4704541          <1>  push DWORD      1095069860
  3506 000027F8 6800000000          <1>  push DWORD      0
  3507                              <1> 	EXTERN _printreal
  3508 000027FD E8(00000000)        <1>  call _printreal; imported
  3509 00002802 81C410000000        <1>  add esp, 16
  3510 00002808 6805000000          <1>  push DWORD      5
  3511 0000280D 680C000000          <1>  push DWORD      12
  3512 00002812 FFB52CFFFFFF        <1>  push DWORD  [  ebp+     -212]
  3513 00002818 6800000000          <1>  push DWORD      0
  3514                              <1> 	EXTERN _printreal
  3515 0000281D E8(00000000)        <1>  call _printreal; imported
  3516 00002822 81C410000000        <1>  add esp, 16
  3517 00002828 6805000000          <1>  push DWORD      5
  3518 0000282D 680C000000          <1>  push DWORD      12
  3519 00002832 FFB528FFFFFF        <1>  push DWORD  [  ebp+     -216]
  3520 00002838 6800000000          <1>  push DWORD      0
  3521                              <1> 	EXTERN _printreal
  3522 0000283D E8(00000000)        <1>  call _printreal; imported
  3523 00002842 81C410000000        <1>  add esp, 16
  3524 00002848 6800000000          <1>  push DWORD      0
  3525                              <1> 	EXTERN _println
  3526 0000284D E8(00000000)        <1>  call _println; imported
  3527 00002852 81C404000000        <1>  add esp, 4
  3528                              <1> ;102
  3529                              <1>  lea9d3146fa1c7:
  3530                              <1> spaceforunaries equ 216
  3531                              <1> unariesexit:
  3532 00002858 C9                  <1> leave
  3533 00002859 C20000              <1>  ret 0
  3534                              <1> section .text  
  3535                              <1> ; procedure generated by code generator class ilcg.tree.PentiumCG
  3536                              <1> ; Walker version 0.43255946
  3537                              <1> lea9d314be620c:
  3538                              <1> ;	 unit$testunary
  3539                              <1> unit$testunary:
  3540 0000285C C8000000            <1>  enter  0,0
  3541 00002860 E82FE2FFFF          <1>  call unit$system
  3542 00002865 803D[10020000]01    <1> cmp byte[unit$testunaryready],1
  3543 0000286C 7505                <1>  jnz unit$testunaryinit
  3544 0000286E E907000000          <1>  jmp unit$testunaryexit
  3545 00002873 C605[10020000]01    <1> unit$testunaryinit:mov byte[unit$testunaryready],1
  3546                              <1> ;104
  3547                              <1>  lea9d3146be1c3:
  3548                              <1> spaceforunit$testunary equ 4
  3549                              <1> unit$testunaryexit:
  3550 0000287A C9                  <1> leave
  3551 0000287B C20000              <1>  ret 0
  3552                              <1> 	SECTION .bss
  3553 0000001C <res 00000004>      <1> resb spaceforunit$testunary
  3554                              <1>  lea9d3142401bf:
  3555                              <1> 	SECTION .data
  3556 00000210 00000000            <1> unit$testunaryready dd 0
  3557 00000214 90<rept>            <1>  align 16
  3558                              <1>  lea9d314b4620b:
  3559 00000220 1C                  <1>  db  28
  3560 00000221 31                  <1>  db  49
  3561 00000222 32                  <1>  db  50
  3562 00000223 2E                  <1>  db  46
  3563 00000224 33                  <1>  db  51
  3564 00000225 34                  <1>  db  52
  3565 00000226 2C                  <1>  db  44
  3566 00000227 61                  <1>  db  97
  3567 00000228 62                  <1>  db  98
  3568 00000229 73                  <1>  db  115
  3569 0000022A 28                  <1>  db  40
  3570 0000022B 31                  <1>  db  49
  3571 0000022C 32                  <1>  db  50
  3572 0000022D 2E                  <1>  db  46
  3573 0000022E 33                  <1>  db  51
  3574 0000022F 34                  <1>  db  52
  3575 00000230 29                  <1>  db  41
  3576 00000231 2C                  <1>  db  44
  3577 00000232 61                  <1>  db  97
  3578 00000233 62                  <1>  db  98
  3579 00000234 73                  <1>  db  115
  3580 00000235 28                  <1>  db  40
  3581 00000236 2D                  <1>  db  45
  3582 00000237 31                  <1>  db  49
  3583 00000238 32                  <1>  db  50
  3584 00000239 2E                  <1>  db  46
  3585 0000023A 33                  <1>  db  51
  3586 0000023B 34                  <1>  db  52
  3587 0000023C 29                  <1>  db  41
  3588 0000023D 00                  <1>  db  0
  3589                              <1>  lea9d314b4620a:
  3590 0000023E 10                  <1>  db  16
  3591 0000023F 72                  <1>  db  114
  3592 00000240 2C                  <1>  db  44
  3593 00000241 73                  <1>  db  115
  3594 00000242 69                  <1>  db  105
  3595 00000243 6E                  <1>  db  110
  3596 00000244 28                  <1>  db  40
  3597 00000245 72                  <1>  db  114
  3598 00000246 29                  <1>  db  41
  3599 00000247 2C                  <1>  db  44
  3600 00000248 73                  <1>  db  115
  3601 00000249 69                  <1>  db  105
  3602 0000024A 6E                  <1>  db  110
  3603 0000024B 28                  <1>  db  40
  3604 0000024C 2D                  <1>  db  45
  3605 0000024D 72                  <1>  db  114
  3606 0000024E 29                  <1>  db  41
  3607 0000024F 00                  <1>  db  0
  3608                              <1>  lea9d314b0a209:
  3609 00000250 12                  <1>  db  18
  3610 00000251 72                  <1>  db  114
  3611 00000252 2C                  <1>  db  44
  3612 00000253 73                  <1>  db  115
  3613 00000254 71                  <1>  db  113
  3614 00000255 72                  <1>  db  114
  3615 00000256 74                  <1>  db  116
  3616 00000257 28                  <1>  db  40
  3617 00000258 72                  <1>  db  114
  3618 00000259 29                  <1>  db  41
  3619 0000025A 2C                  <1>  db  44
  3620 0000025B 73                  <1>  db  115
  3621 0000025C 71                  <1>  db  113
  3622 0000025D 72                  <1>  db  114
  3623 0000025E 74                  <1>  db  116
  3624 0000025F 28                  <1>  db  40
  3625 00000260 2D                  <1>  db  45
  3626 00000261 72                  <1>  db  114
  3627 00000262 29                  <1>  db  41
  3628 00000263 00                  <1>  db  0
  3629                              <1>  lea9d314ad8208:
  3630 00000264 0E                  <1>  db  14
  3631 00000265 72                  <1>  db  114
  3632 00000266 2C                  <1>  db  44
  3633 00000267 6C                  <1>  db  108
  3634 00000268 6E                  <1>  db  110
  3635 00000269 28                  <1>  db  40
  3636 0000026A 72                  <1>  db  114
  3637 0000026B 29                  <1>  db  41
  3638 0000026C 2C                  <1>  db  44
  3639 0000026D 6C                  <1>  db  108
  3640 0000026E 6E                  <1>  db  110
  3641 0000026F 28                  <1>  db  40
  3642 00000270 2D                  <1>  db  45
  3643 00000271 72                  <1>  db  114
  3644 00000272 29                  <1>  db  41
  3645 00000273 00                  <1>  db  0
  3646                              <1>  lea9d314ad8207:
  3647 00000274 1C                  <1>  db  28
  3648 00000275 31                  <1>  db  49
  3649 00000276 32                  <1>  db  50
  3650 00000277 2E                  <1>  db  46
  3651 00000278 33                  <1>  db  51
  3652 00000279 34                  <1>  db  52
  3653 0000027A 2C                  <1>  db  44
  3654 0000027B 73                  <1>  db  115
  3655 0000027C 69                  <1>  db  105
  3656 0000027D 6E                  <1>  db  110
  3657 0000027E 28                  <1>  db  40
  3658 0000027F 31                  <1>  db  49
  3659 00000280 32                  <1>  db  50
  3660 00000281 2E                  <1>  db  46
  3661 00000282 33                  <1>  db  51
  3662 00000283 34                  <1>  db  52
  3663 00000284 29                  <1>  db  41
  3664 00000285 2C                  <1>  db  44
  3665 00000286 73                  <1>  db  115
  3666 00000287 69                  <1>  db  105
  3667 00000288 6E                  <1>  db  110
  3668 00000289 28                  <1>  db  40
  3669 0000028A 2D                  <1>  db  45
  3670 0000028B 31                  <1>  db  49
  3671 0000028C 32                  <1>  db  50
  3672 0000028D 2E                  <1>  db  46
  3673 0000028E 33                  <1>  db  51
  3674 0000028F 34                  <1>  db  52
  3675 00000290 29                  <1>  db  41
  3676 00000291 00                  <1>  db  0
  3677                              <1>  lea9d314ad8206:
  3678 00000292 0C                  <1>  db  12
  3679 00000293 31                  <1>  db  49
  3680 00000294 32                  <1>  db  50
  3681 00000295 2C                  <1>  db  44
  3682 00000296 73                  <1>  db  115
  3683 00000297 71                  <1>  db  113
  3684 00000298 72                  <1>  db  114
  3685 00000299 74                  <1>  db  116
  3686 0000029A 28                  <1>  db  40
  3687 0000029B 31                  <1>  db  49
  3688 0000029C 32                  <1>  db  50
  3689 0000029D 29                  <1>  db  41
  3690 0000029E 20                  <1>  db  32
  3691 0000029F 00                  <1>  db  0
  3692                              <1>  lea9d314a9c205:
  3693 000002A0 12                  <1>  db  18
  3694 000002A1 31                  <1>  db  49
  3695 000002A2 32                  <1>  db  50
  3696 000002A3 2E                  <1>  db  46
  3697 000002A4 33                  <1>  db  51
  3698 000002A5 34                  <1>  db  52
  3699 000002A6 2C                  <1>  db  44
  3700 000002A7 73                  <1>  db  115
  3701 000002A8 71                  <1>  db  113
  3702 000002A9 72                  <1>  db  114
  3703 000002AA 74                  <1>  db  116
  3704 000002AB 28                  <1>  db  40
  3705 000002AC 31                  <1>  db  49
  3706 000002AD 32                  <1>  db  50
  3707 000002AE 2E                  <1>  db  46
  3708 000002AF 33                  <1>  db  51
  3709 000002B0 34                  <1>  db  52
  3710 000002B1 29                  <1>  db  41
  3711 000002B2 20                  <1>  db  32
  3712 000002B3 00                  <1>  db  0
  3713                              <1>  lea9d314a9c204:
  3714 000002B4 10                  <1>  db  16
  3715 000002B5 31                  <1>  db  49
  3716 000002B6 32                  <1>  db  50
  3717 000002B7 2E                  <1>  db  46
  3718 000002B8 33                  <1>  db  51
  3719 000002B9 34                  <1>  db  52
  3720 000002BA 2C                  <1>  db  44
  3721 000002BB 6C                  <1>  db  108
  3722 000002BC 6E                  <1>  db  110
  3723 000002BD 28                  <1>  db  40
  3724 000002BE 31                  <1>  db  49
  3725 000002BF 32                  <1>  db  50
  3726 000002C0 2E                  <1>  db  46
  3727 000002C1 33                  <1>  db  51
  3728 000002C2 34                  <1>  db  52
  3729 000002C3 29                  <1>  db  41
  3730 000002C4 20                  <1>  db  32
  3731 000002C5 00                  <1>  db  0
  3732                              <1>  lea9d314a9c203:
  3733 000002C6 10                  <1>  db  16
  3734 000002C7 72                  <1>  db  114
  3735 000002C8 2C                  <1>  db  44
  3736 000002C9 69                  <1>  db  105
  3737 000002CA 6E                  <1>  db  110
  3738 000002CB 74                  <1>  db  116
  3739 000002CC 28                  <1>  db  40
  3740 000002CD 72                  <1>  db  114
  3741 000002CE 29                  <1>  db  41
  3742 000002CF 2C                  <1>  db  44
  3743 000002D0 69                  <1>  db  105
  3744 000002D1 6E                  <1>  db  110
  3745 000002D2 74                  <1>  db  116
  3746 000002D3 28                  <1>  db  40
  3747 000002D4 2D                  <1>  db  45
  3748 000002D5 72                  <1>  db  114
  3749 000002D6 29                  <1>  db  41
  3750 000002D7 00                  <1>  db  0
  3751                              <1>  lea9d314a6a202:
  3752 000002D8 14                  <1>  db  20
  3753 000002D9 72                  <1>  db  114
  3754 000002DA 2C                  <1>  db  44
  3755 000002DB 72                  <1>  db  114
  3756 000002DC 6F                  <1>  db  111
  3757 000002DD 75                  <1>  db  117
  3758 000002DE 6E                  <1>  db  110
  3759 000002DF 64                  <1>  db  100
  3760 000002E0 28                  <1>  db  40
  3761 000002E1 72                  <1>  db  114
  3762 000002E2 29                  <1>  db  41
  3763 000002E3 2C                  <1>  db  44
  3764 000002E4 72                  <1>  db  114
  3765 000002E5 6F                  <1>  db  111
  3766 000002E6 75                  <1>  db  117
  3767 000002E7 6E                  <1>  db  110
  3768 000002E8 64                  <1>  db  100
  3769 000002E9 28                  <1>  db  40
  3770 000002EA 2D                  <1>  db  45
  3771 000002EB 72                  <1>  db  114
  3772 000002EC 29                  <1>  db  41
  3773 000002ED 00                  <1>  db  0
  3774                              <1>  lea9d314a6a201:
  3775 000002EE 14                  <1>  db  20
  3776 000002EF 72                  <1>  db  114
  3777 000002F0 2C                  <1>  db  44
  3778 000002F1 74                  <1>  db  116
  3779 000002F2 72                  <1>  db  114
  3780 000002F3 75                  <1>  db  117
  3781 000002F4 6E                  <1>  db  110
  3782 000002F5 63                  <1>  db  99
  3783 000002F6 28                  <1>  db  40
  3784 000002F7 72                  <1>  db  114
  3785 000002F8 29                  <1>  db  41
  3786 000002F9 2C                  <1>  db  44
  3787 000002FA 74                  <1>  db  116
  3788 000002FB 72                  <1>  db  114
  3789 000002FC 75                  <1>  db  117
  3790 000002FD 6E                  <1>  db  110
  3791 000002FE 63                  <1>  db  99
  3792 000002FF 28                  <1>  db  40
  3793 00000300 2D                  <1>  db  45
  3794 00000301 72                  <1>  db  114
  3795 00000302 29                  <1>  db  41
  3796 00000303 00                  <1>  db  0
  3797                              <1>  lea9d314a6a200:
  3798 00000304 1C                  <1>  db  28
  3799 00000305 31                  <1>  db  49
  3800 00000306 32                  <1>  db  50
  3801 00000307 2E                  <1>  db  46
  3802 00000308 33                  <1>  db  51
  3803 00000309 34                  <1>  db  52
  3804 0000030A 2C                  <1>  db  44
  3805 0000030B 69                  <1>  db  105
  3806 0000030C 6E                  <1>  db  110
  3807 0000030D 74                  <1>  db  116
  3808 0000030E 28                  <1>  db  40
  3809 0000030F 31                  <1>  db  49
  3810 00000310 32                  <1>  db  50
  3811 00000311 2E                  <1>  db  46
  3812 00000312 33                  <1>  db  51
  3813 00000313 34                  <1>  db  52
  3814 00000314 29                  <1>  db  41
  3815 00000315 2C                  <1>  db  44
  3816 00000316 69                  <1>  db  105
  3817 00000317 6E                  <1>  db  110
  3818 00000318 74                  <1>  db  116
  3819 00000319 28                  <1>  db  40
  3820 0000031A 2D                  <1>  db  45
  3821 0000031B 31                  <1>  db  49
  3822 0000031C 32                  <1>  db  50
  3823 0000031D 2E                  <1>  db  46
  3824 0000031E 33                  <1>  db  51
  3825 0000031F 34                  <1>  db  52
  3826 00000320 29                  <1>  db  41
  3827 00000321 00                  <1>  db  0
  3828                              <1>  lea9d314a2e1ff:
  3829 00000322 20                  <1>  db  32
  3830 00000323 31                  <1>  db  49
  3831 00000324 32                  <1>  db  50
  3832 00000325 2E                  <1>  db  46
  3833 00000326 33                  <1>  db  51
  3834 00000327 34                  <1>  db  52
  3835 00000328 2C                  <1>  db  44
  3836 00000329 72                  <1>  db  114
  3837 0000032A 6F                  <1>  db  111
  3838 0000032B 75                  <1>  db  117
  3839 0000032C 6E                  <1>  db  110
  3840 0000032D 64                  <1>  db  100
  3841 0000032E 28                  <1>  db  40
  3842 0000032F 31                  <1>  db  49
  3843 00000330 32                  <1>  db  50
  3844 00000331 2E                  <1>  db  46
  3845 00000332 33                  <1>  db  51
  3846 00000333 34                  <1>  db  52
  3847 00000334 29                  <1>  db  41
  3848 00000335 2C                  <1>  db  44
  3849 00000336 72                  <1>  db  114
  3850 00000337 6F                  <1>  db  111
  3851 00000338 75                  <1>  db  117
  3852 00000339 6E                  <1>  db  110
  3853 0000033A 64                  <1>  db  100
  3854 0000033B 28                  <1>  db  40
  3855 0000033C 2D                  <1>  db  45
  3856 0000033D 31                  <1>  db  49
  3857 0000033E 32                  <1>  db  50
  3858 0000033F 2E                  <1>  db  46
  3859 00000340 33                  <1>  db  51
  3860 00000341 34                  <1>  db  52
  3861 00000342 29                  <1>  db  41
  3862 00000343 00                  <1>  db  0
  3863                              <1>  lea9d3149c01fe:
  3864 00000344 20                  <1>  db  32
  3865 00000345 31                  <1>  db  49
  3866 00000346 32                  <1>  db  50
  3867 00000347 2E                  <1>  db  46
  3868 00000348 33                  <1>  db  51
  3869 00000349 34                  <1>  db  52
  3870 0000034A 2C                  <1>  db  44
  3871 0000034B 74                  <1>  db  116
  3872 0000034C 72                  <1>  db  114
  3873 0000034D 75                  <1>  db  117
  3874 0000034E 6E                  <1>  db  110
  3875 0000034F 63                  <1>  db  99
  3876 00000350 28                  <1>  db  40
  3877 00000351 31                  <1>  db  49
  3878 00000352 32                  <1>  db  50
  3879 00000353 2E                  <1>  db  46
  3880 00000354 33                  <1>  db  51
  3881 00000355 34                  <1>  db  52
  3882 00000356 29                  <1>  db  41
  3883 00000357 2C                  <1>  db  44
  3884 00000358 74                  <1>  db  116
  3885 00000359 72                  <1>  db  114
  3886 0000035A 75                  <1>  db  117
  3887 0000035B 6E                  <1>  db  110
  3888 0000035C 63                  <1>  db  99
  3889 0000035D 28                  <1>  db  40
  3890 0000035E 2D                  <1>  db  45
  3891 0000035F 31                  <1>  db  49
  3892 00000360 32                  <1>  db  50
  3893 00000361 2E                  <1>  db  46
  3894 00000362 33                  <1>  db  51
  3895 00000363 34                  <1>  db  52
  3896 00000364 29                  <1>  db  41
  3897 00000365 00                  <1>  db  0
  3898                              <1>  lea9d3149c01fd:
  3899 00000366 02                  <1>  db  2
  3900 00000367 3C                  <1>  db  60
  3901 00000368 7A                  <1>  db  122
  3902 00000369 00                  <1>  db  0
  3903                              <1>  lea9d3149c01fc:
  3904 0000036A 03                  <1>  db  3
  3905 0000036B 3E                  <1>  db  62
  3906 0000036C 3D                  <1>  db  61
  3907 0000036D 7A                  <1>  db  122
  3908 0000036E 00                  <1>  db  0
  3909                              <1>  lea9d3149c01fb:
  3910 0000036F 02                  <1>  db  2
  3911 00000370 3E                  <1>  db  62
  3912 00000371 7A                  <1>  db  122
  3913 00000372 00                  <1>  db  0
  3914                              <1>  lea9d3149c01fa:
  3915 00000373 03                  <1>  db  3
  3916 00000374 3C                  <1>  db  60
  3917 00000375 3D                  <1>  db  61
  3918 00000376 7A                  <1>  db  122
  3919 00000377 00                  <1>  db  0
  3920                              <1>  lea9d3149c01f9:
  3921 00000378 03                  <1>  db  3
  3922 00000379 3C                  <1>  db  60
  3923 0000037A 3D                  <1>  db  61
  3924 0000037B 7A                  <1>  db  122
  3925 0000037C 00                  <1>  db  0
  3926                              <1>  lea9d3149c01f8:
  3927 0000037D 02                  <1>  db  2
  3928 0000037E 3E                  <1>  db  62
  3929 0000037F 7A                  <1>  db  122
  3930 00000380 00                  <1>  db  0
  3931                              <1>  lea9d31498e1f7:
  3932 00000381 02                  <1>  db  2
  3933 00000382 3C                  <1>  db  60
  3934 00000383 30                  <1>  db  48
  3935 00000384 00                  <1>  db  0
  3936                              <1>  lea9d31498e1f6:
  3937 00000385 03                  <1>  db  3
  3938 00000386 3E                  <1>  db  62
  3939 00000387 3D                  <1>  db  61
  3940 00000388 30                  <1>  db  48
  3941 00000389 00                  <1>  db  0
  3942                              <1>  lea9d31498e1f5:
  3943 0000038A 02                  <1>  db  2
  3944 0000038B 3E                  <1>  db  62
  3945 0000038C 30                  <1>  db  48
  3946 0000038D 00                  <1>  db  0
  3947                              <1>  lea9d31498e1f4:
  3948 0000038E 03                  <1>  db  3
  3949 0000038F 3C                  <1>  db  60
  3950 00000390 3D                  <1>  db  61
  3951 00000391 30                  <1>  db  48
  3952 00000392 00                  <1>  db  0
  3953                              <1>  lea9d31498e1f3:
  3954 00000393 03                  <1>  db  3
  3955 00000394 3C                  <1>  db  60
  3956 00000395 3D                  <1>  db  61
  3957 00000396 30                  <1>  db  48
  3958 00000397 00                  <1>  db  0
  3959                              <1>  lea9d31498e1f2:
  3960 00000398 02                  <1>  db  2
  3961 00000399 3E                  <1>  db  62
  3962 0000039A 30                  <1>  db  48
  3963 0000039B 00                  <1>  db  0
  3964                              <1>  lea9d31498e1f1:
  3965 0000039C 03                  <1>  db  3
  3966 0000039D 3E                  <1>  db  62
  3967 0000039E 3D                  <1>  db  61
  3968 0000039F 7A                  <1>  db  122
  3969 000003A0 00                  <1>  db  0
  3970                              <1>  lea9d3149521f0:
  3971 000003A1 02                  <1>  db  2
  3972 000003A2 3C                  <1>  db  60
  3973 000003A3 7A                  <1>  db  122
  3974 000003A4 00                  <1>  db  0
  3975                              <1>  lea9d3149521ef:
  3976 000003A5 03                  <1>  db  3
  3977 000003A6 3E                  <1>  db  62
  3978 000003A7 3D                  <1>  db  61
  3979 000003A8 30                  <1>  db  48
  3980 000003A9 00                  <1>  db  0
  3981                              <1>  lea9d3149521ee:
  3982 000003AA 02                  <1>  db  2
  3983 000003AB 3C                  <1>  db  60
  3984 000003AC 30                  <1>  db  48
  3985 000003AD 00                  <1>  db  0
  3986                              <1>  lea9d3149201ed:
  3987 000003AE 17                  <1>  db  23
  3988 000003AF 74                  <1>  db  116
  3989 000003B0 65                  <1>  db  101
  3990 000003B1 73                  <1>  db  115
  3991 000003B2 74                  <1>  db  116
  3992 000003B3 20                  <1>  db  32
  3993 000003B4 73                  <1>  db  115
  3994 000003B5 69                  <1>  db  105
  3995 000003B6 67                  <1>  db  103
  3996 000003B7 6E                  <1>  db  110
  3997 000003B8 65                  <1>  db  101
  3998 000003B9 64                  <1>  db  100
  3999 000003BA 20                  <1>  db  32
  4000 000003BB 63                  <1>  db  99
  4001 000003BC 6F                  <1>  db  111
  4002 000003BD 6D                  <1>  db  109
  4003 000003BE 70                  <1>  db  112
  4004 000003BF 61                  <1>  db  97
  4005 000003C0 72                  <1>  db  114
  4006 000003C1 69                  <1>  db  105
  4007 000003C2 73                  <1>  db  115
  4008 000003C3 6F                  <1>  db  111
  4009 000003C4 6E                  <1>  db  110
  4010 000003C5 73                  <1>  db  115
  4011 000003C6 00                  <1>  db  0
  4012                              <1>  lea9d3149201ec:
  4013 000003C7 02                  <1>  db  2
  4014 000003C8 3C                  <1>  db  60
  4015 000003C9 7A                  <1>  db  122
  4016 000003CA 00                  <1>  db  0
  4017                              <1>  lea9d3149201eb:
  4018 000003CB 03                  <1>  db  3
  4019 000003CC 3E                  <1>  db  62
  4020 000003CD 3D                  <1>  db  61
  4021 000003CE 7A                  <1>  db  122
  4022 000003CF 00                  <1>  db  0
  4023                              <1>  lea9d3148b21ea:
  4024 000003D0 02                  <1>  db  2
  4025 000003D1 3E                  <1>  db  62
  4026 000003D2 7A                  <1>  db  122
  4027 000003D3 00                  <1>  db  0
  4028                              <1>  lea9d3148b21e9:
  4029 000003D4 03                  <1>  db  3
  4030 000003D5 3C                  <1>  db  60
  4031 000003D6 3D                  <1>  db  61
  4032 000003D7 7A                  <1>  db  122
  4033 000003D8 00                  <1>  db  0
  4034                              <1>  lea9d3148b21e8:
  4035 000003D9 03                  <1>  db  3
  4036 000003DA 3C                  <1>  db  60
  4037 000003DB 3D                  <1>  db  61
  4038 000003DC 7A                  <1>  db  122
  4039 000003DD 00                  <1>  db  0
  4040                              <1>  lea9d3148b21e7:
  4041 000003DE 02                  <1>  db  2
  4042 000003DF 3E                  <1>  db  62
  4043 000003E0 7A                  <1>  db  122
  4044 000003E1 00                  <1>  db  0
  4045                              <1>  lea9d3148b21e6:
  4046 000003E2 02                  <1>  db  2
  4047 000003E3 3C                  <1>  db  60
  4048 000003E4 30                  <1>  db  48
  4049 000003E5 00                  <1>  db  0
  4050                              <1>  lea9d3148761e5:
  4051 000003E6 03                  <1>  db  3
  4052 000003E7 3E                  <1>  db  62
  4053 000003E8 3D                  <1>  db  61
  4054 000003E9 30                  <1>  db  48
  4055 000003EA 00                  <1>  db  0
  4056                              <1>  lea9d3148761e4:
  4057 000003EB 02                  <1>  db  2
  4058 000003EC 3E                  <1>  db  62
  4059 000003ED 30                  <1>  db  48
  4060 000003EE 00                  <1>  db  0
  4061                              <1>  lea9d3148761e3:
  4062 000003EF 03                  <1>  db  3
  4063 000003F0 3C                  <1>  db  60
  4064 000003F1 3D                  <1>  db  61
  4065 000003F2 30                  <1>  db  48
  4066 000003F3 00                  <1>  db  0
  4067                              <1>  lea9d3148761e2:
  4068 000003F4 03                  <1>  db  3
  4069 000003F5 3C                  <1>  db  60
  4070 000003F6 3D                  <1>  db  61
  4071 000003F7 30                  <1>  db  48
  4072 000003F8 00                  <1>  db  0
  4073                              <1>  lea9d3148761e1:
  4074 000003F9 02                  <1>  db  2
  4075 000003FA 3E                  <1>  db  62
  4076 000003FB 30                  <1>  db  48
  4077 000003FC 00                  <1>  db  0
  4078                              <1>  lea9d3148761e0:
  4079 000003FD 03                  <1>  db  3
  4080 000003FE 3E                  <1>  db  62
  4081 000003FF 3D                  <1>  db  61
  4082 00000400 7A                  <1>  db  122
  4083 00000401 00                  <1>  db  0
  4084                              <1>  lea9d3148441df:
  4085 00000402 02                  <1>  db  2
  4086 00000403 3C                  <1>  db  60
  4087 00000404 7A                  <1>  db  122
  4088 00000405 00                  <1>  db  0
  4089                              <1>  lea9d3148441de:
  4090 00000406 03                  <1>  db  3
  4091 00000407 3E                  <1>  db  62
  4092 00000408 3D                  <1>  db  61
  4093 00000409 30                  <1>  db  48
  4094 0000040A 00                  <1>  db  0
  4095                              <1>  lea9d3148441dd:
  4096 0000040B 02                  <1>  db  2
  4097 0000040C 3C                  <1>  db  60
  4098 0000040D 30                  <1>  db  48
  4099 0000040E 00                  <1>  db  0
  4100                              <1>  lea9d3148441dc:
  4101 0000040F 20                  <1>  db  32
  4102 00000410 74                  <1>  db  116
  4103 00000411 65                  <1>  db  101
  4104 00000412 73                  <1>  db  115
  4105 00000413 74                  <1>  db  116
  4106 00000414 20                  <1>  db  32
  4107 00000415 75                  <1>  db  117
  4108 00000416 6E                  <1>  db  110
  4109 00000417 73                  <1>  db  115
  4110 00000418 69                  <1>  db  105
  4111 00000419 67                  <1>  db  103
  4112 0000041A 6E                  <1>  db  110
  4113 0000041B 65                  <1>  db  101
  4114 0000041C 64                  <1>  db  100
  4115 0000041D 20                  <1>  db  32
  4116 0000041E 31                  <1>  db  49
  4117 0000041F 36                  <1>  db  54
  4118 00000420 20                  <1>  db  32
  4119 00000421 62                  <1>  db  98
  4120 00000422 69                  <1>  db  105
  4121 00000423 74                  <1>  db  116
  4122 00000424 20                  <1>  db  32
  4123 00000425 63                  <1>  db  99
  4124 00000426 6F                  <1>  db  111
  4125 00000427 6D                  <1>  db  109
  4126 00000428 70                  <1>  db  112
  4127 00000429 61                  <1>  db  97
  4128 0000042A 72                  <1>  db  114
  4129 0000042B 69                  <1>  db  105
  4130 0000042C 73                  <1>  db  115
  4131 0000042D 6F                  <1>  db  111
  4132 0000042E 6E                  <1>  db  110
  4133 0000042F 73                  <1>  db  115
  4134 00000430 00                  <1>  db  0
  4135                              <1>  lea9d3148441db:
  4136 00000431 02                  <1>  db  2
  4137 00000432 3C                  <1>  db  60
  4138 00000433 7A                  <1>  db  122
  4139 00000434 00                  <1>  db  0
  4140                              <1>  lea9d3148441da:
  4141 00000435 03                  <1>  db  3
  4142 00000436 3E                  <1>  db  62
  4143 00000437 3D                  <1>  db  61
  4144 00000438 7A                  <1>  db  122
  4145 00000439 00                  <1>  db  0
  4146                              <1>  lea9d3148081d9:
  4147 0000043A 02                  <1>  db  2
  4148 0000043B 3E                  <1>  db  62
  4149 0000043C 7A                  <1>  db  122
  4150 0000043D 00                  <1>  db  0
  4151                              <1>  lea9d3148081d8:
  4152 0000043E 03                  <1>  db  3
  4153 0000043F 3C                  <1>  db  60
  4154 00000440 3D                  <1>  db  61
  4155 00000441 7A                  <1>  db  122
  4156 00000442 00                  <1>  db  0
  4157                              <1>  lea9d3148081d7:
  4158 00000443 03                  <1>  db  3
  4159 00000444 3C                  <1>  db  60
  4160 00000445 3D                  <1>  db  61
  4161 00000446 7A                  <1>  db  122
  4162 00000447 00                  <1>  db  0
  4163                              <1>  lea9d3148081d6:
  4164 00000448 02                  <1>  db  2
  4165 00000449 3E                  <1>  db  62
  4166 0000044A 7A                  <1>  db  122
  4167 0000044B 00                  <1>  db  0
  4168                              <1>  lea9d31479a1d5:
  4169 0000044C 02                  <1>  db  2
  4170 0000044D 3C                  <1>  db  60
  4171 0000044E 30                  <1>  db  48
  4172 0000044F 00                  <1>  db  0
  4173                              <1>  lea9d31479a1d4:
  4174 00000450 03                  <1>  db  3
  4175 00000451 3E                  <1>  db  62
  4176 00000452 3D                  <1>  db  61
  4177 00000453 30                  <1>  db  48
  4178 00000454 00                  <1>  db  0
  4179                              <1>  lea9d31479a1d3:
  4180 00000455 02                  <1>  db  2
  4181 00000456 3E                  <1>  db  62
  4182 00000457 30                  <1>  db  48
  4183 00000458 00                  <1>  db  0
  4184                              <1>  lea9d31479a1d2:
  4185 00000459 03                  <1>  db  3
  4186 0000045A 3C                  <1>  db  60
  4187 0000045B 3D                  <1>  db  61
  4188 0000045C 30                  <1>  db  48
  4189 0000045D 00                  <1>  db  0
  4190                              <1>  lea9d31479a1d1:
  4191 0000045E 03                  <1>  db  3
  4192 0000045F 3C                  <1>  db  60
  4193 00000460 3D                  <1>  db  61
  4194 00000461 30                  <1>  db  48
  4195 00000462 00                  <1>  db  0
  4196                              <1>  lea9d31479a1d0:
  4197 00000463 02                  <1>  db  2
  4198 00000464 3E                  <1>  db  62
  4199 00000465 30                  <1>  db  48
  4200 00000466 00                  <1>  db  0
  4201                              <1>  lea9d3147681cf:
  4202 00000467 03                  <1>  db  3
  4203 00000468 3E                  <1>  db  62
  4204 00000469 3D                  <1>  db  61
  4205 0000046A 7A                  <1>  db  122
  4206 0000046B 00                  <1>  db  0
  4207                              <1>  lea9d3147681ce:
  4208 0000046C 02                  <1>  db  2
  4209 0000046D 3C                  <1>  db  60
  4210 0000046E 7A                  <1>  db  122
  4211 0000046F 00                  <1>  db  0
  4212                              <1>  lea9d31472c1cd:
  4213 00000470 03                  <1>  db  3
  4214 00000471 3E                  <1>  db  62
  4215 00000472 3D                  <1>  db  61
  4216 00000473 30                  <1>  db  48
  4217 00000474 00                  <1>  db  0
  4218                              <1>  lea9d31472c1cc:
  4219 00000475 02                  <1>  db  2
  4220 00000476 3C                  <1>  db  60
  4221 00000477 30                  <1>  db  48
  4222 00000478 00                  <1>  db  0
  4223                              <1>  lea9d31472c1cb:
  4224 00000479 02                  <1>  db  2
  4225 0000047A 7A                  <1>  db  122
  4226 0000047B 3D                  <1>  db  61
  4227 0000047C 00                  <1>  db  0
  4228                              <1>  lea9d31472c1ca:
  4229 0000047D 02                  <1>  db  2
  4230 0000047E 72                  <1>  db  114
  4231 0000047F 3D                  <1>  db  61
  4232 00000480 00                  <1>  db  0
  4233                              <1>  lea9d3146fa1c9:
  4234 00000481 04                  <1>  db  4
  4235 00000482 72                  <1>  db  114
  4236 00000483 3C                  <1>  db  60
  4237 00000484 7A                  <1>  db  122
  4238 00000485 3D                  <1>  db  61
  4239 00000486 00                  <1>  db  0
  4240                              <1>  lea9d3146fa1c8:
  4241 00000487 15                  <1>  db  21
  4242 00000488 74                  <1>  db  116
  4243 00000489 65                  <1>  db  101
  4244 0000048A 73                  <1>  db  115
  4245 0000048B 74                  <1>  db  116
  4246 0000048C 20                  <1>  db  32
  4247 0000048D 72                  <1>  db  114
  4248 0000048E 65                  <1>  db  101
  4249 0000048F 61                  <1>  db  97
  4250 00000490 6C                  <1>  db  108
  4251 00000491 20                  <1>  db  32
  4252 00000492 63                  <1>  db  99
  4253 00000493 6F                  <1>  db  111
  4254 00000494 6D                  <1>  db  109
  4255 00000495 70                  <1>  db  112
  4256 00000496 61                  <1>  db  97
  4257 00000497 72                  <1>  db  114
  4258 00000498 69                  <1>  db  105
  4259 00000499 73                  <1>  db  115
  4260 0000049A 6F                  <1>  db  111
  4261 0000049B 6E                  <1>  db  110
  4262 0000049C 73                  <1>  db  115
  4263 0000049D 00                  <1>  db  0
  4264                              <1> %endif
  4265                                  %include "./heaptest.asm"
  4266                              <1> %ifndef heaptest
  4267                              <1> %define heaptest
  4268                              <1> section .text  
  4269                              <1> ; procedure generated by code generator class ilcg.tree.PentiumCG
  4270                              <1> ; Walker version 0.43255946
  4271                              <1> lea9d31758a32f:
  4272                              <1> ;	 doheaptest
  4273 0000287E C80C0001            <1>  enter   spacefordoheaptest-4*1,1
  4274                              <1> ;33
  4275 00002882 BB00000000          <1>  mov DWORD ebx, 0
  4276 00002887 891D[24000000]      <1>  mov DWORD  [  lea9d316fb832c+    -8],ebx
  4277                              <1> ;42
  4278 0000288D C745F801000000      <1>  mov DWORD  [  ebp+     -8],     1
  4279                              <1>  lea9d317850345:
  4280 00002894 817DF805000000      <1>  cmp DWORD  [  ebp+     -8],      5
  4281 0000289B 0F8F5A000000        <1>  jg near  lea9d317850346
  4282                              <1> ;37
  4283 000028A1 6808000000          <1>  push DWORD      8
  4284 000028A6 55                  <1>  push ebp
  4285 000028A7 810424F4FFFFFF      <1>  add  dword[esp] ,     -12
  4286                              <1> 	EXTERN _getmem
  4287 000028AE E8(00000000)        <1>  call _getmem; imported
  4288 000028B3 81C408000000        <1>  add esp, 8
  4289                              <1> ;38
  4290 000028B9 8B5DF4              <1>  mov ebx,DWORD  [  ebp+     -12]
  4291 000028BC 8B3D[24000000]      <1>  mov edi,DWORD  [  lea9d316fb832c+    -8]
  4292 000028C2 893B                <1>  mov DWORD  [ ebx],edi
  4293                              <1> ;39
  4294 000028C4 8B5DF4              <1>  mov ebx,DWORD  [  ebp+     -12]
  4295 000028C7 8B7DF8              <1>  mov edi,DWORD  [  ebp+     -8]
  4296 000028CA 897B04              <1>  mov DWORD  [  ebx+     4],edi
  4297                              <1> ;40
  4298 000028CD 8B5DF4              <1>  mov ebx,DWORD  [  ebp+     -12]
  4299 000028D0 891D[24000000]      <1>  mov DWORD  [  lea9d316fb832c+    -8],ebx
  4300                              <1> ;41
  4301 000028D6 6805000000          <1>  push DWORD      5
  4302 000028DB 680C000000          <1>  push DWORD      12
  4303 000028E0 FF75F8              <1>  push DWORD  [  ebp+     -8]
  4304 000028E3 6800000000          <1>  push DWORD      0
  4305                              <1> 	EXTERN _printint
  4306 000028E8 E8(00000000)        <1>  call _printint; imported
  4307 000028ED 81C410000000        <1>  add esp, 16
  4308                              <1> ;42
  4309 000028F3 FF45F8              <1>  inc DWORD  [  ebp+     -8]
  4310 000028F6 E999FFFFFF          <1>  jmp  lea9d317850345
  4311                              <1>  lea9d317850346:
  4312                              <1> ;43
  4313 000028FB 6805000000          <1>  push DWORD      5
  4314 00002900 680C000000          <1>  push DWORD      12
  4315 00002905 68[DA040000]        <1>  push DWORD  lea9d31762a33d
  4316 0000290A 6800000000          <1>  push DWORD      0
  4317                              <1> 	EXTERN _printstring
  4318 0000290F E8(00000000)        <1>  call _printstring; imported
  4319 00002914 81C410000000        <1>  add esp, 16
  4320 0000291A 6800000000          <1>  push DWORD      0
  4321                              <1> 	EXTERN _println
  4322 0000291F E8(00000000)        <1>  call _println; imported
  4323 00002924 81C404000000        <1>  add esp, 4
  4324                              <1> ;56
  4325                              <1>  lea9d31762a33e:
  4326 0000292A 8B1D[24000000]      <1>  mov ebx,DWORD  [  lea9d316fb832c+    -8]
  4327 00002930 81FB00000000        <1>  cmp ebx,DWORD  0
  4328 00002936 0F95C3              <1>  setnz bl
  4329 00002939 D0CB                <1>  ror bl,1
  4330 0000293B C0FB07              <1>  sar bl,7
  4331 0000293E F6D3                <1>  not BYTE bl
  4332 00002940 20DB                <1>  and bl,bl
  4333 00002942 0F85B2000000        <1>  jnz near lea9d31762a33f
  4334                              <1> ;46
  4335 00002948 8B1D[24000000]      <1>  mov ebx,DWORD  [  lea9d316fb832c+    -8]
  4336 0000294E 895DF4              <1>  mov DWORD  [  ebp+     -12],ebx
  4337                              <1> ;51
  4338                              <1> ;49
  4339 00002951 6805000000          <1>  push DWORD      5
  4340 00002956 680C000000          <1>  push DWORD      12
  4341 0000295B 8B1D[24000000]      <1>  mov ebx,DWORD  [  lea9d316fb832c+    -8]
  4342 00002961 FF7304              <1>  push DWORD  [  ebx+     4]
  4343 00002964 6800000000          <1>  push DWORD      0
  4344                              <1> 	EXTERN _printint
  4345 00002969 E8(00000000)        <1>  call _printint; imported
  4346 0000296E 81C410000000        <1>  add esp, 16
  4347                              <1> ;51
  4348                              <1> ;52
  4349 00002974 8B5DF4              <1>  mov ebx,DWORD  [  ebp+     -12]
  4350 00002977 8B1B                <1>  mov ebx,DWORD  [ ebx]
  4351 00002979 891D[24000000]      <1>  mov DWORD  [  lea9d316fb832c+    -8],ebx
  4352                              <1> ;53
  4353 0000297F 6805000000          <1>  push DWORD      5
  4354 00002984 680C000000          <1>  push DWORD      12
  4355 00002989 68[CA040000]        <1>  push DWORD  lea9d3176d4340
  4356 0000298E 6800000000          <1>  push DWORD      0
  4357                              <1> 	EXTERN _printstring
  4358 00002993 E8(00000000)        <1>  call _printstring; imported
  4359 00002998 81C410000000        <1>  add esp, 16
  4360 0000299E 6800000000          <1>  push DWORD      0
  4361                              <1> 	EXTERN _println
  4362 000029A3 E8(00000000)        <1>  call _println; imported
  4363 000029A8 81C404000000        <1>  add esp, 4
  4364                              <1> ;54
  4365 000029AE 6804000000          <1>  push DWORD      4
  4366 000029B3 55                  <1>  push ebp
  4367 000029B4 810424F4FFFFFF      <1>  add  dword[esp] ,     -12
  4368                              <1> 	EXTERN _freemem
  4369 000029BB E8(00000000)        <1>  call _freemem; imported
  4370 000029C0 81C408000000        <1>  add esp, 8
  4371                              <1> ;55
  4372 000029C6 6805000000          <1>  push DWORD      5
  4373 000029CB 680C000000          <1>  push DWORD      12
  4374 000029D0 68[BF040000]        <1>  push DWORD  lea9d3176d4341
  4375 000029D5 6800000000          <1>  push DWORD      0
  4376                              <1> 	EXTERN _printstring
  4377 000029DA E8(00000000)        <1>  call _printstring; imported
  4378 000029DF 81C410000000        <1>  add esp, 16
  4379 000029E5 6800000000          <1>  push DWORD      0
  4380                              <1> 	EXTERN _println
  4381 000029EA E8(00000000)        <1>  call _println; imported
  4382 000029EF 81C404000000        <1>  add esp, 4
  4383                              <1> ;56
  4384 000029F5 E930FFFFFF          <1>  jmp  lea9d31762a33e
  4385                              <1>  lea9d31762a33f:
  4386                              <1> ;57
  4387 000029FA 6805000000          <1>  push DWORD      5
  4388 000029FF 680C000000          <1>  push DWORD      12
  4389 00002A04 68[B0040000]        <1>  push DWORD  lea9d3176d4342
  4390 00002A09 6800000000          <1>  push DWORD      0
  4391                              <1> 	EXTERN _printstring
  4392 00002A0E E8(00000000)        <1>  call _printstring; imported
  4393 00002A13 81C410000000        <1>  add esp, 16
  4394 00002A19 6800000000          <1>  push DWORD      0
  4395                              <1> 	EXTERN _println
  4396 00002A1E E8(00000000)        <1>  call _println; imported
  4397 00002A23 81C404000000        <1>  add esp, 4
  4398                              <1> ;58
  4399                              <1>  lea9d3175f833c:
  4400                              <1> spacefordoheaptest equ 16
  4401                              <1> doheaptestexit:
  4402 00002A29 C9                  <1> leave
  4403 00002A2A C20000              <1>  ret 0
  4404                              <1> section .text  
  4405                              <1> ; procedure generated by code generator class ilcg.tree.PentiumCG
  4406                              <1> ; Walker version 0.43255946
  4407                              <1> lea9d31758a332:
  4408                              <1> ;	 gctest
  4409 00002A2D C8100001            <1>  enter   spaceforgctest-4*1,1
  4410                              <1> ;27
  4411 00002A31 C745F401000000      <1>  mov DWORD  [  ebp+     -12],     1
  4412                              <1>  lea9d317a76353:
  4413 00002A38 817DF490010000      <1>  cmp DWORD  [  ebp+     -12],      400
  4414 00002A3F 0F8F37010000        <1>  jg near  lea9d317a76354
  4415                              <1> ;24
  4416 00002A45 6820A10700          <1>  push DWORD      500000
  4417 00002A4A 55                  <1>  push ebp
  4418 00002A4B 810424F8FFFFFF      <1>  add  dword[esp] ,     -8
  4419                              <1> 	EXTERN _getmem
  4420 00002A52 E8(00000000)        <1>  call _getmem; imported
  4421 00002A57 81C408000000        <1>  add esp, 8
  4422                              <1> ;25
  4423 00002A5D 8B45F4              <1>  mov eax,DWORD  [  ebp+     -12]
  4424 00002A60 B90A000000          <1>  mov DWORD ecx,     10
  4425 00002A65 52                  <1>  push edx
  4426 00002A66 31D2                <1>  xor edx,edx
  4427 00002A68 F7F9                <1>  idiv   ecx
  4428 00002A6A 871424              <1>  xchg edx,dword[esp]
  4429 00002A6D 5B                  <1>  pop dword ebx
  4430 00002A6E 895DF0              <1>  mov DWORD  [  ebp+     -16],ebx
  4431                              <1> ;26
  4432 00002A71 817DF000000000      <1>  cmp DWORD  [  ebp+     -16],      0
  4433 00002A78 0F8405000000        <1>  jz near  lea9d317b84356
  4434 00002A7E E958000000          <1>  jmp  lea9d317b84357
  4435                              <1>  lea9d317b84356:
  4436 00002A83 6805000000          <1>  push DWORD      5
  4437 00002A88 680C000000          <1>  push DWORD      12
  4438 00002A8D FF75F4              <1>  push DWORD  [  ebp+     -12]
  4439 00002A90 870424              <1>  xchg eax,dword[esp]
  4440 00002A93 69C020A10700        <1>  imul eax ,     500000
  4441 00002A99 870424              <1>  xchg eax,dword[esp]
  4442 00002A9C 6800000000          <1>  push DWORD      0
  4443                              <1> 	EXTERN _printint
  4444 00002AA1 E8(00000000)        <1>  call _printint; imported
  4445 00002AA6 81C410000000        <1>  add esp, 16
  4446 00002AAC 6805000000          <1>  push DWORD      5
  4447 00002AB1 680C000000          <1>  push DWORD      12
  4448 00002AB6 68[E9040000]        <1>  push DWORD  lea9d3175f8338
  4449 00002ABB 6800000000          <1>  push DWORD      0
  4450                              <1> 	EXTERN _printstring
  4451 00002AC0 E8(00000000)        <1>  call _printstring; imported
  4452 00002AC5 81C410000000        <1>  add esp, 16
  4453 00002ACB 6800000000          <1>  push DWORD      0
  4454                              <1> 	EXTERN _println
  4455 00002AD0 E8(00000000)        <1>  call _println; imported
  4456 00002AD5 81C404000000        <1>  add esp, 4
  4457                              <1>  lea9d317b84357:
  4458                              <1> ;27
  4459 00002ADB FF45F4              <1>  inc DWORD  [  ebp+     -12]
  4460                              <1> ;24
  4461 00002ADE 6820A10700          <1>  push DWORD      500000
  4462 00002AE3 55                  <1>  push ebp
  4463 00002AE4 810424F8FFFFFF      <1>  add  dword[esp] ,     -8
  4464                              <1> 	EXTERN _getmem
  4465 00002AEB E8(00000000)        <1>  call _getmem; imported
  4466 00002AF0 81C408000000        <1>  add esp, 8
  4467                              <1> ;25
  4468 00002AF6 8B45F4              <1>  mov eax,DWORD  [  ebp+     -12]
  4469 00002AF9 B90A000000          <1>  mov DWORD ecx,     10
  4470 00002AFE 52                  <1>  push edx
  4471 00002AFF 31D2                <1>  xor edx,edx
  4472 00002B01 F7F9                <1>  idiv   ecx
  4473 00002B03 871424              <1>  xchg edx,dword[esp]
  4474 00002B06 5B                  <1>  pop dword ebx
  4475 00002B07 895DF0              <1>  mov DWORD  [  ebp+     -16],ebx
  4476                              <1> ;26
  4477 00002B0A 817DF000000000      <1>  cmp DWORD  [  ebp+     -16],      0
  4478 00002B11 0F8405000000        <1>  jz near  lea9d317bf235c
  4479 00002B17 E958000000          <1>  jmp  lea9d317bf235d
  4480                              <1>  lea9d317bf235c:
  4481 00002B1C 6805000000          <1>  push DWORD      5
  4482 00002B21 680C000000          <1>  push DWORD      12
  4483 00002B26 FF75F4              <1>  push DWORD  [  ebp+     -12]
  4484 00002B29 870424              <1>  xchg eax,dword[esp]
  4485 00002B2C 69C020A10700        <1>  imul eax ,     500000
  4486 00002B32 870424              <1>  xchg eax,dword[esp]
  4487 00002B35 6800000000          <1>  push DWORD      0
  4488                              <1> 	EXTERN _printint
  4489 00002B3A E8(00000000)        <1>  call _printint; imported
  4490 00002B3F 81C410000000        <1>  add esp, 16
  4491 00002B45 6805000000          <1>  push DWORD      5
  4492 00002B4A 680C000000          <1>  push DWORD      12
  4493 00002B4F 68[E9040000]        <1>  push DWORD  lea9d3175f8338
  4494 00002B54 6800000000          <1>  push DWORD      0
  4495                              <1> 	EXTERN _printstring
  4496 00002B59 E8(00000000)        <1>  call _printstring; imported
  4497 00002B5E 81C410000000        <1>  add esp, 16
  4498 00002B64 6800000000          <1>  push DWORD      0
  4499                              <1> 	EXTERN _println
  4500 00002B69 E8(00000000)        <1>  call _println; imported
  4501 00002B6E 81C404000000        <1>  add esp, 4
  4502                              <1>  lea9d317bf235d:
  4503                              <1> ;27
  4504 00002B74 FF45F4              <1>  inc DWORD  [  ebp+     -12]
  4505 00002B77 E9BCFEFFFF          <1>  jmp  lea9d317a76353
  4506                              <1>  lea9d317a76354:
  4507                              <1> ;28
  4508                              <1>  lea9d3175bc337:
  4509                              <1> spaceforgctest equ 20
  4510                              <1> gctestexit:
  4511 00002B7C C9                  <1> leave
  4512 00002B7D C20000              <1>  ret 0
  4513                              <1> section .text  
  4514                              <1> ; procedure generated by code generator class ilcg.tree.PentiumCG
  4515                              <1> ; Walker version 0.43255946
  4516                              <1> lea9d3177b0343:
  4517                              <1> ;	 unit$heaptest
  4518                              <1> unit$heaptest:
  4519 00002B80 C8000000            <1>  enter  0,0
  4520 00002B84 E80BDFFFFF          <1>  call unit$system
  4521 00002B89 803D[9E040000]01    <1> cmp byte[unit$heaptestready],1
  4522 00002B90 7505                <1>  jnz unit$heaptestinit
  4523 00002B92 E907000000          <1>  jmp unit$heaptestexit
  4524 00002B97 C605[9E040000]01    <1> unit$heaptestinit:mov byte[unit$heaptestready],1
  4525                              <1> ;61
  4526                              <1>  lea9d31758a333:
  4527                              <1> spaceforunit$heaptest equ 12
  4528                              <1> unit$heaptestexit:
  4529 00002B9E C9                  <1> leave
  4530 00002B9F C20000              <1>  ret 0
  4531                              <1> 	SECTION .bss
  4532 00000020 <res 0000000C>      <1> resb spaceforunit$heaptest
  4533                              <1>  lea9d316fb832c:
  4534                              <1> 	SECTION .data
  4535 0000049E 00000000            <1> unit$heaptestready dd 0
  4536 000004A2 90<rept>            <1>  align 16
  4537                              <1>  lea9d3176d4342:
  4538 000004B0 0D                  <1>  db  13
  4539 000004B1 68                  <1>  db  104
  4540 000004B2 65                  <1>  db  101
  4541 000004B3 61                  <1>  db  97
  4542 000004B4 70                  <1>  db  112
  4543 000004B5 74                  <1>  db  116
  4544 000004B6 65                  <1>  db  101
  4545 000004B7 73                  <1>  db  115
  4546 000004B8 74                  <1>  db  116
  4547 000004B9 20                  <1>  db  32
  4548 000004BA 64                  <1>  db  100
  4549 000004BB 6F                  <1>  db  111
  4550 000004BC 6E                  <1>  db  110
  4551 000004BD 65                  <1>  db  101
  4552 000004BE 00                  <1>  db  0
  4553                              <1>  lea9d3176d4341:
  4554 000004BF 09                  <1>  db  9
  4555 000004C0 20                  <1>  db  32
  4556 000004C1 64                  <1>  db  100
  4557 000004C2 69                  <1>  db  105
  4558 000004C3 73                  <1>  db  115
  4559 000004C4 70                  <1>  db  112
  4560 000004C5 6F                  <1>  db  111
  4561 000004C6 73                  <1>  db  115
  4562 000004C7 65                  <1>  db  101
  4563 000004C8 64                  <1>  db  100
  4564 000004C9 00                  <1>  db  0
  4565                              <1>  lea9d3176d4340:
  4566 000004CA 0E                  <1>  db  14
  4567 000004CB 20                  <1>  db  32
  4568 000004CC 6D                  <1>  db  109
  4569 000004CD 6F                  <1>  db  111
  4570 000004CE 76                  <1>  db  118
  4571 000004CF 65                  <1>  db  101
  4572 000004D0 64                  <1>  db  100
  4573 000004D1 20                  <1>  db  32
  4574 000004D2 74                  <1>  db  116
  4575 000004D3 6F                  <1>  db  111
  4576 000004D4 20                  <1>  db  32
  4577 000004D5 6E                  <1>  db  110
  4578 000004D6 65                  <1>  db  101
  4579 000004D7 78                  <1>  db  120
  4580 000004D8 74                  <1>  db  116
  4581 000004D9 00                  <1>  db  0
  4582                              <1>  lea9d31762a33d:
  4583 000004DA 0D                  <1>  db  13
  4584 000004DB 74                  <1>  db  116
  4585 000004DC 72                  <1>  db  114
  4586 000004DD 61                  <1>  db  97
  4587 000004DE 76                  <1>  db  118
  4588 000004DF 65                  <1>  db  101
  4589 000004E0 72                  <1>  db  114
  4590 000004E1 73                  <1>  db  115
  4591 000004E2 65                  <1>  db  101
  4592 000004E3 20                  <1>  db  32
  4593 000004E4 6C                  <1>  db  108
  4594 000004E5 69                  <1>  db  105
  4595 000004E6 73                  <1>  db  115
  4596 000004E7 74                  <1>  db  116
  4597 000004E8 00                  <1>  db  0
  4598                              <1>  lea9d3175f8338:
  4599 000004E9 11                  <1>  db  17
  4600 000004EA 4D                  <1>  db  77
  4601 000004EB 20                  <1>  db  32
  4602 000004EC 62                  <1>  db  98
  4603 000004ED 79                  <1>  db  121
  4604 000004EE 74                  <1>  db  116
  4605 000004EF 65                  <1>  db  101
  4606 000004F0 73                  <1>  db  115
  4607 000004F1 20                  <1>  db  32
  4608 000004F2 61                  <1>  db  97
  4609 000004F3 6C                  <1>  db  108
  4610 000004F4 6C                  <1>  db  108
  4611 000004F5 6F                  <1>  db  111
  4612 000004F6 63                  <1>  db  99
  4613 000004F7 61                  <1>  db  97
  4614 000004F8 74                  <1>  db  116
  4615 000004F9 65                  <1>  db  101
  4616 000004FA 64                  <1>  db  100
  4617 000004FB 00                  <1>  db  0
  4618                              <1> %endif
  4619                                  %include "./iotest.asm"
  4620                              <1> %ifndef iotest
  4621                              <1> %define iotest
  4622                              <1> section .text  
  4623                              <1> ; procedure generated by code generator class ilcg.tree.PentiumCG
  4624                              <1> ; Walker version 0.43255946
  4625                              <1> lea9d318340365:
  4626                              <1> ;	 iotests
  4627 00002BA2 C80C0201            <1>  enter   spaceforiotests-4*1,1
  4628                              <1> ;15
  4629 00002BA6 6805000000          <1>  push DWORD      5
  4630 00002BAB 680C000000          <1>  push DWORD      12
  4631 00002BB0 68[9D050000]        <1>  push DWORD  lea9d3183ea370
  4632 00002BB5 6800000000          <1>  push DWORD      0
  4633                              <1> 	EXTERN _printstring
  4634 00002BBA E8(00000000)        <1>  call _printstring; imported
  4635 00002BBF 81C410000000        <1>  add esp, 16
  4636 00002BC5 6800000000          <1>  push DWORD      0
  4637                              <1> 	EXTERN _println
  4638 00002BCA E8(00000000)        <1>  call _println; imported
  4639 00002BCF 81C404000000        <1>  add esp, 4
  4640                              <1> ;16
  4641 00002BD5 6805000000          <1>  push DWORD      5
  4642 00002BDA 680C000000          <1>  push DWORD      12
  4643 00002BDF 68[95050000]        <1>  push DWORD  lea9d3183ea371
  4644 00002BE4 6800000000          <1>  push DWORD      0
  4645                              <1> 	EXTERN _printstring
  4646 00002BE9 E8(00000000)        <1>  call _printstring; imported
  4647 00002BEE 81C410000000        <1>  add esp, 16
  4648 00002BF4 6805000000          <1>  push DWORD      5
  4649 00002BF9 680C000000          <1>  push DWORD      12
  4650 00002BFE 687A000000          <1>  push DWORD      122
  4651 00002C03 6800000000          <1>  push DWORD      0
  4652                              <1> 	EXTERN _printchar
  4653 00002C08 E8(00000000)        <1>  call _printchar; imported
  4654 00002C0D 81C410000000        <1>  add esp, 16
  4655 00002C13 6800000000          <1>  push DWORD      0
  4656                              <1> 	EXTERN _println
  4657 00002C18 E8(00000000)        <1>  call _println; imported
  4658 00002C1D 81C404000000        <1>  add esp, 4
  4659                              <1> ;17
  4660 00002C23 C685F7FDFFFF00      <1>  mov BYTE  [  ebp+     -521],  0
  4661                              <1>  lea9d31864237f:
  4662 00002C2A 80BDF7FDFFFF03      <1>  cmp BYTE  [  ebp+     -521],   3
  4663 00002C31 0F8FCB000000        <1>  jg near  lea9d318642380
  4664 00002C37 6805000000          <1>  push DWORD      5
  4665 00002C3C 680C000000          <1>  push DWORD      12
  4666 00002C41 8A9DF7FDFFFF        <1>  mov bl,BYTE  [  ebp+     -521]
  4667 00002C47 0FBEDB              <1>  movsx ebx,byte   bl
  4668 00002C4A 53                  <1>  push ebx
  4669 00002C4B 6800000000          <1>  push DWORD      0
  4670                              <1> 	EXTERN _printint
  4671 00002C50 E8(00000000)        <1>  call _printint; imported
  4672 00002C55 81C410000000        <1>  add esp, 16
  4673 00002C5B 68[C3050000]        <1>  push DWORD  lea9d31837c36b
  4674 00002C60 6805000000          <1>  push DWORD      5
  4675 00002C65 680C000000          <1>  push DWORD      12
  4676 00002C6A 8A9DF7FDFFFF        <1>  mov bl,BYTE  [  ebp+     -521]
  4677 00002C70 0FBEDB              <1>  movsx ebx,byte   bl
  4678 00002C73 53                  <1>  push ebx
  4679 00002C74 6800000000          <1>  push DWORD      0
  4680                              <1> 	EXTERN _printordinal
  4681 00002C79 E8(00000000)        <1>  call _printordinal; imported
  4682 00002C7E 81C414000000        <1>  add esp, 20
  4683 00002C84 6800000000          <1>  push DWORD      0
  4684                              <1> 	EXTERN _println
  4685 00002C89 E8(00000000)        <1>  call _println; imported
  4686 00002C8E 81C404000000        <1>  add esp, 4
  4687 00002C94 FE85F7FDFFFF        <1>  inc BYTE  [  ebp+     -521]
  4688 00002C9A 6805000000          <1>  push DWORD      5
  4689 00002C9F 680C000000          <1>  push DWORD      12
  4690 00002CA4 8A9DF7FDFFFF        <1>  mov bl,BYTE  [  ebp+     -521]
  4691 00002CAA 0FBEDB              <1>  movsx ebx,byte   bl
  4692 00002CAD 53                  <1>  push ebx
  4693 00002CAE 6800000000          <1>  push DWORD      0
  4694                              <1> 	EXTERN _printint
  4695 00002CB3 E8(00000000)        <1>  call _printint; imported
  4696 00002CB8 81C410000000        <1>  add esp, 16
  4697 00002CBE 68[C3050000]        <1>  push DWORD  lea9d31837c36b
  4698 00002CC3 6805000000          <1>  push DWORD      5
  4699 00002CC8 680C000000          <1>  push DWORD      12
  4700 00002CCD 8A9DF7FDFFFF        <1>  mov bl,BYTE  [  ebp+     -521]
  4701 00002CD3 0FBEDB              <1>  movsx ebx,byte   bl
  4702 00002CD6 53                  <1>  push ebx
  4703 00002CD7 6800000000          <1>  push DWORD      0
  4704                              <1> 	EXTERN _printordinal
  4705 00002CDC E8(00000000)        <1>  call _printordinal; imported
  4706 00002CE1 81C414000000        <1>  add esp, 20
  4707 00002CE7 6800000000          <1>  push DWORD      0
  4708                              <1> 	EXTERN _println
  4709 00002CEC E8(00000000)        <1>  call _println; imported
  4710 00002CF1 81C404000000        <1>  add esp, 4
  4711 00002CF7 FE85F7FDFFFF        <1>  inc BYTE  [  ebp+     -521]
  4712 00002CFD E928FFFFFF          <1>  jmp  lea9d31864237f
  4713                              <1>  lea9d318642380:
  4714                              <1> ;18
  4715 00002D02 6805000000          <1>  push DWORD      5
  4716 00002D07 680C000000          <1>  push DWORD      12
  4717 00002D0C 68[70050000]        <1>  push DWORD  lea9d3183ea372
  4718 00002D11 6800000000          <1>  push DWORD      0
  4719                              <1> 	EXTERN _printstring
  4720 00002D16 E8(00000000)        <1>  call _printstring; imported
  4721 00002D1B 81C410000000        <1>  add esp, 16
  4722 00002D21 6800000000          <1>  push DWORD      0
  4723                              <1> 	EXTERN _println
  4724 00002D26 E8(00000000)        <1>  call _println; imported
  4725 00002D2B 81C404000000        <1>  add esp, 4
  4726                              <1> ;19
  4727 00002D31 6805000000          <1>  push DWORD      5
  4728 00002D36 680C000000          <1>  push DWORD      12
  4729 00002D3B 68[51050000]        <1>  push DWORD  lea9d3183ea373
  4730 00002D40 6800000000          <1>  push DWORD      0
  4731                              <1> 	EXTERN _printstring
  4732 00002D45 E8(00000000)        <1>  call _printstring; imported
  4733 00002D4A 81C410000000        <1>  add esp, 16
  4734                              <1> ;19
  4735 00002D50 6804000000          <1>  push DWORD      4
  4736 00002D55 68[C3050000]        <1>  push DWORD  lea9d31837c36b
  4737 00002D5A 55                  <1>  push ebp
  4738 00002D5B 810424F7FDFFFF      <1>  add  dword[esp] ,     -521
  4739 00002D62 6800000000          <1>  push DWORD      0
  4740                              <1> 	EXTERN _readordinal
  4741 00002D67 E8(00000000)        <1>  call _readordinal; imported
  4742 00002D6C 81C410000000        <1>  add esp, 16
  4743 00002D72 6800000000          <1>  push DWORD      0
  4744                              <1> 	EXTERN _readline
  4745 00002D77 E8(00000000)        <1>  call _readline; imported
  4746 00002D7C 81C404000000        <1>  add esp, 4
  4747                              <1> ;20
  4748 00002D82 68[C3050000]        <1>  push DWORD  lea9d31837c36b
  4749 00002D87 6805000000          <1>  push DWORD      5
  4750 00002D8C 680C000000          <1>  push DWORD      12
  4751 00002D91 8A9DF7FDFFFF        <1>  mov bl,BYTE  [  ebp+     -521]
  4752 00002D97 0FBEDB              <1>  movsx ebx,byte   bl
  4753 00002D9A 53                  <1>  push ebx
  4754 00002D9B 6800000000          <1>  push DWORD      0
  4755                              <1> 	EXTERN _printordinal
  4756 00002DA0 E8(00000000)        <1>  call _printordinal; imported
  4757 00002DA5 81C414000000        <1>  add esp, 20
  4758 00002DAB 6800000000          <1>  push DWORD      0
  4759                              <1> 	EXTERN _println
  4760 00002DB0 E8(00000000)        <1>  call _println; imported
  4761 00002DB5 81C404000000        <1>  add esp, 4
  4762                              <1> ;21
  4763 00002DBB 6805000000          <1>  push DWORD      5
  4764 00002DC0 680C000000          <1>  push DWORD      12
  4765 00002DC5 68[42050000]        <1>  push DWORD  lea9d3183ea374
  4766 00002DCA 6800000000          <1>  push DWORD      0
  4767                              <1> 	EXTERN _printstring
  4768 00002DCF E8(00000000)        <1>  call _printstring; imported
  4769 00002DD4 81C410000000        <1>  add esp, 16
  4770                              <1> ;21
  4771 00002DDA 55                  <1>  push ebp
  4772 00002DDB 810424F8FFFFFF      <1>  add  dword[esp] ,     -8
  4773 00002DE2 6800000000          <1>  push DWORD      0
  4774                              <1> 	EXTERN _readreal
  4775 00002DE7 E8(00000000)        <1>  call _readreal; imported
  4776 00002DEC 81C408000000        <1>  add esp, 8
  4777 00002DF2 6800000000          <1>  push DWORD      0
  4778                              <1> 	EXTERN _readline
  4779 00002DF7 E8(00000000)        <1>  call _readline; imported
  4780 00002DFC 81C404000000        <1>  add esp, 4
  4781                              <1> ;22
  4782 00002E02 6805000000          <1>  push DWORD      5
  4783 00002E07 680C000000          <1>  push DWORD      12
  4784 00002E0C FF75F8              <1>  push DWORD  [  ebp+     -8]
  4785 00002E0F 6800000000          <1>  push DWORD      0
  4786                              <1> 	EXTERN _printreal
  4787 00002E14 E8(00000000)        <1>  call _printreal; imported
  4788 00002E19 81C410000000        <1>  add esp, 16
  4789 00002E1F 6800000000          <1>  push DWORD      0
  4790                              <1> 	EXTERN _println
  4791 00002E24 E8(00000000)        <1>  call _println; imported
  4792 00002E29 81C404000000        <1>  add esp, 4
  4793                              <1> ;23
  4794 00002E2F 6805000000          <1>  push DWORD      5
  4795 00002E34 680C000000          <1>  push DWORD      12
  4796 00002E39 68[21050000]        <1>  push DWORD  lea9d31841c375
  4797 00002E3E 6800000000          <1>  push DWORD      0
  4798                              <1> 	EXTERN _printstring
  4799 00002E43 E8(00000000)        <1>  call _printstring; imported
  4800 00002E48 81C410000000        <1>  add esp, 16
  4801                              <1> ;23
  4802 00002E4E 55                  <1>  push ebp
  4803 00002E4F 810424F4FFFFFF      <1>  add  dword[esp] ,     -12
  4804 00002E56 6800000000          <1>  push DWORD      0
  4805                              <1> 	EXTERN _readint
  4806 00002E5B E8(00000000)        <1>  call _readint; imported
  4807 00002E60 81C408000000        <1>  add esp, 8
  4808 00002E66 55                  <1>  push ebp
  4809 00002E67 810424FFFDFFFF      <1>  add  dword[esp] ,     -513
  4810 00002E6E 6800000000          <1>  push DWORD      0
  4811                              <1> 	EXTERN _readbool
  4812 00002E73 E8(00000000)        <1>  call _readbool; imported
  4813 00002E78 81C408000000        <1>  add esp, 8
  4814 00002E7E 6800000000          <1>  push DWORD      0
  4815                              <1> 	EXTERN _readline
  4816 00002E83 E8(00000000)        <1>  call _readline; imported
  4817 00002E88 81C404000000        <1>  add esp, 4
  4818                              <1> ;24
  4819 00002E8E 6805000000          <1>  push DWORD      5
  4820 00002E93 680C000000          <1>  push DWORD      12
  4821 00002E98 FF75F4              <1>  push DWORD  [  ebp+     -12]
  4822 00002E9B 6800000000          <1>  push DWORD      0
  4823                              <1> 	EXTERN _printint
  4824 00002EA0 E8(00000000)        <1>  call _printint; imported
  4825 00002EA5 81C410000000        <1>  add esp, 16
  4826 00002EAB 6805000000          <1>  push DWORD      5
  4827 00002EB0 680C000000          <1>  push DWORD      12
  4828 00002EB5 FFB5FFFDFFFF        <1>  push DWORD  [  ebp+     -513]
  4829 00002EBB 6800000000          <1>  push DWORD      0
  4830                              <1> 	EXTERN _printbool
  4831 00002EC0 E8(00000000)        <1>  call _printbool; imported
  4832 00002EC5 81C410000000        <1>  add esp, 16
  4833 00002ECB 6800000000          <1>  push DWORD      0
  4834                              <1> 	EXTERN _println
  4835 00002ED0 E8(00000000)        <1>  call _println; imported
  4836 00002ED5 81C404000000        <1>  add esp, 4
  4837                              <1> ;25
  4838 00002EDB 6805000000          <1>  push DWORD      5
  4839 00002EE0 680C000000          <1>  push DWORD      12
  4840 00002EE5 68[0D050000]        <1>  push DWORD  lea9d31841c376
  4841 00002EEA 6800000000          <1>  push DWORD      0
  4842                              <1> 	EXTERN _printstring
  4843 00002EEF E8(00000000)        <1>  call _printstring; imported
  4844 00002EF4 81C410000000        <1>  add esp, 16
  4845 00002EFA 6800000000          <1>  push DWORD      0
  4846                              <1> 	EXTERN _println
  4847 00002EFF E8(00000000)        <1>  call _println; imported
  4848 00002F04 81C404000000        <1>  add esp, 4
  4849                              <1> ;26
  4850 00002F0A 6805000000          <1>  push DWORD      5
  4851 00002F0F 6804000000          <1>  push DWORD      4
  4852 00002F14 FF75F4              <1>  push DWORD  [  ebp+     -12]
  4853 00002F17 6800000000          <1>  push DWORD      0
  4854                              <1> 	EXTERN _printint
  4855 00002F1C E8(00000000)        <1>  call _printint; imported
  4856 00002F21 81C410000000        <1>  add esp, 16
  4857 00002F27 6805000000          <1>  push DWORD      5
  4858 00002F2C 680C000000          <1>  push DWORD      12
  4859 00002F31 FF75F8              <1>  push DWORD  [  ebp+     -8]
  4860 00002F34 6800000000          <1>  push DWORD      0
  4861                              <1> 	EXTERN _printreal
  4862 00002F39 E8(00000000)        <1>  call _printreal; imported
  4863 00002F3E 81C410000000        <1>  add esp, 16
  4864 00002F44 6801000000          <1>  push DWORD      1
  4865 00002F49 6808000000          <1>  push DWORD      8
  4866 00002F4E FF75F8              <1>  push DWORD  [  ebp+     -8]
  4867 00002F51 6800000000          <1>  push DWORD      0
  4868                              <1> 	EXTERN _printreal
  4869 00002F56 E8(00000000)        <1>  call _printreal; imported
  4870 00002F5B 81C410000000        <1>  add esp, 16
  4871 00002F61 6802000000          <1>  push DWORD      2
  4872 00002F66 6806000000          <1>  push DWORD      6
  4873 00002F6B FF75F8              <1>  push DWORD  [  ebp+     -8]
  4874 00002F6E 6800000000          <1>  push DWORD      0
  4875                              <1> 	EXTERN _printreal
  4876 00002F73 E8(00000000)        <1>  call _printreal; imported
  4877 00002F78 81C410000000        <1>  add esp, 16
  4878 00002F7E 6800000000          <1>  push DWORD      0
  4879                              <1> 	EXTERN _println
  4880 00002F83 E8(00000000)        <1>  call _println; imported
  4881 00002F88 81C404000000        <1>  add esp, 4
  4882                              <1> ;27
  4883 00002F8E 68[00050000]        <1>  push DWORD  lea9d318458377
  4884 00002F93 68FF000000          <1>  push DWORD      255
  4885 00002F98 55                  <1>  push ebp
  4886 00002F99 81042400FEFFFF      <1>  add  dword[esp] ,     -512
  4887                              <1> 	EXTERN _stringassign
  4888 00002FA0 E8(00000000)        <1>  call _stringassign; imported
  4889 00002FA5 81C40C000000        <1>  add esp, 12
  4890                              <1> ;28
  4891 00002FAB 6805000000          <1>  push DWORD      5
  4892 00002FB0 680C000000          <1>  push DWORD      12
  4893 00002FB5 55                  <1>  push ebp
  4894 00002FB6 81042400FEFFFF      <1>  add  dword[esp] ,     -512
  4895 00002FBD 6800000000          <1>  push DWORD      0
  4896                              <1> 	EXTERN _printstring
  4897 00002FC2 E8(00000000)        <1>  call _printstring; imported
  4898 00002FC7 81C410000000        <1>  add esp, 16
  4899                              <1> ;28
  4900 00002FCD 6800010000          <1>  push DWORD      256
  4901 00002FD2 55                  <1>  push ebp
  4902 00002FD3 81042400FEFFFF      <1>  add  dword[esp] ,     -512
  4903 00002FDA 6800000000          <1>  push DWORD      0
  4904                              <1> 	EXTERN _readstring
  4905 00002FDF E8(00000000)        <1>  call _readstring; imported
  4906 00002FE4 81C40C000000        <1>  add esp, 12
  4907 00002FEA 6800000000          <1>  push DWORD      0
  4908                              <1> 	EXTERN _readline
  4909 00002FEF E8(00000000)        <1>  call _readline; imported
  4910 00002FF4 81C404000000        <1>  add esp, 4
  4911                              <1> ;29
  4912 00002FFA 6805000000          <1>  push DWORD      5
  4913 00002FFF 680C000000          <1>  push DWORD      12
  4914 00003004 55                  <1>  push ebp
  4915 00003005 81042400FEFFFF      <1>  add  dword[esp] ,     -512
  4916 0000300C 6800000000          <1>  push DWORD      0
  4917                              <1> 	EXTERN _printstring
  4918 00003011 E8(00000000)        <1>  call _printstring; imported
  4919 00003016 81C410000000        <1>  add esp, 16
  4920                              <1> ;30
  4921 0000301C 55                  <1>  push ebp
  4922 0000301D 81042400FEFFFF      <1>  add  dword[esp] ,     -512
  4923 00003024 55                  <1>  push ebp
  4924 00003025 810424F8FDFFFF      <1>  add  dword[esp] ,     -520
  4925                              <1> 	EXTERN _assign
  4926 0000302C E8(00000000)        <1>  call _assign; imported
  4927 00003031 81C408000000        <1>  add esp, 8
  4928                              <1> ;31
  4929 00003037 55                  <1>  push ebp
  4930 00003038 810424F8FDFFFF      <1>  add  dword[esp] ,     -520
  4931                              <1> 	EXTERN _rewrite
  4932 0000303F E8(00000000)        <1>  call _rewrite; imported
  4933 00003044 81C404000000        <1>  add esp, 4
  4934                              <1> ;32
  4935 0000304A 6805000000          <1>  push DWORD      5
  4936 0000304F 680C000000          <1>  push DWORD      12
  4937 00003054 55                  <1>  push ebp
  4938 00003055 81042400FEFFFF      <1>  add  dword[esp] ,     -512
  4939 0000305C FFB5F8FDFFFF        <1>  push DWORD  [  ebp+     -520]
  4940                              <1> 	EXTERN _printstring
  4941 00003062 E8(00000000)        <1>  call _printstring; imported
  4942 00003067 81C410000000        <1>  add esp, 16
  4943 0000306D 6805000000          <1>  push DWORD      5
  4944 00003072 680C000000          <1>  push DWORD      12
  4945 00003077 FF75F4              <1>  push DWORD  [  ebp+     -12]
  4946 0000307A FFB5F8FDFFFF        <1>  push DWORD  [  ebp+     -520]
  4947                              <1> 	EXTERN _printint
  4948 00003080 E8(00000000)        <1>  call _printint; imported
  4949 00003085 81C410000000        <1>  add esp, 16
  4950 0000308B 6805000000          <1>  push DWORD      5
  4951 00003090 680C000000          <1>  push DWORD      12
  4952 00003095 FFB5FFFDFFFF        <1>  push DWORD  [  ebp+     -513]
  4953 0000309B FFB5F8FDFFFF        <1>  push DWORD  [  ebp+     -520]
  4954                              <1> 	EXTERN _printbool
  4955 000030A1 E8(00000000)        <1>  call _printbool; imported
  4956 000030A6 81C410000000        <1>  add esp, 16
  4957 000030AC FFB5F8FDFFFF        <1>  push DWORD  [  ebp+     -520]
  4958                              <1> 	EXTERN _println
  4959 000030B2 E8(00000000)        <1>  call _println; imported
  4960 000030B7 81C404000000        <1>  add esp, 4
  4961                              <1> ;34
  4962                              <1>  lea9d31837c36f:
  4963                              <1> spaceforiotests equ 528
  4964                              <1> iotestsexit:
  4965 000030BD C9                  <1> leave
  4966 000030BE C20000              <1>  ret 0
  4967                              <1> section .text  
  4968                              <1> ; procedure generated by code generator class ilcg.tree.PentiumCG
  4969                              <1> ; Walker version 0.43255946
  4970                              <1> lea9d318566378:
  4971                              <1> ;	 unit$iotest
  4972                              <1> unit$iotest:
  4973 000030C1 C8000000            <1>  enter  0,0
  4974 000030C5 E8CAD9FFFF          <1>  call unit$system
  4975 000030CA 803D[FC040000]01    <1> cmp byte[unit$iotestready],1
  4976 000030D1 7505                <1>  jnz unit$iotestinit
  4977 000030D3 E907000000          <1>  jmp unit$iotestexit
  4978 000030D8 C605[FC040000]01    <1> unit$iotestinit:mov byte[unit$iotestready],1
  4979                              <1> ;36
  4980                              <1>  lea9d31837c366:
  4981                              <1> spaceforunit$iotest equ 4
  4982                              <1> unit$iotestexit:
  4983 000030DF C9                  <1> leave
  4984 000030E0 C20000              <1>  ret 0
  4985                              <1> 	SECTION .bss
  4986 0000002C <res 00000004>      <1> resb spaceforunit$iotest
  4987                              <1>  lea9d317e86362:
  4988                              <1> 	SECTION .data
  4989 000004FC 00000000            <1> unit$iotestready dd 0
  4990                              <1>  align 16
  4991                              <1>  lea9d318458377:
  4992 00000500 0B                  <1>  db  11
  4993 00000501 61                  <1>  db  97
  4994 00000502 20                  <1>  db  32
  4995 00000503 66                  <1>  db  102
  4996 00000504 69                  <1>  db  105
  4997 00000505 6C                  <1>  db  108
  4998 00000506 65                  <1>  db  101
  4999 00000507 20                  <1>  db  32
  5000 00000508 6E                  <1>  db  110
  5001 00000509 61                  <1>  db  97
  5002 0000050A 6D                  <1>  db  109
  5003 0000050B 65                  <1>  db  101
  5004 0000050C 00                  <1>  db  0
  5005                              <1>  lea9d31841c376:
  5006 0000050D 12                  <1>  db  18
  5007 0000050E 69                  <1>  db  105
  5008 0000050F 3A                  <1>  db  58
  5009 00000510 34                  <1>  db  52
  5010 00000511 20                  <1>  db  32
  5011 00000512 72                  <1>  db  114
  5012 00000513 20                  <1>  db  32
  5013 00000514 72                  <1>  db  114
  5014 00000515 3A                  <1>  db  58
  5015 00000516 31                  <1>  db  49
  5016 00000517 34                  <1>  db  52
  5017 00000518 3A                  <1>  db  58
  5018 00000519 31                  <1>  db  49
  5019 0000051A 20                  <1>  db  32
  5020 0000051B 72                  <1>  db  114
  5021 0000051C 3A                  <1>  db  58
  5022 0000051D 36                  <1>  db  54
  5023 0000051E 3A                  <1>  db  58
  5024 0000051F 32                  <1>  db  50
  5025 00000520 00                  <1>  db  0
  5026                              <1>  lea9d31841c375:
  5027 00000521 1F                  <1>  db  31
  5028 00000522 65                  <1>  db  101
  5029 00000523 6E                  <1>  db  110
  5030 00000524 74                  <1>  db  116
  5031 00000525 65                  <1>  db  101
  5032 00000526 72                  <1>  db  114
  5033 00000527 20                  <1>  db  32
  5034 00000528 61                  <1>  db  97
  5035 00000529 6E                  <1>  db  110
  5036 0000052A 20                  <1>  db  32
  5037 0000052B 69                  <1>  db  105
  5038 0000052C 6E                  <1>  db  110
  5039 0000052D 74                  <1>  db  116
  5040 0000052E 65                  <1>  db  101
  5041 0000052F 67                  <1>  db  103
  5042 00000530 65                  <1>  db  101
  5043 00000531 72                  <1>  db  114
  5044 00000532 20                  <1>  db  32
  5045 00000533 74                  <1>  db  116
  5046 00000534 68                  <1>  db  104
  5047 00000535 65                  <1>  db  101
  5048 00000536 6E                  <1>  db  110
  5049 00000537 20                  <1>  db  32
  5050 00000538 61                  <1>  db  97
  5051 00000539 20                  <1>  db  32
  5052 0000053A 62                  <1>  db  98
  5053 0000053B 6F                  <1>  db  111
  5054 0000053C 6F                  <1>  db  111
  5055 0000053D 6C                  <1>  db  108
  5056 0000053E 65                  <1>  db  101
  5057 0000053F 61                  <1>  db  97
  5058 00000540 6E                  <1>  db  110
  5059 00000541 00                  <1>  db  0
  5060                              <1>  lea9d3183ea374:
  5061 00000542 0D                  <1>  db  13
  5062 00000543 65                  <1>  db  101
  5063 00000544 6E                  <1>  db  110
  5064 00000545 74                  <1>  db  116
  5065 00000546 65                  <1>  db  101
  5066 00000547 72                  <1>  db  114
  5067 00000548 20                  <1>  db  32
  5068 00000549 61                  <1>  db  97
  5069 0000054A 20                  <1>  db  32
  5070 0000054B 72                  <1>  db  114
  5071 0000054C 65                  <1>  db  101
  5072 0000054D 61                  <1>  db  97
  5073 0000054E 6C                  <1>  db  108
  5074 0000054F 20                  <1>  db  32
  5075 00000550 00                  <1>  db  0
  5076                              <1>  lea9d3183ea373:
  5077 00000551 1D                  <1>  db  29
  5078 00000552 69                  <1>  db  105
  5079 00000553 6E                  <1>  db  110
  5080 00000554 70                  <1>  db  112
  5081 00000555 75                  <1>  db  117
  5082 00000556 74                  <1>  db  116
  5083 00000557 20                  <1>  db  32
  5084 00000558 74                  <1>  db  116
  5085 00000559 68                  <1>  db  104
  5086 0000055A 65                  <1>  db  101
  5087 0000055B 20                  <1>  db  32
  5088 0000055C 6E                  <1>  db  110
  5089 0000055D 75                  <1>  db  117
  5090 0000055E 6D                  <1>  db  109
  5091 0000055F 62                  <1>  db  98
  5092 00000560 65                  <1>  db  101
  5093 00000561 72                  <1>  db  114
  5094 00000562 20                  <1>  db  32
  5095 00000563 32                  <1>  db  50
  5096 00000564 20                  <1>  db  32
  5097 00000565 69                  <1>  db  105
  5098 00000566 6E                  <1>  db  110
  5099 00000567 20                  <1>  db  32
  5100 00000568 65                  <1>  db  101
  5101 00000569 6E                  <1>  db  110
  5102 0000056A 67                  <1>  db  103
  5103 0000056B 6C                  <1>  db  108
  5104 0000056C 69                  <1>  db  105
  5105 0000056D 73                  <1>  db  115
  5106 0000056E 68                  <1>  db  104
  5107 0000056F 00                  <1>  db  0
  5108                              <1>  lea9d3183ea372:
  5109 00000570 23                  <1>  db  35
  5110 00000571 74                  <1>  db  116
  5111 00000572 65                  <1>  db  101
  5112 00000573 73                  <1>  db  115
  5113 00000574 74                  <1>  db  116
  5114 00000575 69                  <1>  db  105
  5115 00000576 6E                  <1>  db  110
  5116 00000577 67                  <1>  db  103
  5117 00000578 20                  <1>  db  32
  5118 00000579 69                  <1>  db  105
  5119 0000057A 6E                  <1>  db  110
  5120 0000057B 70                  <1>  db  112
  5121 0000057C 75                  <1>  db  117
  5122 0000057D 74                  <1>  db  116
  5123 0000057E 20                  <1>  db  32
  5124 0000057F 6F                  <1>  db  111
  5125 00000580 66                  <1>  db  102
  5126 00000581 20                  <1>  db  32
  5127 00000582 61                  <1>  db  97
  5128 00000583 6E                  <1>  db  110
  5129 00000584 20                  <1>  db  32
  5130 00000585 65                  <1>  db  101
  5131 00000586 6E                  <1>  db  110
  5132 00000587 75                  <1>  db  117
  5133 00000588 6D                  <1>  db  109
  5134 00000589 65                  <1>  db  101
  5135 0000058A 72                  <1>  db  114
  5136 0000058B 61                  <1>  db  97
  5137 0000058C 74                  <1>  db  116
  5138 0000058D 65                  <1>  db  101
  5139 0000058E 64                  <1>  db  100
  5140 0000058F 20                  <1>  db  32
  5141 00000590 74                  <1>  db  116
  5142 00000591 79                  <1>  db  121
  5143 00000592 70                  <1>  db  112
  5144 00000593 65                  <1>  db  101
  5145 00000594 00                  <1>  db  0
  5146                              <1>  lea9d3183ea371:
  5147 00000595 06                  <1>  db  6
  5148 00000596 6F                  <1>  db  111
  5149 00000597 72                  <1>  db  114
  5150 00000598 64                  <1>  db  100
  5151 00000599 28                  <1>  db  40
  5152 0000059A 7A                  <1>  db  122
  5153 0000059B 29                  <1>  db  41
  5154 0000059C 00                  <1>  db  0
  5155                              <1>  lea9d3183ea370:
  5156 0000059D 24                  <1>  db  36
  5157 0000059E 74                  <1>  db  116
  5158 0000059F 65                  <1>  db  101
  5159 000005A0 73                  <1>  db  115
  5160 000005A1 74                  <1>  db  116
  5161 000005A2 69                  <1>  db  105
  5162 000005A3 6E                  <1>  db  110
  5163 000005A4 67                  <1>  db  103
  5164 000005A5 20                  <1>  db  32
  5165 000005A6 6F                  <1>  db  111
  5166 000005A7 75                  <1>  db  117
  5167 000005A8 74                  <1>  db  116
  5168 000005A9 70                  <1>  db  112
  5169 000005AA 75                  <1>  db  117
  5170 000005AB 74                  <1>  db  116
  5171 000005AC 20                  <1>  db  32
  5172 000005AD 6F                  <1>  db  111
  5173 000005AE 66                  <1>  db  102
  5174 000005AF 20                  <1>  db  32
  5175 000005B0 61                  <1>  db  97
  5176 000005B1 6E                  <1>  db  110
  5177 000005B2 20                  <1>  db  32
  5178 000005B3 65                  <1>  db  101
  5179 000005B4 6E                  <1>  db  110
  5180 000005B5 75                  <1>  db  117
  5181 000005B6 6D                  <1>  db  109
  5182 000005B7 65                  <1>  db  101
  5183 000005B8 72                  <1>  db  114
  5184 000005B9 61                  <1>  db  97
  5185 000005BA 74                  <1>  db  116
  5186 000005BB 65                  <1>  db  101
  5187 000005BC 64                  <1>  db  100
  5188 000005BD 20                  <1>  db  32
  5189 000005BE 74                  <1>  db  116
  5190 000005BF 79                  <1>  db  121
  5191 000005C0 70                  <1>  db  112
  5192 000005C1 65                  <1>  db  101
  5193 000005C2 00                  <1>  db  0
  5194                              <1>  lea9d31837c36b:
  5195 000005C3 [E4050000]          <1>  dd lea9d31837c367
  5196 000005C7 [DF050000]          <1>  dd lea9d31837c368
  5197 000005CB [DA050000]          <1>  dd lea9d31837c369
  5198 000005CF [D3050000]          <1>  dd lea9d31837c36a
  5199                              <1>  lea9d31837c36a:
  5200 000005D3 05                  <1>  db  5
  5201 000005D4 74                  <1>  db  116
  5202 000005D5 68                  <1>  db  104
  5203 000005D6 72                  <1>  db  114
  5204 000005D7 65                  <1>  db  101
  5205 000005D8 65                  <1>  db  101
  5206 000005D9 00                  <1>  db  0
  5207                              <1>  lea9d31837c369:
  5208 000005DA 03                  <1>  db  3
  5209 000005DB 74                  <1>  db  116
  5210 000005DC 77                  <1>  db  119
  5211 000005DD 6F                  <1>  db  111
  5212 000005DE 00                  <1>  db  0
  5213                              <1>  lea9d31837c368:
  5214 000005DF 03                  <1>  db  3
  5215 000005E0 6F                  <1>  db  111
  5216 000005E1 6E                  <1>  db  110
  5217 000005E2 65                  <1>  db  101
  5218 000005E3 00                  <1>  db  0
  5219                              <1>  lea9d31837c367:
  5220 000005E4 04                  <1>  db  4
  5221 000005E5 7A                  <1>  db  122
  5222 000005E6 65                  <1>  db  101
  5223 000005E7 72                  <1>  db  114
  5224 000005E8 6F                  <1>  db  111
  5225 000005E9 00                  <1>  db  0
  5226                              <1> %endif
  5227                                  %include "./vectests.asm"
  5228                              <1> %ifndef vectests
  5229                              <1> %define vectests
  5230                              <1> 	GLOBAL vectestsleab70a469417
  5231                              <1> section .text  
  5232                              <1> ; procedure generated by code generator class ilcg.tree.IA32CG
  5233                              <1> ; Walker version 0.43255946
  5234                              <1> leab70a42486:
  5235                              <1> ;	 dovectest
  5236 000030E3 C8040001            <1>  enter   spacefordovectest-4*1,1
  5237                              <1> ;141
  5238                              <1>  floadlit 6.4E7
  5239                              <2> section .data
  5240 000005EA 0000000080848E41    <2> %%lit: dq %1
  5241                              <2> 	section .text
  5242 000030E7 DD05[EA050000]      <2> 	fld qword[%%lit]
  5243 000030ED D91D[A0660000]      <1>  fstp dword  [  leab70a32303+    -16]
  5244                              <1> ;142
  5245 000030F3 E8BD0C0000          <1>  call leab70a487e1a
  5246 000030F8 81C400000000        <1>  add esp, 0
  5247                              <1> ;143
  5248                              <1> 	EXTERN _secs
  5249 000030FE E8(00000000)        <1>  call _secs; imported
  5250 00003103 81C400000000        <1>  add esp, 0
  5251 00003109 D95DF8              <1>  fstp dword  [  ebp+     -8]
  5252 0000310C D945F8              <1>  fld dword  [  ebp+     -8]
  5253 0000310F D91D[A4660000]      <1>  fstp dword  [  leab70a32303+    -12]
  5254                              <1> ;144
  5255 00003115 6805000000          <1>  push DWORD      5
  5256 0000311A 680C000000          <1>  push DWORD      12
  5257 0000311F 68[6D070000]        <1>  push DWORD  leab70a5f7657
  5258 00003124 6800000000          <1>  push DWORD      0
  5259                              <1> 	EXTERN _printstring
  5260 00003129 E8(00000000)        <1>  call _printstring; imported
  5261 0000312E 81C410000000        <1>  add esp, 16
  5262 00003134 6805000000          <1>  push DWORD      5
  5263 00003139 680C000000          <1>  push DWORD      12
  5264 0000313E FF35[A0660000]      <1>  push DWORD  [  leab70a32303+    -16]
  5265 00003144 6800000000          <1>  push DWORD      0
  5266                              <1> 	EXTERN _printreal
  5267 00003149 E8(00000000)        <1>  call _printreal; imported
  5268 0000314E 81C410000000        <1>  add esp, 16
  5269 00003154 6805000000          <1>  push DWORD      5
  5270 00003159 680C000000          <1>  push DWORD      12
  5271 0000315E 68[59070000]        <1>  push DWORD  leab70a5f7658
  5272 00003163 6800000000          <1>  push DWORD      0
  5273                              <1> 	EXTERN _printstring
  5274 00003168 E8(00000000)        <1>  call _printstring; imported
  5275 0000316D 81C410000000        <1>  add esp, 16
  5276 00003173 6800000000          <1>  push DWORD      0
  5277                              <1> 	EXTERN _println
  5278 00003178 E8(00000000)        <1>  call _println; imported
  5279 0000317D 81C404000000        <1>  add esp, 4
  5280                              <1> ;144
  5281                              <1> ;145
  5282 00003183 E87F090000          <1>  call leab70a5a4e30
  5283 00003188 81C400000000        <1>  add esp, 0
  5284                              <1> ;146
  5285 0000318E E85C0B0000          <1>  call leab70a51f226
  5286 00003193 81C400000000        <1>  add esp, 0
  5287                              <1> ;147
  5288 00003199 6805000000          <1>  push DWORD      5
  5289 0000319E 680C000000          <1>  push DWORD      12
  5290 000031A3 68[46070000]        <1>  push DWORD  leab70a5fa859
  5291 000031A8 6800000000          <1>  push DWORD      0
  5292                              <1> 	EXTERN _printstring
  5293 000031AD E8(00000000)        <1>  call _printstring; imported
  5294 000031B2 81C410000000        <1>  add esp, 16
  5295 000031B8 6800000000          <1>  push DWORD      0
  5296                              <1> 	EXTERN _println
  5297 000031BD E8(00000000)        <1>  call _println; imported
  5298 000031C2 81C404000000        <1>  add esp, 4
  5299                              <1> ;148
  5300 000031C8 E8280A0000          <1>  call leab70a53aa2c
  5301 000031CD 81C400000000        <1>  add esp, 0
  5302                              <1> ;149
  5303 000031D3 E8170B0000          <1>  call leab70a51f226
  5304 000031D8 81C400000000        <1>  add esp, 0
  5305                              <1> ;150
  5306 000031DE 6805000000          <1>  push DWORD      5
  5307 000031E3 680C000000          <1>  push DWORD      12
  5308 000031E8 68[2D070000]        <1>  push DWORD  leab70a5fa85a
  5309 000031ED 6800000000          <1>  push DWORD      0
  5310                              <1> 	EXTERN _printstring
  5311 000031F2 E8(00000000)        <1>  call _printstring; imported
  5312 000031F7 81C410000000        <1>  add esp, 16
  5313 000031FD 6800000000          <1>  push DWORD      0
  5314                              <1> 	EXTERN _println
  5315 00003202 E8(00000000)        <1>  call _println; imported
  5316 00003207 81C404000000        <1>  add esp, 4
  5317                              <1> ;152
  5318 0000320D E85F080000          <1>  call leab70a42489
  5319 00003212 81C400000000        <1>  add esp, 0
  5320                              <1> ;153
  5321 00003218 E8D20A0000          <1>  call leab70a51f226
  5322 0000321D 81C400000000        <1>  add esp, 0
  5323                              <1> ;154
  5324 00003223 6805000000          <1>  push DWORD      5
  5325 00003228 680C000000          <1>  push DWORD      12
  5326 0000322D 68[1B070000]        <1>  push DWORD  leab70a60165b
  5327 00003232 6800000000          <1>  push DWORD      0
  5328                              <1> 	EXTERN _printstring
  5329 00003237 E8(00000000)        <1>  call _printstring; imported
  5330 0000323C 81C410000000        <1>  add esp, 16
  5331 00003242 6800000000          <1>  push DWORD      0
  5332                              <1> 	EXTERN _println
  5333 00003247 E8(00000000)        <1>  call _println; imported
  5334 0000324C 81C404000000        <1>  add esp, 4
  5335                              <1> ;155
  5336 00003252 E864070000          <1>  call leab70a4248c
  5337 00003257 81C400000000        <1>  add esp, 0
  5338                              <1> ;156
  5339 0000325D E88D0A0000          <1>  call leab70a51f226
  5340 00003262 81C400000000        <1>  add esp, 0
  5341                              <1> ;157
  5342 00003268 6805000000          <1>  push DWORD      5
  5343 0000326D 680C000000          <1>  push DWORD      12
  5344 00003272 68[00070000]        <1>  push DWORD  leab70a60165c
  5345 00003277 6800000000          <1>  push DWORD      0
  5346                              <1> 	EXTERN _printstring
  5347 0000327C E8(00000000)        <1>  call _printstring; imported
  5348 00003281 81C410000000        <1>  add esp, 16
  5349 00003287 6800000000          <1>  push DWORD      0
  5350                              <1> 	EXTERN _println
  5351 0000328C E8(00000000)        <1>  call _println; imported
  5352 00003291 81C404000000        <1>  add esp, 4
  5353                              <1> ;158
  5354 00003297 E8C3050000          <1>  call leab70a427af
  5355 0000329C 81C400000000        <1>  add esp, 0
  5356                              <1> ;159
  5357 000032A2 E8480A0000          <1>  call leab70a51f226
  5358 000032A7 81C400000000        <1>  add esp, 0
  5359                              <1> ;160
  5360 000032AD 6805000000          <1>  push DWORD      5
  5361 000032B2 680C000000          <1>  push DWORD      12
  5362 000032B7 68[F0060000]        <1>  push DWORD  leab70a60165d
  5363 000032BC 6800000000          <1>  push DWORD      0
  5364                              <1> 	EXTERN _printstring
  5365 000032C1 E8(00000000)        <1>  call _printstring; imported
  5366 000032C6 81C410000000        <1>  add esp, 16
  5367 000032CC 6800000000          <1>  push DWORD      0
  5368                              <1> 	EXTERN _println
  5369 000032D1 E8(00000000)        <1>  call _println; imported
  5370 000032D6 81C404000000        <1>  add esp, 4
  5371                              <1> ;161
  5372 000032DC E82C060000          <1>  call leab70a5c063c
  5373 000032E1 81C400000000        <1>  add esp, 0
  5374                              <1> ;162
  5375 000032E7 E8030A0000          <1>  call leab70a51f226
  5376 000032EC 81C400000000        <1>  add esp, 0
  5377                              <1> ;163
  5378 000032F2 6805000000          <1>  push DWORD      5
  5379 000032F7 680C000000          <1>  push DWORD      12
  5380 000032FC 68[DB060000]        <1>  push DWORD  leab70a60845e
  5381 00003301 6800000000          <1>  push DWORD      0
  5382                              <1> 	EXTERN _printstring
  5383 00003306 E8(00000000)        <1>  call _printstring; imported
  5384 0000330B 81C410000000        <1>  add esp, 16
  5385 00003311 6800000000          <1>  push DWORD      0
  5386                              <1> 	EXTERN _println
  5387 00003316 E8(00000000)        <1>  call _println; imported
  5388 0000331B 81C404000000        <1>  add esp, 4
  5389                              <1> ;164
  5390 00003321 E897040000          <1>  call leab70a427a12
  5391 00003326 81C400000000        <1>  add esp, 0
  5392                              <1> ;165
  5393 0000332C E8BE090000          <1>  call leab70a51f226
  5394 00003331 81C400000000        <1>  add esp, 0
  5395                              <1> ;166
  5396 00003337 6805000000          <1>  push DWORD      5
  5397 0000333C 680C000000          <1>  push DWORD      12
  5398 00003341 68[CA060000]        <1>  push DWORD  leab70a60845f
  5399 00003346 6800000000          <1>  push DWORD      0
  5400                              <1> 	EXTERN _printstring
  5401 0000334B E8(00000000)        <1>  call _printstring; imported
  5402 00003350 81C410000000        <1>  add esp, 16
  5403 00003356 6800000000          <1>  push DWORD      0
  5404                              <1> 	EXTERN _println
  5405 0000335B E8(00000000)        <1>  call _println; imported
  5406 00003360 81C404000000        <1>  add esp, 4
  5407                              <1> ;167
  5408 00003366 E85E030000          <1>  call leab70a5d5048
  5409 0000336B 81C400000000        <1>  add esp, 0
  5410                              <1> ;168
  5411 00003371 E879090000          <1>  call leab70a51f226
  5412 00003376 81C400000000        <1>  add esp, 0
  5413                              <1> ;169
  5414 0000337C 6805000000          <1>  push DWORD      5
  5415 00003381 680C000000          <1>  push DWORD      12
  5416 00003386 68[A2060000]        <1>  push DWORD  leab70a608460
  5417 0000338B 6800000000          <1>  push DWORD      0
  5418                              <1> 	EXTERN _printstring
  5419 00003390 E8(00000000)        <1>  call _printstring; imported
  5420 00003395 81C410000000        <1>  add esp, 16
  5421 0000339B 6800000000          <1>  push DWORD      0
  5422                              <1> 	EXTERN _println
  5423 000033A0 E8(00000000)        <1>  call _println; imported
  5424 000033A5 81C404000000        <1>  add esp, 4
  5425                              <1> ;170
  5426 000033AB E83B020000          <1>  call leab70a5dbe4c
  5427 000033B0 81C400000000        <1>  add esp, 0
  5428                              <1> ;171
  5429 000033B6 E834090000          <1>  call leab70a51f226
  5430 000033BB 81C400000000        <1>  add esp, 0
  5431                              <1> ;172
  5432 000033C1 6805000000          <1>  push DWORD      5
  5433 000033C6 680C000000          <1>  push DWORD      12
  5434 000033CB 68[77060000]        <1>  push DWORD  leab70a60c061
  5435 000033D0 6800000000          <1>  push DWORD      0
  5436                              <1> 	EXTERN _printstring
  5437 000033D5 E8(00000000)        <1>  call _printstring; imported
  5438 000033DA 81C410000000        <1>  add esp, 16
  5439 000033E0 6800000000          <1>  push DWORD      0
  5440                              <1> 	EXTERN _println
  5441 000033E5 E8(00000000)        <1>  call _println; imported
  5442 000033EA 81C404000000        <1>  add esp, 4
  5443                              <1> ;173
  5444 000033F0 E89C000000          <1>  call leab70a5e2c50
  5445 000033F5 81C400000000        <1>  add esp, 0
  5446                              <1> ;174
  5447 000033FB E8EF080000          <1>  call leab70a51f226
  5448 00003400 81C400000000        <1>  add esp, 0
  5449                              <1> ;175
  5450 00003406 6805000000          <1>  push DWORD      5
  5451 0000340B 680C000000          <1>  push DWORD      12
  5452 00003410 68[3E060000]        <1>  push DWORD  leab70a620a62
  5453 00003415 6800000000          <1>  push DWORD      0
  5454                              <1> 	EXTERN _printstring
  5455 0000341A E8(00000000)        <1>  call _printstring; imported
  5456 0000341F 81C410000000        <1>  add esp, 16
  5457 00003425 6800000000          <1>  push DWORD      0
  5458                              <1> 	EXTERN _println
  5459 0000342A E8(00000000)        <1>  call _println; imported
  5460 0000342F 81C404000000        <1>  add esp, 4
  5461                              <1> ;176
  5462 00003435 6805000000          <1>  push DWORD      5
  5463 0000343A 680C000000          <1>  push DWORD      12
  5464 0000343F 68[2E060000]        <1>  push DWORD  leab70a623c63
  5465 00003444 6800000000          <1>  push DWORD      0
  5466                              <1> 	EXTERN _printstring
  5467 00003449 E8(00000000)        <1>  call _printstring; imported
  5468 0000344E 81C410000000        <1>  add esp, 16
  5469 00003454 6800000000          <1>  push DWORD      0
  5470 00003459 680C000000          <1>  push DWORD      12
  5471                              <1>  floadlit 0.75
  5472                              <2> section .data
  5473 000005F2 000000000000E83F    <2> %%lit: dq %1
  5474                              <2> 	section .text
  5475 0000345E DD05[F2050000]      <2> 	fld qword[%%lit]
  5476 00003464 81EC04000000        <1>  sub esp,4
  5477 0000346A D91C24              <1>  fstp dword [esp]
  5478 0000346D 6800000000          <1>  push DWORD      0
  5479                              <1> 	EXTERN _printreal
  5480 00003472 E8(00000000)        <1>  call _printreal; imported
  5481 00003477 81C410000000        <1>  add esp, 16
  5482 0000347D 6800000000          <1>  push DWORD      0
  5483                              <1> 	EXTERN _println
  5484 00003482 E8(00000000)        <1>  call _println; imported
  5485 00003487 81C404000000        <1>  add esp, 4
  5486                              <1> ;177
  5487                              <1>  leab70a5f3a56:
  5488                              <1> spacefordovectest equ 8
  5489                              <1> dovectestexit:
  5490 0000348D C9                  <1> leave
  5491 0000348E C20000              <1>  ret 0
  5492                              <1> section .text  
  5493                              <1> ; procedure generated by code generator class ilcg.tree.IA32CG
  5494                              <1> ; Walker version 0.43255946
  5495                              <1> leab70a5e2c50:
  5496                              <1> ;	 vseprealdp
  5497 00003491 C81C0001            <1>  enter   spaceforvseprealdp-4*1,1
  5498                              <1> ;137
  5499 00003495 BA01000000          <1>  mov DWORD edx,     1
  5500                              <1>  leab70a8e0682:
  5501 0000349A 81FAA0860100        <1>  cmp DWORD edx,      100000
  5502 000034A0 0F8F41010000        <1>  jg near  leab70a8e3883
  5503                              <1> ;136
  5504 000034A6 B800000000          <1>  mov DWORD eax,     0
  5505                              <1>  leab70a921684:
  5506 000034AB 3D7F020000          <1>  cmp DWORD eax,      639
  5507 000034B0 0F8F31000000        <1>  jg near  leab70a921685
  5508 000034B6 D90485[B0480000]    <1>  fld dword  [  eax* 4+ leab70a32303+    -7680]
  5509 000034BD D80C85[B03E0000]    <1>  fmul DWORD  [  eax* 4+ leab70a32303+    -10240]
  5510 000034C4 D91C85[B0520000]    <1>  fstp dword  [  eax* 4+ leab70a32303+    -5120]
  5511 000034CB 40                  <1>  inc DWORD eax
  5512 000034CC D90485[B0480000]    <1>  fld dword  [  eax* 4+ leab70a32303+    -7680]
  5513 000034D3 D80C85[B03E0000]    <1>  fmul DWORD  [  eax* 4+ leab70a32303+    -10240]
  5514 000034DA D91C85[B0520000]    <1>  fstp dword  [  eax* 4+ leab70a32303+    -5120]
  5515 000034E1 40                  <1>  inc DWORD eax
  5516 000034E2 E9C4FFFFFF          <1>  jmp  leab70a921684
  5517                              <1>  leab70a921685:
  5518                              <1> ;136
  5519                              <1>  floadlit 0.0
  5520                              <2> section .data
  5521 000005FA 0000000000000000    <2> %%lit: dq %1
  5522                              <2> 	section .text
  5523 000034E7 DD05[FA050000]      <2> 	fld qword[%%lit]
  5524 000034ED D95DE4              <1>  fstp dword  [  ebp+     -28]
  5525 000034F0 C745E87F020000      <1>  mov DWORD  [  ebp+     -24],     639
  5526                              <1>  leab70a9e1e86:
  5527 000034F7 817DE800000000      <1>  cmp DWORD  [  ebp+     -24],      0
  5528 000034FE 0F8C33000000        <1>  jl near  leab70a9e1e87
  5529 00003504 8B5DE8              <1>  mov ebx,DWORD  [  ebp+     -24]
  5530 00003507 D9049D[B0520000]    <1>  fld dword  [  ebx* 4+ leab70a32303+    -5120]
  5531 0000350E D845E4              <1>  fadd DWORD  [  ebp+     -28]
  5532 00003511 D95DE4              <1>  fstp dword  [  ebp+     -28]
  5533 00003514 8145E8FFFFFFFF      <1>  add  DWORD  [  ebp+     -24],     -1
  5534 0000351B 8B5DE8              <1>  mov ebx,DWORD  [  ebp+     -24]
  5535 0000351E D9049D[B0520000]    <1>  fld dword  [  ebx* 4+ leab70a32303+    -5120]
  5536 00003525 D845E4              <1>  fadd DWORD  [  ebp+     -28]
  5537 00003528 D95DE4              <1>  fstp dword  [  ebp+     -28]
  5538 0000352B 8145E8FFFFFFFF      <1>  add  DWORD  [  ebp+     -24],     -1
  5539 00003532 E9C0FFFFFF          <1>  jmp  leab70a9e1e86
  5540                              <1>  leab70a9e1e87:
  5541 00003537 D945E4              <1>  fld dword  [  ebp+     -28]
  5542 0000353A D95DE0              <1>  fstp dword  [  ebp+     -32]
  5543 0000353D D945E0              <1>  fld dword  [  ebp+     -32]
  5544 00003540 D95DF4              <1>  fstp dword  [  ebp+     -12]
  5545                              <1> ;136
  5546 00003543 42                  <1>  inc DWORD edx
  5547                              <1> ;136
  5548 00003544 B800000000          <1>  mov DWORD eax,     0
  5549                              <1>  leab70aa8a088:
  5550 00003549 3D7F020000          <1>  cmp DWORD eax,      639
  5551 0000354E 0F8F31000000        <1>  jg near  leab70aa8a089
  5552 00003554 D90485[B0480000]    <1>  fld dword  [  eax* 4+ leab70a32303+    -7680]
  5553 0000355B D80C85[B03E0000]    <1>  fmul DWORD  [  eax* 4+ leab70a32303+    -10240]
  5554 00003562 D91C85[B0520000]    <1>  fstp dword  [  eax* 4+ leab70a32303+    -5120]
  5555 00003569 40                  <1>  inc DWORD eax
  5556 0000356A D90485[B0480000]    <1>  fld dword  [  eax* 4+ leab70a32303+    -7680]
  5557 00003571 D80C85[B03E0000]    <1>  fmul DWORD  [  eax* 4+ leab70a32303+    -10240]
  5558 00003578 D91C85[B0520000]    <1>  fstp dword  [  eax* 4+ leab70a32303+    -5120]
  5559 0000357F 40                  <1>  inc DWORD eax
  5560 00003580 E9C4FFFFFF          <1>  jmp  leab70aa8a088
  5561                              <1>  leab70aa8a089:
  5562                              <1> ;136
  5563                              <1>  floadlit 0.0
  5564                              <2> section .data
  5565 00000602 0000000000000000    <2> %%lit: dq %1
  5566                              <2> 	section .text
  5567 00003585 DD05[02060000]      <2> 	fld qword[%%lit]
  5568 0000358B D95DE4              <1>  fstp dword  [  ebp+     -28]
  5569 0000358E C745E87F020000      <1>  mov DWORD  [  ebp+     -24],     639
  5570                              <1>  leab70aab348a:
  5571 00003595 817DE800000000      <1>  cmp DWORD  [  ebp+     -24],      0
  5572 0000359C 0F8C33000000        <1>  jl near  leab70aab348b
  5573 000035A2 8B5DE8              <1>  mov ebx,DWORD  [  ebp+     -24]
  5574 000035A5 D9049D[B0520000]    <1>  fld dword  [  ebx* 4+ leab70a32303+    -5120]
  5575 000035AC D845E4              <1>  fadd DWORD  [  ebp+     -28]
  5576 000035AF D95DE4              <1>  fstp dword  [  ebp+     -28]
  5577 000035B2 8145E8FFFFFFFF      <1>  add  DWORD  [  ebp+     -24],     -1
  5578 000035B9 8B5DE8              <1>  mov ebx,DWORD  [  ebp+     -24]
  5579 000035BC D9049D[B0520000]    <1>  fld dword  [  ebx* 4+ leab70a32303+    -5120]
  5580 000035C3 D845E4              <1>  fadd DWORD  [  ebp+     -28]
  5581 000035C6 D95DE4              <1>  fstp dword  [  ebp+     -28]
  5582 000035C9 8145E8FFFFFFFF      <1>  add  DWORD  [  ebp+     -24],     -1
  5583 000035D0 E9C0FFFFFF          <1>  jmp  leab70aab348a
  5584                              <1>  leab70aab348b:
  5585 000035D5 D945E4              <1>  fld dword  [  ebp+     -28]
  5586 000035D8 D95DE0              <1>  fstp dword  [  ebp+     -32]
  5587 000035DB D945E0              <1>  fld dword  [  ebp+     -32]
  5588 000035DE D95DF4              <1>  fstp dword  [  ebp+     -12]
  5589                              <1> ;136
  5590 000035E1 42                  <1>  inc DWORD edx
  5591 000035E2 E9B3FEFFFF          <1>  jmp  leab70a8e0682
  5592                              <1>  leab70a8e3883:
  5593                              <1>  leab70a5e2c52:
  5594                              <1> spaceforvseprealdp equ 32
  5595                              <1> vseprealdpexit:
  5596 000035E7 C9                  <1> leave
  5597 000035E8 C20000              <1>  ret 0
  5598                              <1> section .text  
  5599                              <1> ; procedure generated by code generator class ilcg.tree.IA32CG
  5600                              <1> ; Walker version 0.43255946
  5601                              <1> leab70a5dbe4c:
  5602                              <1> ;	 vintdp
  5603 000035EB C8180001            <1>  enter   spaceforvintdp-4*1,1
  5604                              <1> ;132
  5605 000035EF BA01000000          <1>  mov DWORD edx,     1
  5606                              <1>  leab70aadc88c:
  5607 000035F4 81FAA0860100        <1>  cmp DWORD edx,      100000
  5608 000035FA 0F8FC5000000        <1>  jg near  leab70aadc88d
  5609 00003600 B800000000          <1>  mov DWORD eax,     0
  5610 00003605 C745EC7F020000      <1>  mov DWORD  [  ebp+     -20],     639
  5611                              <1>  leab70aafb28e:
  5612 0000360C 817DEC00000000      <1>  cmp DWORD  [  ebp+     -20],      0
  5613 00003613 0F8C3D000000        <1>  jl near  leab70aafb28f
  5614                              <1> ; substituting in ebx with 2 occurences and score of 5
  5615 00003619 8B5DEC              <1>  mov ebx,DWORD  [  ebp+     -20]
  5616 0000361C 8B3C9D[B02A0000]    <1>  mov edi,DWORD  [  ebx* 4+ leab70a32303+    -15360]
  5617 00003623 0FAF3C9D[B0200000]  <1>  imul  edi, [  ebx* 4+ leab70a32303+    -17920]
  5618 0000362B 8D0407              <1>  lea eax,[  edi+eax]
  5619 0000362E 8145ECFFFFFFFF      <1>  add  DWORD  [  ebp+     -20],     -1
  5620                              <1> ; substituting in ebx with 2 occurences and score of 5
  5621 00003635 8B5DEC              <1>  mov ebx,DWORD  [  ebp+     -20]
  5622 00003638 8B3C9D[B02A0000]    <1>  mov edi,DWORD  [  ebx* 4+ leab70a32303+    -15360]
  5623 0000363F 0FAF3C9D[B0200000]  <1>  imul  edi, [  ebx* 4+ leab70a32303+    -17920]
  5624 00003647 8D0407              <1>  lea eax,[  edi+eax]
  5625 0000364A 8145ECFFFFFFFF      <1>  add  DWORD  [  ebp+     -20],     -1
  5626 00003651 E9B6FFFFFF          <1>  jmp  leab70aafb28e
  5627                              <1>  leab70aafb28f:
  5628 00003656 8945E4              <1>  mov DWORD  [  ebp+     -28],eax
  5629 00003659 8B5DE4              <1>  mov ebx,DWORD  [  ebp+     -28]
  5630 0000365C 895DF4              <1>  mov DWORD  [  ebp+     -12],ebx
  5631 0000365F 42                  <1>  inc DWORD edx
  5632 00003660 B800000000          <1>  mov DWORD eax,     0
  5633 00003665 C745EC7F020000      <1>  mov DWORD  [  ebp+     -20],     639
  5634                              <1>  leab70aba0290:
  5635 0000366C 817DEC00000000      <1>  cmp DWORD  [  ebp+     -20],      0
  5636 00003673 0F8C3D000000        <1>  jl near  leab70aba0291
  5637                              <1> ; substituting in ebx with 2 occurences and score of 5
  5638 00003679 8B5DEC              <1>  mov ebx,DWORD  [  ebp+     -20]
  5639 0000367C 8B3C9D[B02A0000]    <1>  mov edi,DWORD  [  ebx* 4+ leab70a32303+    -15360]
  5640 00003683 0FAF3C9D[B0200000]  <1>  imul  edi, [  ebx* 4+ leab70a32303+    -17920]
  5641 0000368B 8D0407              <1>  lea eax,[  edi+eax]
  5642 0000368E 8145ECFFFFFFFF      <1>  add  DWORD  [  ebp+     -20],     -1
  5643                              <1> ; substituting in ebx with 2 occurences and score of 5
  5644 00003695 8B5DEC              <1>  mov ebx,DWORD  [  ebp+     -20]
  5645 00003698 8B3C9D[B02A0000]    <1>  mov edi,DWORD  [  ebx* 4+ leab70a32303+    -15360]
  5646 0000369F 0FAF3C9D[B0200000]  <1>  imul  edi, [  ebx* 4+ leab70a32303+    -17920]
  5647 000036A7 8D0407              <1>  lea eax,[  edi+eax]
  5648 000036AA 8145ECFFFFFFFF      <1>  add  DWORD  [  ebp+     -20],     -1
  5649 000036B1 E9B6FFFFFF          <1>  jmp  leab70aba0290
  5650                              <1>  leab70aba0291:
  5651 000036B6 8945E4              <1>  mov DWORD  [  ebp+     -28],eax
  5652 000036B9 8B5DE4              <1>  mov ebx,DWORD  [  ebp+     -28]
  5653 000036BC 895DF4              <1>  mov DWORD  [  ebp+     -12],ebx
  5654 000036BF 42                  <1>  inc DWORD edx
  5655 000036C0 E92FFFFFFF          <1>  jmp  leab70aadc88c
  5656                              <1>  leab70aadc88d:
  5657                              <1> ;133
  5658                              <1>  leab70a5df04e:
  5659                              <1> spaceforvintdp equ 28
  5660                              <1> vintdpexit:
  5661 000036C5 C9                  <1> leave
  5662 000036C6 C20000              <1>  ret 0
  5663                              <1> section .text  
  5664                              <1> ; procedure generated by code generator class ilcg.tree.IA32CG
  5665                              <1> ; Walker version 0.43255946
  5666                              <1> leab70a5d5048:
  5667                              <1> ;	 vrealdp
  5668 000036C9 C8180001            <1>  enter   spaceforvrealdp-4*1,1
  5669                              <1> ;128
  5670 000036CD BA01000000          <1>  mov DWORD edx,     1
  5671                              <1>  leab70abd3692:
  5672 000036D2 81FAA0860100        <1>  cmp DWORD edx,      100000
  5673 000036D8 0F8FDB000000        <1>  jg near  leab70abd3693
  5674                              <1>  floadlit 0.0
  5675                              <2> section .data
  5676 0000060A 0000000000000000    <2> %%lit: dq %1
  5677                              <2> 	section .text
  5678 000036DE DD05[0A060000]      <2> 	fld qword[%%lit]
  5679 000036E4 D95DE8              <1>  fstp dword  [  ebp+     -24]
  5680 000036E7 C745EC7F020000      <1>  mov DWORD  [  ebp+     -20],     639
  5681                              <1>  leab70abe8094:
  5682 000036EE 817DEC00000000      <1>  cmp DWORD  [  ebp+     -20],      0
  5683 000036F5 0F8C41000000        <1>  jl near  leab70abe8095
  5684                              <1> ; substituting in eax with 2 occurences and score of 5
  5685 000036FB 8B45EC              <1>  mov eax,DWORD  [  ebp+     -20]
  5686 000036FE D90485[B0480000]    <1>  fld dword  [  eax* 4+ leab70a32303+    -7680]
  5687 00003705 D80C85[B03E0000]    <1>  fmul DWORD  [  eax* 4+ leab70a32303+    -10240]
  5688 0000370C D845E8              <1>  fadd DWORD  [  ebp+     -24]
  5689 0000370F D95DE8              <1>  fstp dword  [  ebp+     -24]
  5690 00003712 8145ECFFFFFFFF      <1>  add  DWORD  [  ebp+     -20],     -1
  5691                              <1> ; substituting in eax with 2 occurences and score of 5
  5692 00003719 8B45EC              <1>  mov eax,DWORD  [  ebp+     -20]
  5693 0000371C D90485[B0480000]    <1>  fld dword  [  eax* 4+ leab70a32303+    -7680]
  5694 00003723 D80C85[B03E0000]    <1>  fmul DWORD  [  eax* 4+ leab70a32303+    -10240]
  5695 0000372A D845E8              <1>  fadd DWORD  [  ebp+     -24]
  5696 0000372D D95DE8              <1>  fstp dword  [  ebp+     -24]
  5697 00003730 8145ECFFFFFFFF      <1>  add  DWORD  [  ebp+     -20],     -1
  5698 00003737 E9B2FFFFFF          <1>  jmp  leab70abe8094
  5699                              <1>  leab70abe8095:
  5700 0000373C D945E8              <1>  fld dword  [  ebp+     -24]
  5701 0000373F D95DE4              <1>  fstp dword  [  ebp+     -28]
  5702 00003742 D945E4              <1>  fld dword  [  ebp+     -28]
  5703 00003745 D95DF4              <1>  fstp dword  [  ebp+     -12]
  5704 00003748 42                  <1>  inc DWORD edx
  5705                              <1>  floadlit 0.0
  5706                              <2> section .data
  5707 00000612 0000000000000000    <2> %%lit: dq %1
  5708                              <2> 	section .text
  5709 00003749 DD05[12060000]      <2> 	fld qword[%%lit]
  5710 0000374F D95DE8              <1>  fstp dword  [  ebp+     -24]
  5711 00003752 C745EC7F020000      <1>  mov DWORD  [  ebp+     -20],     639
  5712                              <1>  leab70ac4b696:
  5713 00003759 817DEC00000000      <1>  cmp DWORD  [  ebp+     -20],      0
  5714 00003760 0F8C41000000        <1>  jl near  leab70ac4b697
  5715                              <1> ; substituting in eax with 2 occurences and score of 5
  5716 00003766 8B45EC              <1>  mov eax,DWORD  [  ebp+     -20]
  5717 00003769 D90485[B0480000]    <1>  fld dword  [  eax* 4+ leab70a32303+    -7680]
  5718 00003770 D80C85[B03E0000]    <1>  fmul DWORD  [  eax* 4+ leab70a32303+    -10240]
  5719 00003777 D845E8              <1>  fadd DWORD  [  ebp+     -24]
  5720 0000377A D95DE8              <1>  fstp dword  [  ebp+     -24]
  5721 0000377D 8145ECFFFFFFFF      <1>  add  DWORD  [  ebp+     -20],     -1
  5722                              <1> ; substituting in eax with 2 occurences and score of 5
  5723 00003784 8B45EC              <1>  mov eax,DWORD  [  ebp+     -20]
  5724 00003787 D90485[B0480000]    <1>  fld dword  [  eax* 4+ leab70a32303+    -7680]
  5725 0000378E D80C85[B03E0000]    <1>  fmul DWORD  [  eax* 4+ leab70a32303+    -10240]
  5726 00003795 D845E8              <1>  fadd DWORD  [  ebp+     -24]
  5727 00003798 D95DE8              <1>  fstp dword  [  ebp+     -24]
  5728 0000379B 8145ECFFFFFFFF      <1>  add  DWORD  [  ebp+     -20],     -1
  5729 000037A2 E9B2FFFFFF          <1>  jmp  leab70ac4b696
  5730                              <1>  leab70ac4b697:
  5731 000037A7 D945E8              <1>  fld dword  [  ebp+     -24]
  5732 000037AA D95DE4              <1>  fstp dword  [  ebp+     -28]
  5733 000037AD D945E4              <1>  fld dword  [  ebp+     -28]
  5734 000037B0 D95DF4              <1>  fstp dword  [  ebp+     -12]
  5735 000037B3 42                  <1>  inc DWORD edx
  5736 000037B4 E919FFFFFF          <1>  jmp  leab70abd3692
  5737                              <1>  leab70abd3693:
  5738                              <1> ;129
  5739                              <1>  leab70a5d504a:
  5740                              <1> spaceforvrealdp equ 28
  5741                              <1> vrealdpexit:
  5742 000037B9 C9                  <1> leave
  5743 000037BA C20000              <1>  ret 0
  5744                              <1> section .text  
  5745                              <1> ; procedure generated by code generator class ilcg.tree.IA32CG
  5746                              <1> ; Walker version 0.43255946
  5747                              <1> leab70a427a12:
  5748                              <1> ;	 vrealadd
  5749 000037BD C80C0001            <1>  enter   spaceforvrealadd-4*1,1
  5750                              <1> ;124
  5751 000037C1 BA01000000          <1>  mov DWORD edx,     1
  5752                              <1>  leab70ac7f498:
  5753 000037C6 81FAA0860100        <1>  cmp DWORD edx,      100000
  5754 000037CC 0F8F89000000        <1>  jg near  leab70ac7f499
  5755 000037D2 B800000000          <1>  mov DWORD eax,     0
  5756                              <1>  leab70ac9029a:
  5757 000037D7 3D7F020000          <1>  cmp DWORD eax,      639
  5758 000037DC 0F8F31000000        <1>  jg near  leab70ac9029b
  5759 000037E2 D90485[B0480000]    <1>  fld dword  [  eax* 4+ leab70a32303+    -7680]
  5760 000037E9 D80485[B03E0000]    <1>  fadd DWORD  [  eax* 4+ leab70a32303+    -10240]
  5761 000037F0 D91C85[B0520000]    <1>  fstp dword  [  eax* 4+ leab70a32303+    -5120]
  5762 000037F7 40                  <1>  inc DWORD eax
  5763 000037F8 D90485[B0480000]    <1>  fld dword  [  eax* 4+ leab70a32303+    -7680]
  5764 000037FF D80485[B03E0000]    <1>  fadd DWORD  [  eax* 4+ leab70a32303+    -10240]
  5765 00003806 D91C85[B0520000]    <1>  fstp dword  [  eax* 4+ leab70a32303+    -5120]
  5766 0000380D 40                  <1>  inc DWORD eax
  5767 0000380E E9C4FFFFFF          <1>  jmp  leab70ac9029a
  5768                              <1>  leab70ac9029b:
  5769 00003813 42                  <1>  inc DWORD edx
  5770 00003814 B800000000          <1>  mov DWORD eax,     0
  5771                              <1>  leab70acc049c:
  5772 00003819 3D7F020000          <1>  cmp DWORD eax,      639
  5773 0000381E 0F8F31000000        <1>  jg near  leab70acc049d
  5774 00003824 D90485[B0480000]    <1>  fld dword  [  eax* 4+ leab70a32303+    -7680]
  5775 0000382B D80485[B03E0000]    <1>  fadd DWORD  [  eax* 4+ leab70a32303+    -10240]
  5776 00003832 D91C85[B0520000]    <1>  fstp dword  [  eax* 4+ leab70a32303+    -5120]
  5777 00003839 40                  <1>  inc DWORD eax
  5778 0000383A D90485[B0480000]    <1>  fld dword  [  eax* 4+ leab70a32303+    -7680]
  5779 00003841 D80485[B03E0000]    <1>  fadd DWORD  [  eax* 4+ leab70a32303+    -10240]
  5780 00003848 D91C85[B0520000]    <1>  fstp dword  [  eax* 4+ leab70a32303+    -5120]
  5781 0000384F 40                  <1>  inc DWORD eax
  5782 00003850 E9C4FFFFFF          <1>  jmp  leab70acc049c
  5783                              <1>  leab70acc049d:
  5784 00003855 42                  <1>  inc DWORD edx
  5785 00003856 E96BFFFFFF          <1>  jmp  leab70ac7f498
  5786                              <1>  leab70ac7f499:
  5787                              <1> ;125
  5788                              <1>  leab70a5d1446:
  5789                              <1> spaceforvrealadd equ 16
  5790                              <1> vrealaddexit:
  5791 0000385B C9                  <1> leave
  5792 0000385C C20000              <1>  ret 0
  5793                              <1> section .text  
  5794                              <1> ; procedure generated by code generator class ilcg.tree.IA32CG
  5795                              <1> ; Walker version 0.43255946
  5796                              <1> leab70a427af:
  5797                              <1> ;	 vintadd
  5798 0000385F C80C0001            <1>  enter   spaceforvintadd-4*1,1
  5799                              <1> ;120
  5800 00003863 BA01000000          <1>  mov DWORD edx,     1
  5801                              <1>  leab70acdee9e:
  5802 00003868 81FAA0860100        <1>  cmp DWORD edx,      100000
  5803 0000386E 0F8F95000000        <1>  jg near  leab70acdee9f
  5804 00003874 B800000000          <1>  mov DWORD eax,     0
  5805                              <1>  leab70ace5ca0:
  5806 00003879 3D7F020000          <1>  cmp DWORD eax,      639
  5807 0000387E 0F8F37000000        <1>  jg near  leab70ace5ca1
  5808 00003884 8B1C85[B02A0000]    <1>  mov ebx,DWORD  [  eax* 4+ leab70a32303+    -15360]
  5809 0000388B 8B3C85[B0200000]    <1>  mov edi,DWORD  [  eax* 4+ leab70a32303+    -17920]
  5810 00003892 8D1C3B              <1>  lea ebx,[  ebx+edi]
  5811 00003895 891C85[B0340000]    <1>  mov DWORD  [  eax* 4+ leab70a32303+    -12800],ebx
  5812 0000389C 40                  <1>  inc DWORD eax
  5813 0000389D 8B1C85[B02A0000]    <1>  mov ebx,DWORD  [  eax* 4+ leab70a32303+    -15360]
  5814 000038A4 8B3C85[B0200000]    <1>  mov edi,DWORD  [  eax* 4+ leab70a32303+    -17920]
  5815 000038AB 8D1C3B              <1>  lea ebx,[  ebx+edi]
  5816 000038AE 891C85[B0340000]    <1>  mov DWORD  [  eax* 4+ leab70a32303+    -12800],ebx
  5817 000038B5 40                  <1>  inc DWORD eax
  5818 000038B6 E9BEFFFFFF          <1>  jmp  leab70ace5ca0
  5819                              <1>  leab70ace5ca1:
  5820 000038BB 42                  <1>  inc DWORD edx
  5821 000038BC B800000000          <1>  mov DWORD eax,     0
  5822                              <1>  leab70ad2e4a2:
  5823 000038C1 3D7F020000          <1>  cmp DWORD eax,      639
  5824 000038C6 0F8F37000000        <1>  jg near  leab70ad2e4a3
  5825 000038CC 8B1C85[B02A0000]    <1>  mov ebx,DWORD  [  eax* 4+ leab70a32303+    -15360]
  5826 000038D3 8B3C85[B0200000]    <1>  mov edi,DWORD  [  eax* 4+ leab70a32303+    -17920]
  5827 000038DA 8D1C3B              <1>  lea ebx,[  ebx+edi]
  5828 000038DD 891C85[B0340000]    <1>  mov DWORD  [  eax* 4+ leab70a32303+    -12800],ebx
  5829 000038E4 40                  <1>  inc DWORD eax
  5830 000038E5 8B1C85[B02A0000]    <1>  mov ebx,DWORD  [  eax* 4+ leab70a32303+    -15360]
  5831 000038EC 8B3C85[B0200000]    <1>  mov edi,DWORD  [  eax* 4+ leab70a32303+    -17920]
  5832 000038F3 8D1C3B              <1>  lea ebx,[  ebx+edi]
  5833 000038F6 891C85[B0340000]    <1>  mov DWORD  [  eax* 4+ leab70a32303+    -12800],ebx
  5834 000038FD 40                  <1>  inc DWORD eax
  5835 000038FE E9BEFFFFFF          <1>  jmp  leab70ad2e4a2
  5836                              <1>  leab70ad2e4a3:
  5837 00003903 42                  <1>  inc DWORD edx
  5838 00003904 E95FFFFFFF          <1>  jmp  leab70acdee9e
  5839                              <1>  leab70acdee9f:
  5840                              <1> ;121
  5841                              <1>  leab70a5c7442:
  5842                              <1> spaceforvintadd equ 16
  5843                              <1> vintaddexit:
  5844 00003909 C9                  <1> leave
  5845 0000390A C20000              <1>  ret 0
  5846                              <1> section .text  
  5847                              <1> ; procedure generated by code generator class ilcg.tree.IA32CG
  5848                              <1> ; Walker version 0.43255946
  5849                              <1> leab70a5c063c:
  5850                              <1> ;	 vshortadd
  5851 0000390D C80C0001            <1>  enter   spaceforvshortadd-4*1,1
  5852                              <1> ;116
  5853 00003911 BA01000000          <1>  mov DWORD edx,     1
  5854                              <1>  leab70ad42ea4:
  5855 00003916 81FAA0860100        <1>  cmp DWORD edx,      100000
  5856 0000391C 0F8F95000000        <1>  jg near  leab70ad42ea5
  5857 00003922 B800000000          <1>  mov DWORD eax,     0
  5858                              <1>  leab70ad4cea6:
  5859 00003927 3D7F020000          <1>  cmp DWORD eax,      639
  5860 0000392C 0F8F37000000        <1>  jg near  leab70ad4cea7
  5861 00003932 668B9C00[B00C0000]  <1>  mov bx,WORD  [  eax* 2+ leab70a32303+    -23040]
  5862 0000393A 66039C00[B0070000]  <1>  add bx, [  eax* 2+ leab70a32303+    -24320]
  5863 00003942 66899C00[B0110000]  <1>  mov WORD  [  eax* 2+ leab70a32303+    -21760],bx
  5864 0000394A 40                  <1>  inc DWORD eax
  5865 0000394B 668B9C00[B00C0000]  <1>  mov bx,WORD  [  eax* 2+ leab70a32303+    -23040]
  5866 00003953 66039C00[B0070000]  <1>  add bx, [  eax* 2+ leab70a32303+    -24320]
  5867 0000395B 66899C00[B0110000]  <1>  mov WORD  [  eax* 2+ leab70a32303+    -21760],bx
  5868 00003963 40                  <1>  inc DWORD eax
  5869 00003964 E9BEFFFFFF          <1>  jmp  leab70ad4cea6
  5870                              <1>  leab70ad4cea7:
  5871 00003969 42                  <1>  inc DWORD edx
  5872 0000396A B800000000          <1>  mov DWORD eax,     0
  5873                              <1>  leab70ad79ea8:
  5874 0000396F 3D7F020000          <1>  cmp DWORD eax,      639
  5875 00003974 0F8F37000000        <1>  jg near  leab70ad79ea9
  5876 0000397A 668B9C00[B00C0000]  <1>  mov bx,WORD  [  eax* 2+ leab70a32303+    -23040]
  5877 00003982 66039C00[B0070000]  <1>  add bx, [  eax* 2+ leab70a32303+    -24320]
  5878 0000398A 66899C00[B0110000]  <1>  mov WORD  [  eax* 2+ leab70a32303+    -21760],bx
  5879 00003992 40                  <1>  inc DWORD eax
  5880 00003993 668B9C00[B00C0000]  <1>  mov bx,WORD  [  eax* 2+ leab70a32303+    -23040]
  5881 0000399B 66039C00[B0070000]  <1>  add bx, [  eax* 2+ leab70a32303+    -24320]
  5882 000039A3 66899C00[B0110000]  <1>  mov WORD  [  eax* 2+ leab70a32303+    -21760],bx
  5883 000039AB 40                  <1>  inc DWORD eax
  5884 000039AC E9BEFFFFFF          <1>  jmp  leab70ad79ea8
  5885                              <1>  leab70ad79ea9:
  5886 000039B1 42                  <1>  inc DWORD edx
  5887 000039B2 E95FFFFFFF          <1>  jmp  leab70ad42ea4
  5888                              <1>  leab70ad42ea5:
  5889                              <1> ;117
  5890                              <1>  leab70a5c383e:
  5891                              <1> spaceforvshortadd equ 16
  5892                              <1> vshortaddexit:
  5893 000039B7 C9                  <1> leave
  5894 000039B8 C20000              <1>  ret 0
  5895                              <1> section .text  
  5896                              <1> ; procedure generated by code generator class ilcg.tree.IA32CG
  5897                              <1> ; Walker version 0.43255946
  5898                              <1> leab70a4248c:
  5899                              <1> ;	 satvbyteadd
  5900 000039BB C80C0001            <1>  enter   spaceforsatvbyteadd-4*1,1
  5901                              <1> ;112
  5902 000039BF BA01000000          <1>  mov DWORD edx,     1
  5903                              <1>  leab70ad8e8aa:
  5904 000039C4 81FAA0860100        <1>  cmp DWORD edx,      100000
  5905 000039CA 0F8F9D000000        <1>  jg near  leab70ad8e8ab
  5906 000039D0 B800000000          <1>  mov DWORD eax,     0
  5907                              <1>  leab70ad956ac:
  5908 000039D5 3D7F020000          <1>  cmp DWORD eax,      639
  5909 000039DA 0F8F3B000000        <1>  jg near  leab70ad956ad
  5910 000039E0 8AA8[B01B0000]      <1>  mov ch,BYTE  [  eax+ leab70a32303+    -19200]
  5911 000039E6 8A88[30190000]      <1>  mov cl,BYTE  [  eax+ leab70a32303+    -19840]
  5912 000039EC 00CD                <1>  add  ch,cl
  5913 000039EE 7302                <1>  jnc $+4
  5914 000039F0 B5FF                <1>  mov ch,255
  5915 000039F2 90                  <1>  nop
  5916 000039F3 90                  <1>  nop
  5917 000039F4 88A8[301E0000]      <1>  mov byte  [  eax+ leab70a32303+    -18560],ch
  5918 000039FA 40                  <1>  inc DWORD eax
  5919 000039FB 8AA8[B01B0000]      <1>  mov ch,BYTE  [  eax+ leab70a32303+    -19200]
  5920 00003A01 8A88[30190000]      <1>  mov cl,BYTE  [  eax+ leab70a32303+    -19840]
  5921 00003A07 00CD                <1>  add  ch,cl
  5922 00003A09 7302                <1>  jnc $+4
  5923 00003A0B B5FF                <1>  mov ch,255
  5924 00003A0D 90                  <1>  nop
  5925 00003A0E 90                  <1>  nop
  5926 00003A0F 88A8[301E0000]      <1>  mov byte  [  eax+ leab70a32303+    -18560],ch
  5927 00003A15 40                  <1>  inc DWORD eax
  5928 00003A16 E9BAFFFFFF          <1>  jmp  leab70ad956ac
  5929                              <1>  leab70ad956ad:
  5930 00003A1B 42                  <1>  inc DWORD edx
  5931 00003A1C B800000000          <1>  mov DWORD eax,     0
  5932                              <1>  leab70adcbcae:
  5933 00003A21 3D7F020000          <1>  cmp DWORD eax,      639
  5934 00003A26 0F8F3B000000        <1>  jg near  leab70adcbcaf
  5935 00003A2C 8AA8[B01B0000]      <1>  mov ch,BYTE  [  eax+ leab70a32303+    -19200]
  5936 00003A32 8A88[30190000]      <1>  mov cl,BYTE  [  eax+ leab70a32303+    -19840]
  5937 00003A38 00CD                <1>  add  ch,cl
  5938 00003A3A 7302                <1>  jnc $+4
  5939 00003A3C B5FF                <1>  mov ch,255
  5940 00003A3E 90                  <1>  nop
  5941 00003A3F 90                  <1>  nop
  5942 00003A40 88A8[301E0000]      <1>  mov byte  [  eax+ leab70a32303+    -18560],ch
  5943 00003A46 40                  <1>  inc DWORD eax
  5944 00003A47 8AA8[B01B0000]      <1>  mov ch,BYTE  [  eax+ leab70a32303+    -19200]
  5945 00003A4D 8A88[30190000]      <1>  mov cl,BYTE  [  eax+ leab70a32303+    -19840]
  5946 00003A53 00CD                <1>  add  ch,cl
  5947 00003A55 7302                <1>  jnc $+4
  5948 00003A57 B5FF                <1>  mov ch,255
  5949 00003A59 90                  <1>  nop
  5950 00003A5A 90                  <1>  nop
  5951 00003A5B 88A8[301E0000]      <1>  mov byte  [  eax+ leab70a32303+    -18560],ch
  5952 00003A61 40                  <1>  inc DWORD eax
  5953 00003A62 E9BAFFFFFF          <1>  jmp  leab70adcbcae
  5954                              <1>  leab70adcbcaf:
  5955 00003A67 42                  <1>  inc DWORD edx
  5956 00003A68 E957FFFFFF          <1>  jmp  leab70ad8e8aa
  5957                              <1>  leab70ad8e8ab:
  5958                              <1> ;113
  5959                              <1>  leab70a5c063a:
  5960                              <1> spaceforsatvbyteadd equ 16
  5961                              <1> satvbyteaddexit:
  5962 00003A6D C9                  <1> leave
  5963 00003A6E C20000              <1>  ret 0
  5964                              <1> section .text  
  5965                              <1> ; procedure generated by code generator class ilcg.tree.IA32CG
  5966                              <1> ; Walker version 0.43255946
  5967                              <1> leab70a42489:
  5968                              <1> ;	 vbyteadd
  5969 00003A71 C80C0001            <1>  enter   spaceforvbyteadd-4*1,1
  5970                              <1> ;107
  5971 00003A75 BA01000000          <1>  mov DWORD edx,     1
  5972                              <1>  leab70ade42b0:
  5973 00003A7A 81FAA0860100        <1>  cmp DWORD edx,      100000
  5974 00003A80 0F8F7D000000        <1>  jg near  leab70ade42b1
  5975 00003A86 B800000000          <1>  mov DWORD eax,     0
  5976                              <1>  leab70adee2b2:
  5977 00003A8B 3D7F020000          <1>  cmp DWORD eax,      639
  5978 00003A90 0F8F2B000000        <1>  jg near  leab70adee2b3
  5979 00003A96 8AA8[B01B0000]      <1>  mov ch,BYTE  [  eax+ leab70a32303+    -19200]
  5980 00003A9C 02A8[30190000]      <1>  add ch, [  eax+ leab70a32303+    -19840]
  5981 00003AA2 88A8[301E0000]      <1>  mov byte  [  eax+ leab70a32303+    -18560],ch
  5982 00003AA8 40                  <1>  inc DWORD eax
  5983 00003AA9 8AA8[B01B0000]      <1>  mov ch,BYTE  [  eax+ leab70a32303+    -19200]
  5984 00003AAF 02A8[30190000]      <1>  add ch, [  eax+ leab70a32303+    -19840]
  5985 00003AB5 88A8[301E0000]      <1>  mov byte  [  eax+ leab70a32303+    -18560],ch
  5986 00003ABB 40                  <1>  inc DWORD eax
  5987 00003ABC E9CAFFFFFF          <1>  jmp  leab70adee2b2
  5988                              <1>  leab70adee2b3:
  5989 00003AC1 42                  <1>  inc DWORD edx
  5990 00003AC2 B800000000          <1>  mov DWORD eax,     0
  5991                              <1>  leab70ae1b2b4:
  5992 00003AC7 3D7F020000          <1>  cmp DWORD eax,      639
  5993 00003ACC 0F8F2B000000        <1>  jg near  leab70ae1b2b5
  5994 00003AD2 8AA8[B01B0000]      <1>  mov ch,BYTE  [  eax+ leab70a32303+    -19200]
  5995 00003AD8 02A8[30190000]      <1>  add ch, [  eax+ leab70a32303+    -19840]
  5996 00003ADE 88A8[301E0000]      <1>  mov byte  [  eax+ leab70a32303+    -18560],ch
  5997 00003AE4 40                  <1>  inc DWORD eax
  5998 00003AE5 8AA8[B01B0000]      <1>  mov ch,BYTE  [  eax+ leab70a32303+    -19200]
  5999 00003AEB 02A8[30190000]      <1>  add ch, [  eax+ leab70a32303+    -19840]
  6000 00003AF1 88A8[301E0000]      <1>  mov byte  [  eax+ leab70a32303+    -18560],ch
  6001 00003AF7 40                  <1>  inc DWORD eax
  6002 00003AF8 E9CAFFFFFF          <1>  jmp  leab70ae1b2b4
  6003                              <1>  leab70ae1b2b5:
  6004 00003AFD 42                  <1>  inc DWORD edx
  6005 00003AFE E977FFFFFF          <1>  jmp  leab70ade42b0
  6006                              <1>  leab70ade42b1:
  6007                              <1> ;108
  6008                              <1>  leab70a5b5c36:
  6009                              <1> spaceforvbyteadd equ 16
  6010                              <1> vbyteaddexit:
  6011 00003B03 C9                  <1> leave
  6012 00003B04 C20000              <1>  ret 0
  6013                              <1> section .text  
  6014                              <1> ; procedure generated by code generator class ilcg.tree.IA32CG
  6015                              <1> ; Walker version 0.43255946
  6016                              <1> leab70a5a4e30:
  6017                              <1> ;	 vpixadd
  6018 00003B07 C80C0001            <1>  enter   spaceforvpixadd-4*1,1
  6019                              <1> ;101
  6020 00003B0B BA01000000          <1>  mov DWORD edx,     1
  6021                              <1>  leab70ae2c0b6:
  6022 00003B10 81FAA0860100        <1>  cmp DWORD edx,      100000
  6023 00003B16 0F8FD5000000        <1>  jg near  leab70ae2c0b7
  6024 00003B1C B800000000          <1>  mov DWORD eax,     0
  6025                              <1>  leab70ae32eb8:
  6026 00003B21 3D7F020000          <1>  cmp DWORD eax,      639
  6027 00003B26 0F8F57000000        <1>  jg near  leab70ae32eb9
  6028 00003B2C 68[30050000]        <1>  push DWORD  leab70a32303+    -24960
  6029 00003B31 010424              <1>  add  dword[esp] ,eax
  6030 00003B34 8A98[B0020000]      <1>  mov bl,BYTE  [  eax+ leab70a32303+    -25600]
  6031 00003B3A 8A88[30000000]      <1>  mov cl,BYTE  [  eax+ leab70a32303+    -26240]
  6032 00003B40 00CB                <1>  add  bl,cl
  6033 00003B42 7108                <1>  jno $+10
  6034 00003B44 7F04                <1>  jg $+6
  6035 00003B46 B380                <1>  mov bl ,-128 
  6036 00003B48 7E02                <1>  jng $+4
  6037 00003B4A B37F                <1>  mov bl,127
  6038 00003B4C 90                  <1>  nop
  6039 00003B4D 90                  <1>  nop
  6040 00003B4E 873424              <1>  xchg dword[esp],esi
  6041 00003B51 881E                <1>   mov byte[esi],bl
  6042 00003B53 5E                  <1>   pop esi
  6043 00003B54 40                  <1>  inc DWORD eax
  6044 00003B55 68[30050000]        <1>  push DWORD  leab70a32303+    -24960
  6045 00003B5A 010424              <1>  add  dword[esp] ,eax
  6046 00003B5D 8A98[B0020000]      <1>  mov bl,BYTE  [  eax+ leab70a32303+    -25600]
  6047 00003B63 8A88[30000000]      <1>  mov cl,BYTE  [  eax+ leab70a32303+    -26240]
  6048 00003B69 00CB                <1>  add  bl,cl
  6049 00003B6B 7108                <1>  jno $+10
  6050 00003B6D 7F04                <1>  jg $+6
  6051 00003B6F B380                <1>  mov bl ,-128 
  6052 00003B71 7E02                <1>  jng $+4
  6053 00003B73 B37F                <1>  mov bl,127
  6054 00003B75 90                  <1>  nop
  6055 00003B76 90                  <1>  nop
  6056 00003B77 873424              <1>  xchg dword[esp],esi
  6057 00003B7A 881E                <1>   mov byte[esi],bl
  6058 00003B7C 5E                  <1>   pop esi
  6059 00003B7D 40                  <1>  inc DWORD eax
  6060 00003B7E E99EFFFFFF          <1>  jmp  leab70ae32eb8
  6061                              <1>  leab70ae32eb9:
  6062 00003B83 42                  <1>  inc DWORD edx
  6063 00003B84 B800000000          <1>  mov DWORD eax,     0
  6064                              <1>  leab70ae7b6ba:
  6065 00003B89 3D7F020000          <1>  cmp DWORD eax,      639
  6066 00003B8E 0F8F57000000        <1>  jg near  leab70ae7b6bb
  6067 00003B94 68[30050000]        <1>  push DWORD  leab70a32303+    -24960
  6068 00003B99 010424              <1>  add  dword[esp] ,eax
  6069 00003B9C 8A98[B0020000]      <1>  mov bl,BYTE  [  eax+ leab70a32303+    -25600]
  6070 00003BA2 8A88[30000000]      <1>  mov cl,BYTE  [  eax+ leab70a32303+    -26240]
  6071 00003BA8 00CB                <1>  add  bl,cl
  6072 00003BAA 7108                <1>  jno $+10
  6073 00003BAC 7F04                <1>  jg $+6
  6074 00003BAE B380                <1>  mov bl ,-128 
  6075 00003BB0 7E02                <1>  jng $+4
  6076 00003BB2 B37F                <1>  mov bl,127
  6077 00003BB4 90                  <1>  nop
  6078 00003BB5 90                  <1>  nop
  6079 00003BB6 873424              <1>  xchg dword[esp],esi
  6080 00003BB9 881E                <1>   mov byte[esi],bl
  6081 00003BBB 5E                  <1>   pop esi
  6082 00003BBC 40                  <1>  inc DWORD eax
  6083 00003BBD 68[30050000]        <1>  push DWORD  leab70a32303+    -24960
  6084 00003BC2 010424              <1>  add  dword[esp] ,eax
  6085 00003BC5 8A98[B0020000]      <1>  mov bl,BYTE  [  eax+ leab70a32303+    -25600]
  6086 00003BCB 8A88[30000000]      <1>  mov cl,BYTE  [  eax+ leab70a32303+    -26240]
  6087 00003BD1 00CB                <1>  add  bl,cl
  6088 00003BD3 7108                <1>  jno $+10
  6089 00003BD5 7F04                <1>  jg $+6
  6090 00003BD7 B380                <1>  mov bl ,-128 
  6091 00003BD9 7E02                <1>  jng $+4
  6092 00003BDB B37F                <1>  mov bl,127
  6093 00003BDD 90                  <1>  nop
  6094 00003BDE 90                  <1>  nop
  6095 00003BDF 873424              <1>  xchg dword[esp],esi
  6096 00003BE2 881E                <1>   mov byte[esi],bl
  6097 00003BE4 5E                  <1>   pop esi
  6098 00003BE5 40                  <1>  inc DWORD eax
  6099 00003BE6 E99EFFFFFF          <1>  jmp  leab70ae7b6ba
  6100                              <1>  leab70ae7b6bb:
  6101 00003BEB 42                  <1>  inc DWORD edx
  6102 00003BEC E91FFFFFFF          <1>  jmp  leab70ae2c0b6
  6103                              <1>  leab70ae2c0b7:
  6104                              <1> ;102
  6105                              <1>  leab70a5a4e32:
  6106                              <1> spaceforvpixadd equ 16
  6107                              <1> vpixaddexit:
  6108 00003BF1 C9                  <1> leave
  6109 00003BF2 C20000              <1>  ret 0
  6110                              <1> section .text  
  6111                              <1> ; procedure generated by code generator class ilcg.tree.IA32CG
  6112                              <1> ; Walker version 0.43255946
  6113                              <1> leab70a53aa2c:
  6114                              <1> ;	 vpixmul
  6115 00003BF5 C80C0001            <1>  enter   spaceforvpixmul-4*1,1
  6116                              <1> ;95
  6117 00003BF9 BA01000000          <1>  mov DWORD edx,     1
  6118                              <1>  leab70ae964bc:
  6119 00003BFE 81FAA0860100        <1>  cmp DWORD edx,      100000
  6120 00003C04 0F8FE1000000        <1>  jg near  leab70ae964bd
  6121 00003C0A C745F000000000      <1>  mov DWORD  [  ebp+     -16],     0
  6122                              <1>  leab70aedecc0:
  6123 00003C11 817DF07F020000      <1>  cmp DWORD  [  ebp+     -16],      639
  6124 00003C18 0F8F59000000        <1>  jg near  leab70aedecc1
  6125                              <1> ; substituting in eax with 3 occurences and score of 5
  6126 00003C1E 8B45F0              <1>  mov eax,DWORD  [  ebp+     -16]
  6127 00003C21 8B7DF0              <1>  mov edi,DWORD  [  ebp+     -16]
  6128                              <1> ; substituting in eax with 2 occurences and score of 5
  6129 00003C24 8B45F0              <1>  mov eax,DWORD  [  ebp+     -16]
  6130 00003C27 8B4DF0              <1>  mov ecx,DWORD  [  ebp+     -16]
  6131 00003C2A 8A81[B0020000]      <1>  mov al,BYTE  [  ecx+ leab70a32303+    -25600]
  6132 00003C30 8B4DF0              <1>  mov ecx,DWORD  [  ebp+     -16]
  6133 00003C33 8A89[30000000]      <1>  mov cl,BYTE  [  ecx+ leab70a32303+    -26240]
  6134 00003C39 F6E9                <1>  imul  cl
  6135 00003C3B 66C1E807            <1>  shr ax,7
  6136 00003C3F 8887[30050000]      <1>  mov byte  [  edi+ leab70a32303+    -24960],al
  6137 00003C45 FF45F0              <1>  inc DWORD  [  ebp+     -16]
  6138                              <1> ; substituting in eax with 3 occurences and score of 5
  6139 00003C48 8B45F0              <1>  mov eax,DWORD  [  ebp+     -16]
  6140 00003C4B 8B7DF0              <1>  mov edi,DWORD  [  ebp+     -16]
  6141                              <1> ; substituting in eax with 2 occurences and score of 5
  6142 00003C4E 8B45F0              <1>  mov eax,DWORD  [  ebp+     -16]
  6143 00003C51 8B4DF0              <1>  mov ecx,DWORD  [  ebp+     -16]
  6144 00003C54 8A81[B0020000]      <1>  mov al,BYTE  [  ecx+ leab70a32303+    -25600]
  6145 00003C5A 8B4DF0              <1>  mov ecx,DWORD  [  ebp+     -16]
  6146 00003C5D 8A89[30000000]      <1>  mov cl,BYTE  [  ecx+ leab70a32303+    -26240]
  6147 00003C63 F6E9                <1>  imul  cl
  6148 00003C65 66C1E807            <1>  shr ax,7
  6149 00003C69 8887[30050000]      <1>  mov byte  [  edi+ leab70a32303+    -24960],al
  6150 00003C6F FF45F0              <1>  inc DWORD  [  ebp+     -16]
  6151 00003C72 E99AFFFFFF          <1>  jmp  leab70aedecc0
  6152                              <1>  leab70aedecc1:
  6153 00003C77 42                  <1>  inc DWORD edx
  6154 00003C78 C745F000000000      <1>  mov DWORD  [  ebp+     -16],     0
  6155                              <1>  leab70b01e2c4:
  6156 00003C7F 817DF07F020000      <1>  cmp DWORD  [  ebp+     -16],      639
  6157 00003C86 0F8F59000000        <1>  jg near  leab70b01e2c5
  6158                              <1> ; substituting in eax with 3 occurences and score of 5
  6159 00003C8C 8B45F0              <1>  mov eax,DWORD  [  ebp+     -16]
  6160 00003C8F 8B7DF0              <1>  mov edi,DWORD  [  ebp+     -16]
  6161                              <1> ; substituting in eax with 2 occurences and score of 5
  6162 00003C92 8B45F0              <1>  mov eax,DWORD  [  ebp+     -16]
  6163 00003C95 8B4DF0              <1>  mov ecx,DWORD  [  ebp+     -16]
  6164 00003C98 8A81[B0020000]      <1>  mov al,BYTE  [  ecx+ leab70a32303+    -25600]
  6165 00003C9E 8B4DF0              <1>  mov ecx,DWORD  [  ebp+     -16]
  6166 00003CA1 8A89[30000000]      <1>  mov cl,BYTE  [  ecx+ leab70a32303+    -26240]
  6167 00003CA7 F6E9                <1>  imul  cl
  6168 00003CA9 66C1E807            <1>  shr ax,7
  6169 00003CAD 8887[30050000]      <1>  mov byte  [  edi+ leab70a32303+    -24960],al
  6170 00003CB3 FF45F0              <1>  inc DWORD  [  ebp+     -16]
  6171                              <1> ; substituting in eax with 3 occurences and score of 5
  6172 00003CB6 8B45F0              <1>  mov eax,DWORD  [  ebp+     -16]
  6173 00003CB9 8B7DF0              <1>  mov edi,DWORD  [  ebp+     -16]
  6174                              <1> ; substituting in eax with 2 occurences and score of 5
  6175 00003CBC 8B45F0              <1>  mov eax,DWORD  [  ebp+     -16]
  6176 00003CBF 8B4DF0              <1>  mov ecx,DWORD  [  ebp+     -16]
  6177 00003CC2 8A81[B0020000]      <1>  mov al,BYTE  [  ecx+ leab70a32303+    -25600]
  6178 00003CC8 8B4DF0              <1>  mov ecx,DWORD  [  ebp+     -16]
  6179 00003CCB 8A89[30000000]      <1>  mov cl,BYTE  [  ecx+ leab70a32303+    -26240]
  6180 00003CD1 F6E9                <1>  imul  cl
  6181 00003CD3 66C1E807            <1>  shr ax,7
  6182 00003CD7 8887[30050000]      <1>  mov byte  [  edi+ leab70a32303+    -24960],al
  6183 00003CDD FF45F0              <1>  inc DWORD  [  ebp+     -16]
  6184 00003CE0 E99AFFFFFF          <1>  jmp  leab70b01e2c4
  6185                              <1>  leab70b01e2c5:
  6186 00003CE5 42                  <1>  inc DWORD edx
  6187 00003CE6 E913FFFFFF          <1>  jmp  leab70ae964bc
  6188                              <1>  leab70ae964bd:
  6189                              <1> ;96
  6190                              <1>  leab70a53aa2e:
  6191                              <1> spaceforvpixmul equ 16
  6192                              <1> vpixmulexit:
  6193 00003CEB C9                  <1> leave
  6194 00003CEC C20000              <1>  ret 0
  6195                              <1> section .text  
  6196                              <1> ; procedure generated by code generator class ilcg.tree.IA32CG
  6197                              <1> ; Walker version 0.43255946
  6198                              <1> leab70a51f226:
  6199                              <1> ;	 showtime
  6200 00003CEF C8100001            <1>  enter   spaceforshowtime-4*1,1
  6201                              <1> ;78
  6202                              <1> 	EXTERN _secs
  6203 00003CF3 E8(00000000)        <1>  call _secs; imported
  6204 00003CF8 81C400000000        <1>  add esp, 0
  6205 00003CFE D95DEC              <1>  fstp dword  [  ebp+     -20]
  6206 00003D01 D945EC              <1>  fld dword  [  ebp+     -20]
  6207 00003D04 D95DF8              <1>  fstp dword  [  ebp+     -8]
  6208                              <1> ;79
  6209 00003D07 D945F8              <1>  fld dword  [  ebp+     -8]
  6210 00003D0A D825[A4660000]      <1>  fsub DWORD  [  leab70a32303+    -12]
  6211 00003D10 D95DF4              <1>  fstp dword  [  ebp+     -12]
  6212                              <1> ;80
  6213 00003D13 6805000000          <1>  push DWORD      5
  6214 00003D18 680C000000          <1>  push DWORD      12
  6215 00003D1D FF75F4              <1>  push DWORD  [  ebp+     -12]
  6216 00003D20 6800000000          <1>  push DWORD      0
  6217                              <1> 	EXTERN _printreal
  6218 00003D25 E8(00000000)        <1>  call _printreal; imported
  6219 00003D2A 81C410000000        <1>  add esp, 16
  6220 00003D30 6805000000          <1>  push DWORD      5
  6221 00003D35 680C000000          <1>  push DWORD      12
  6222 00003D3A 68[8C070000]        <1>  push DWORD  leab70a52ce29
  6223 00003D3F 6800000000          <1>  push DWORD      0
  6224                              <1> 	EXTERN _printstring
  6225 00003D44 E8(00000000)        <1>  call _printstring; imported
  6226 00003D49 81C410000000        <1>  add esp, 16
  6227                              <1> ;81
  6228 00003D4F D905[A0660000]      <1>  fld dword  [  leab70a32303+    -16]
  6229 00003D55 D875F4              <1>  fdiv DWORD  [  ebp+     -12]
  6230 00003D58 D95DF0              <1>  fstp dword  [  ebp+     -16]
  6231                              <1> ;82
  6232 00003D5B 6800000000          <1>  push DWORD      0
  6233 00003D60 680C000000          <1>  push DWORD      12
  6234 00003D65 D945F0              <1>  fld dword  [  ebp+     -16]
  6235                              <1>  floadlit 1000000.0
  6236                              <2> section .data
  6237 0000061A 0000000080842E41    <2> %%lit: dq %1
  6238                              <2> 	section .text
  6239 00003D68 DD05[1A060000]      <2> 	fld qword[%%lit]
  6240 00003D6E DEF9                <1>  fdivp st1
  6241 00003D70 81EC04000000        <1>  sub esp,4
  6242 00003D76 D91C24              <1>  fstp dword [esp]
  6243 00003D79 6800000000          <1>  push DWORD      0
  6244                              <1> 	EXTERN _printreal
  6245 00003D7E E8(00000000)        <1>  call _printreal; imported
  6246 00003D83 81C410000000        <1>  add esp, 16
  6247 00003D89 6805000000          <1>  push DWORD      5
  6248 00003D8E 680C000000          <1>  push DWORD      12
  6249 00003D93 68[7D070000]        <1>  push DWORD  leab70a53002a
  6250 00003D98 6800000000          <1>  push DWORD      0
  6251                              <1> 	EXTERN _printstring
  6252 00003D9D E8(00000000)        <1>  call _printstring; imported
  6253 00003DA2 81C410000000        <1>  add esp, 16
  6254                              <1> ;83
  6255 00003DA8 D945F8              <1>  fld dword  [  ebp+     -8]
  6256 00003DAB D91D[A4660000]      <1>  fstp dword  [  leab70a32303+    -12]
  6257                              <1> ;84
  6258                              <1>  leab70a526028:
  6259                              <1> spaceforshowtime equ 20
  6260                              <1> showtimeexit:
  6261 00003DB1 C9                  <1> leave
  6262 00003DB2 C20000              <1>  ret 0
  6263                              <1> section .text  
  6264                              <1> ; procedure generated by code generator class ilcg.tree.IA32CG
  6265                              <1> ; Walker version 0.43255946
  6266                              <1> leab70a487e1a:
  6267                              <1> ;	 transpose
  6268 00003DB5 C8F00001            <1>  enter   spacefortranspose-4*1,1
  6269                              <1> ;35
  6270 00003DB9 BA01000000          <1>  mov DWORD edx,     1
  6271                              <1>  leab70b129acb:
  6272 00003DBE 81FA03000000        <1>  cmp DWORD edx,      3
  6273 00003DC4 0F8F0D000000        <1>  jg near  leab70b129acc
  6274 00003DCA 8D5AFF              <1>  lea ebx,[  edx-(     1)]
  6275 00003DCD 89549DE8            <1>  mov DWORD  [  ebp+ebx* 4+     -24],edx
  6276 00003DD1 42                  <1>  inc DWORD edx
  6277 00003DD2 E9E7FFFFFF          <1>  jmp  leab70b129acb
  6278                              <1>  leab70b129acc:
  6279                              <1> ;36
  6280 00003DD7 BA00000000          <1>  mov DWORD edx,     0
  6281                              <1>  leab70b1452cd:
  6282 00003DDC 81FA0A000000        <1>  cmp DWORD edx,      10
  6283 00003DE2 0F8F10000000        <1>  jg near  leab70b1452ce
  6284 00003DE8 89D3                <1>  mov DWORD ebx,edx
  6285 00003DEA 43                  <1>  inc DWORD ebx
  6286 00003DEB 899C957CFFFFFF      <1>  mov DWORD  [  ebp+edx* 4+     -132],ebx
  6287 00003DF2 42                  <1>  inc DWORD edx
  6288 00003DF3 E9E4FFFFFF          <1>  jmp  leab70b1452cd
  6289                              <1>  leab70b1452ce:
  6290                              <1> ;37
  6291 00003DF8 6805000000          <1>  push DWORD      5
  6292 00003DFD 680C000000          <1>  push DWORD      12
  6293 00003E02 68[F0070000]        <1>  push DWORD  leab70a4bb21d
  6294 00003E07 6800000000          <1>  push DWORD      0
  6295                              <1> 	EXTERN _printstring
  6296 00003E0C E8(00000000)        <1>  call _printstring; imported
  6297 00003E11 81C410000000        <1>  add esp, 16
  6298 00003E17 6800000000          <1>  push DWORD      0
  6299                              <1> 	EXTERN _println
  6300 00003E1C E8(00000000)        <1>  call _println; imported
  6301 00003E21 81C404000000        <1>  add esp, 4
  6302                              <1> ;37
  6303 00003E27 C745F400000000      <1>  mov DWORD  [  ebp+     -12],     0
  6304                              <1>  leab70b160ad1:
  6305 00003E2E 817DF403000000      <1>  cmp DWORD  [  ebp+     -12],      3
  6306 00003E35 0F8F53000000        <1>  jg near  leab70b160ad2
  6307 00003E3B 6805000000          <1>  push DWORD      5
  6308 00003E40 680C000000          <1>  push DWORD      12
  6309 00003E45 8B5DF4              <1>  mov ebx,DWORD  [  ebp+     -12]
  6310 00003E48 FFB49D7CFFFFFF      <1>  push DWORD  [  ebp+ebx* 4+     -132]
  6311 00003E4F 6800000000          <1>  push DWORD      0
  6312                              <1> 	EXTERN _printint
  6313 00003E54 E8(00000000)        <1>  call _printint; imported
  6314 00003E59 81C410000000        <1>  add esp, 16
  6315 00003E5F FF45F4              <1>  inc DWORD  [  ebp+     -12]
  6316 00003E62 6805000000          <1>  push DWORD      5
  6317 00003E67 680C000000          <1>  push DWORD      12
  6318 00003E6C 8B5DF4              <1>  mov ebx,DWORD  [  ebp+     -12]
  6319 00003E6F FFB49D7CFFFFFF      <1>  push DWORD  [  ebp+ebx* 4+     -132]
  6320 00003E76 6800000000          <1>  push DWORD      0
  6321                              <1> 	EXTERN _printint
  6322 00003E7B E8(00000000)        <1>  call _printint; imported
  6323 00003E80 81C410000000        <1>  add esp, 16
  6324 00003E86 FF45F4              <1>  inc DWORD  [  ebp+     -12]
  6325 00003E89 E9A0FFFFFF          <1>  jmp  leab70b160ad1
  6326                              <1>  leab70b160ad2:
  6327                              <1> ;37
  6328 00003E8E 6800000000          <1>  push DWORD      0
  6329                              <1> 	EXTERN _println
  6330 00003E93 E8(00000000)        <1>  call _println; imported
  6331 00003E98 81C404000000        <1>  add esp, 4
  6332                              <1> ;38
  6333 00003E9E 6805000000          <1>  push DWORD      5
  6334 00003EA3 680C000000          <1>  push DWORD      12
  6335 00003EA8 68[EC070000]        <1>  push DWORD  leab70a4c8e1e
  6336 00003EAD 6800000000          <1>  push DWORD      0
  6337                              <1> 	EXTERN _printstring
  6338 00003EB2 E8(00000000)        <1>  call _printstring; imported
  6339 00003EB7 81C410000000        <1>  add esp, 16
  6340 00003EBD 6800000000          <1>  push DWORD      0
  6341                              <1> 	EXTERN _println
  6342 00003EC2 E8(00000000)        <1>  call _println; imported
  6343 00003EC7 81C404000000        <1>  add esp, 4
  6344                              <1> ;39
  6345 00003ECD C745F801000000      <1>  mov DWORD  [  ebp+     -8],     1
  6346                              <1>  leab70b1786d8:
  6347 00003ED4 817DF803000000      <1>  cmp DWORD  [  ebp+     -8],      3
  6348 00003EDB 0F8F2C000000        <1>  jg near  leab70b1786d9
  6349 00003EE1 6805000000          <1>  push DWORD      5
  6350 00003EE6 680C000000          <1>  push DWORD      12
  6351 00003EEB 8B5DF8              <1>  mov ebx,DWORD  [  ebp+     -8]
  6352 00003EEE 8D5BFF              <1>  lea ebx,[  ebx-(     1)]
  6353 00003EF1 FF749DE8            <1>  push DWORD  [  ebp+ebx* 4+     -24]
  6354 00003EF5 6800000000          <1>  push DWORD      0
  6355                              <1> 	EXTERN _printint
  6356 00003EFA E8(00000000)        <1>  call _printint; imported
  6357 00003EFF 81C410000000        <1>  add esp, 16
  6358 00003F05 FF45F8              <1>  inc DWORD  [  ebp+     -8]
  6359 00003F08 E9C7FFFFFF          <1>  jmp  leab70b1786d8
  6360                              <1>  leab70b1786d9:
  6361                              <1> ;40
  6362 00003F0D 6800000000          <1>  push DWORD      0
  6363                              <1> 	EXTERN _println
  6364 00003F12 E8(00000000)        <1>  call _println; imported
  6365 00003F17 81C404000000        <1>  add esp, 4
  6366                              <1> ;41
  6367 00003F1D BA00000000          <1>  mov DWORD edx,     0
  6368                              <1>  leab70b189edc:
  6369 00003F22 81FA04000000        <1>  cmp DWORD edx,      4
  6370 00003F28 0F8F10000000        <1>  jg near  leab70b189edd
  6371 00003F2E 69DA02000000        <1>  imul ebx,dword edx,    2
  6372 00003F34 895C95C4            <1>  mov DWORD  [  ebp+edx* 4+     -60],ebx
  6373 00003F38 42                  <1>  inc DWORD edx
  6374 00003F39 E9E4FFFFFF          <1>  jmp  leab70b189edc
  6375                              <1>  leab70b189edd:
  6376                              <1> ;42
  6377 00003F3E 6805000000          <1>  push DWORD      5
  6378 00003F43 680C000000          <1>  push DWORD      12
  6379 00003F48 68[E8070000]        <1>  push DWORD  leab70a4eb41f
  6380 00003F4D 6800000000          <1>  push DWORD      0
  6381                              <1> 	EXTERN _printstring
  6382 00003F52 E8(00000000)        <1>  call _printstring; imported
  6383 00003F57 81C410000000        <1>  add esp, 16
  6384 00003F5D 6800000000          <1>  push DWORD      0
  6385                              <1> 	EXTERN _println
  6386 00003F62 E8(00000000)        <1>  call _println; imported
  6387 00003F67 81C404000000        <1>  add esp, 4
  6388                              <1> ;43
  6389 00003F6D C745F800000000      <1>  mov DWORD  [  ebp+     -8],     0
  6390                              <1>  leab70b1a1ae0:
  6391 00003F74 817DF804000000      <1>  cmp DWORD  [  ebp+     -8],      4
  6392 00003F7B 0F8F29000000        <1>  jg near  leab70b1a1ae1
  6393 00003F81 6805000000          <1>  push DWORD      5
  6394 00003F86 680C000000          <1>  push DWORD      12
  6395 00003F8B 8B5DF8              <1>  mov ebx,DWORD  [  ebp+     -8]
  6396 00003F8E FF749DC4            <1>  push DWORD  [  ebp+ebx* 4+     -60]
  6397 00003F92 6800000000          <1>  push DWORD      0
  6398                              <1> 	EXTERN _printint
  6399 00003F97 E8(00000000)        <1>  call _printint; imported
  6400 00003F9C 81C410000000        <1>  add esp, 16
  6401 00003FA2 FF45F8              <1>  inc DWORD  [  ebp+     -8]
  6402 00003FA5 E9CAFFFFFF          <1>  jmp  leab70b1a1ae0
  6403                              <1>  leab70b1a1ae1:
  6404                              <1> ;44
  6405 00003FAA 6800000000          <1>  push DWORD      0
  6406                              <1> 	EXTERN _println
  6407 00003FAF E8(00000000)        <1>  call _println; imported
  6408 00003FB4 81C404000000        <1>  add esp, 4
  6409                              <1> ;46
  6410 00003FBA BA01000000          <1>  mov DWORD edx,     1
  6411                              <1>  leab70b1ba0e4:
  6412 00003FBF 81FA03000000        <1>  cmp DWORD edx,      3
  6413 00003FC5 0F8F3A000000        <1>  jg near  leab70b1ba0e5
  6414 00003FCB B800000000          <1>  mov DWORD eax,     0
  6415                              <1>  leab70b1c40e6:
  6416 00003FD0 3D04000000          <1>  cmp DWORD eax,      4
  6417 00003FD5 0F8F24000000        <1>  jg near  leab70b1c40e7
  6418 00003FDB 8D7AFF              <1>  lea edi,[  edx-(     1)]
  6419 00003FDE 69FF14000000        <1>  imul edi,dword edi,    20
  6420 00003FE4 8D3C87              <1>  lea edi,[  edi+eax* 4]
  6421 00003FE7 8D72FF              <1>  lea esi,[  edx-(     1)]
  6422 00003FEA 8B74B5E8            <1>  mov esi,DWORD  [  ebp+esi* 4+     -24]
  6423 00003FEE 0FAF7485C4          <1>  imul  esi, [  ebp+eax* 4+     -60]
  6424 00003FF3 89B7[38660000]      <1>  mov DWORD  [  edi+ leab70a32303+    -120],esi
  6425 00003FF9 40                  <1>  inc DWORD eax
  6426 00003FFA E9D1FFFFFF          <1>  jmp  leab70b1c40e6
  6427                              <1>  leab70b1c40e7:
  6428 00003FFF 42                  <1>  inc DWORD edx
  6429 00004000 E9BAFFFFFF          <1>  jmp  leab70b1ba0e4
  6430                              <1>  leab70b1ba0e5:
  6431                              <1> ;47
  6432 00004005 6805000000          <1>  push DWORD      5
  6433 0000400A 680C000000          <1>  push DWORD      12
  6434 0000400F 68[D9070000]        <1>  push DWORD  leab70a4f2220
  6435 00004014 6800000000          <1>  push DWORD      0
  6436                              <1> 	EXTERN _printstring
  6437 00004019 E8(00000000)        <1>  call _printstring; imported
  6438 0000401E 81C410000000        <1>  add esp, 16
  6439 00004024 6800000000          <1>  push DWORD      0
  6440                              <1> 	EXTERN _println
  6441 00004029 E8(00000000)        <1>  call _println; imported
  6442 0000402E 81C404000000        <1>  add esp, 4
  6443                              <1> ;52
  6444 00004034 C745F801000000      <1>  mov DWORD  [  ebp+     -8],     1
  6445                              <1>  leab70b2622ea:
  6446 0000403B 817DF803000000      <1>  cmp DWORD  [  ebp+     -8],      3
  6447 00004042 0F8F66000000        <1>  jg near  leab70b2622eb
  6448                              <1> ;50
  6449 00004048 C745F400000000      <1>  mov DWORD  [  ebp+     -12],     0
  6450                              <1>  leab70b26c2ec:
  6451 0000404F 817DF404000000      <1>  cmp DWORD  [  ebp+     -12],      4
  6452 00004056 0F8F3A000000        <1>  jg near  leab70b26c2ed
  6453 0000405C 6805000000          <1>  push DWORD      5
  6454 00004061 680C000000          <1>  push DWORD      12
  6455 00004066 8B7DF8              <1>  mov edi,DWORD  [  ebp+     -8]
  6456 00004069 8D7FFF              <1>  lea edi,[  edi-(     1)]
  6457 0000406C 69FF14000000        <1>  imul edi,dword edi,    20
  6458 00004072 8B75F4              <1>  mov esi,DWORD  [  ebp+     -12]
  6459 00004075 8D3CB7              <1>  lea edi,[  edi+esi* 4]
  6460 00004078 FFB7[38660000]      <1>  push DWORD  [  edi+ leab70a32303+    -120]
  6461 0000407E 6800000000          <1>  push DWORD      0
  6462                              <1> 	EXTERN _printint
  6463 00004083 E8(00000000)        <1>  call _printint; imported
  6464 00004088 81C410000000        <1>  add esp, 16
  6465 0000408E FF45F4              <1>  inc DWORD  [  ebp+     -12]
  6466 00004091 E9B9FFFFFF          <1>  jmp  leab70b26c2ec
  6467                              <1>  leab70b26c2ed:
  6468                              <1> ;51
  6469 00004096 6800000000          <1>  push DWORD      0
  6470                              <1> 	EXTERN _println
  6471 0000409B E8(00000000)        <1>  call _println; imported
  6472 000040A0 81C404000000        <1>  add esp, 4
  6473                              <1> ;52
  6474 000040A6 FF45F8              <1>  inc DWORD  [  ebp+     -8]
  6475 000040A9 E98DFFFFFF          <1>  jmp  leab70b2622ea
  6476                              <1>  leab70b2622eb:
  6477                              <1> ;53
  6478 000040AE BA00000000          <1>  mov DWORD edx,     0
  6479                              <1>  leab70b2c58f0:
  6480 000040B3 81FA04000000        <1>  cmp DWORD edx,      4
  6481 000040B9 0F8F40000000        <1>  jg near  leab70b2c58f1
  6482 000040BF B801000000          <1>  mov DWORD eax,     1
  6483                              <1>  leab70b2d02f2:
  6484 000040C4 3D03000000          <1>  cmp DWORD eax,      3
  6485 000040C9 0F8F2A000000        <1>  jg near  leab70b2d02f3
  6486 000040CF 69FA0C000000        <1>  imul edi,dword edx,    12
  6487 000040D5 8D70FF              <1>  lea esi,[  eax-(     1)]
  6488 000040D8 8D3CB7              <1>  lea edi,[  edi+esi* 4]
  6489 000040DB 8D48FF              <1>  lea ecx,[  eax-(     1)]
  6490 000040DE 69C914000000        <1>  imul ecx,dword ecx,    20
  6491 000040E4 8D0C91              <1>  lea ecx,[  ecx+edx* 4]
  6492 000040E7 8BB1[38660000]      <1>  mov esi,DWORD  [  ecx+ leab70a32303+    -120]
  6493 000040ED 89B7[FC650000]      <1>  mov DWORD  [  edi+ leab70a32303+    -180],esi
  6494 000040F3 40                  <1>  inc DWORD eax
  6495 000040F4 E9CBFFFFFF          <1>  jmp  leab70b2d02f2
  6496                              <1>  leab70b2d02f3:
  6497 000040F9 42                  <1>  inc DWORD edx
  6498 000040FA E9B4FFFFFF          <1>  jmp  leab70b2c58f0
  6499                              <1>  leab70b2c58f1:
  6500                              <1> ;54
  6501 000040FF 6805000000          <1>  push DWORD      5
  6502 00004104 680C000000          <1>  push DWORD      12
  6503 00004109 68[BD070000]        <1>  push DWORD  leab70a506c21
  6504 0000410E 6800000000          <1>  push DWORD      0
  6505                              <1> 	EXTERN _printstring
  6506 00004113 E8(00000000)        <1>  call _printstring; imported
  6507 00004118 81C410000000        <1>  add esp, 16
  6508 0000411E 6800000000          <1>  push DWORD      0
  6509                              <1> 	EXTERN _println
  6510 00004123 E8(00000000)        <1>  call _println; imported
  6511 00004128 81C404000000        <1>  add esp, 4
  6512                              <1> ;59
  6513 0000412E C745F800000000      <1>  mov DWORD  [  ebp+     -8],     0
  6514                              <1>  leab70b46f2f6:
  6515 00004135 817DF804000000      <1>  cmp DWORD  [  ebp+     -8],      4
  6516 0000413C 0F8F64000000        <1>  jg near  leab70b46f2f7
  6517                              <1> ;57
  6518 00004142 C745F401000000      <1>  mov DWORD  [  ebp+     -12],     1
  6519                              <1>  leab70b4760f8:
  6520 00004149 817DF403000000      <1>  cmp DWORD  [  ebp+     -12],      3
  6521 00004150 0F8F38000000        <1>  jg near  leab70b4760f9
  6522 00004156 6805000000          <1>  push DWORD      5
  6523 0000415B 680C000000          <1>  push DWORD      12
  6524 00004160 697DF80C000000      <1>  imul edi,dword  [  ebp+     -8],    12
  6525 00004167 8B75F4              <1>  mov esi,DWORD  [  ebp+     -12]
  6526 0000416A 8D76FF              <1>  lea esi,[  esi-(     1)]
  6527 0000416D 8D3CB7              <1>  lea edi,[  edi+esi* 4]
  6528 00004170 FFB7[FC650000]      <1>  push DWORD  [  edi+ leab70a32303+    -180]
  6529 00004176 6800000000          <1>  push DWORD      0
  6530                              <1> 	EXTERN _printint
  6531 0000417B E8(00000000)        <1>  call _printint; imported
  6532 00004180 81C410000000        <1>  add esp, 16
  6533 00004186 FF45F4              <1>  inc DWORD  [  ebp+     -12]
  6534 00004189 E9BBFFFFFF          <1>  jmp  leab70b4760f8
  6535                              <1>  leab70b4760f9:
  6536                              <1> ;58
  6537 0000418E 6800000000          <1>  push DWORD      0
  6538                              <1> 	EXTERN _println
  6539 00004193 E8(00000000)        <1>  call _println; imported
  6540 00004198 81C404000000        <1>  add esp, 4
  6541                              <1> ;59
  6542 0000419E FF45F8              <1>  inc DWORD  [  ebp+     -8]
  6543 000041A1 E98FFFFFFF          <1>  jmp  leab70b46f2f6
  6544                              <1>  leab70b46f2f7:
  6545                              <1> ;60
  6546 000041A6 BA00000000          <1>  mov DWORD edx,     0
  6547                              <1>  leab70b4ee0fc:
  6548 000041AB 81FA04000000        <1>  cmp DWORD edx,      4
  6549 000041B1 0F8F31000000        <1>  jg near  leab70b4ee0fd
  6550 000041B7 B801000000          <1>  mov DWORD eax,     1
  6551                              <1>  leab70b4f8afe:
  6552 000041BC 3D03000000          <1>  cmp DWORD eax,      3
  6553 000041C1 0F8F1B000000        <1>  jg near  leab70b4f8aff
  6554 000041C7 69FA0C000000        <1>  imul edi,dword edx,    12
  6555 000041CD 8D70FF              <1>  lea esi,[  eax-(     1)]
  6556 000041D0 8D3CB7              <1>  lea edi,[  edi+esi* 4]
  6557 000041D3 8D3442              <1>  lea esi,[  edx+eax* 2]
  6558 000041D6 89B7[FC650000]      <1>  mov DWORD  [  edi+ leab70a32303+    -180],esi
  6559 000041DC 40                  <1>  inc DWORD eax
  6560 000041DD E9DAFFFFFF          <1>  jmp  leab70b4f8afe
  6561                              <1>  leab70b4f8aff:
  6562 000041E2 42                  <1>  inc DWORD edx
  6563 000041E3 E9C3FFFFFF          <1>  jmp  leab70b4ee0fc
  6564                              <1>  leab70b4ee0fd:
  6565                              <1> ;61
  6566 000041E8 6805000000          <1>  push DWORD      5
  6567 000041ED 680C000000          <1>  push DWORD      12
  6568 000041F2 68[A5070000]        <1>  push DWORD  leab70a50da22
  6569 000041F7 6800000000          <1>  push DWORD      0
  6570                              <1> 	EXTERN _printstring
  6571 000041FC E8(00000000)        <1>  call _printstring; imported
  6572 00004201 81C410000000        <1>  add esp, 16
  6573 00004207 6800000000          <1>  push DWORD      0
  6574                              <1> 	EXTERN _println
  6575 0000420C E8(00000000)        <1>  call _println; imported
  6576 00004211 81C404000000        <1>  add esp, 4
  6577                              <1> ;66
  6578 00004217 C745F800000000      <1>  mov DWORD  [  ebp+     -8],     0
  6579                              <1>  leab70b528c102:
  6580 0000421E 817DF804000000      <1>  cmp DWORD  [  ebp+     -8],      4
  6581 00004225 0F8F64000000        <1>  jg near  leab70b528c103
  6582                              <1> ;64
  6583 0000422B C745F401000000      <1>  mov DWORD  [  ebp+     -12],     1
  6584                              <1>  leab70b528c104:
  6585 00004232 817DF403000000      <1>  cmp DWORD  [  ebp+     -12],      3
  6586 00004239 0F8F38000000        <1>  jg near  leab70b528c105
  6587 0000423F 6805000000          <1>  push DWORD      5
  6588 00004244 680C000000          <1>  push DWORD      12
  6589 00004249 697DF80C000000      <1>  imul edi,dword  [  ebp+     -8],    12
  6590 00004250 8B75F4              <1>  mov esi,DWORD  [  ebp+     -12]
  6591 00004253 8D76FF              <1>  lea esi,[  esi-(     1)]
  6592 00004256 8D3CB7              <1>  lea edi,[  edi+esi* 4]
  6593 00004259 FFB7[FC650000]      <1>  push DWORD  [  edi+ leab70a32303+    -180]
  6594 0000425F 6800000000          <1>  push DWORD      0
  6595                              <1> 	EXTERN _printint
  6596 00004264 E8(00000000)        <1>  call _printint; imported
  6597 00004269 81C410000000        <1>  add esp, 16
  6598 0000426F FF45F4              <1>  inc DWORD  [  ebp+     -12]
  6599 00004272 E9BBFFFFFF          <1>  jmp  leab70b528c104
  6600                              <1>  leab70b528c105:
  6601                              <1> ;65
  6602 00004277 6800000000          <1>  push DWORD      0
  6603                              <1> 	EXTERN _println
  6604 0000427C E8(00000000)        <1>  call _println; imported
  6605 00004281 81C404000000        <1>  add esp, 4
  6606                              <1> ;66
  6607 00004287 FF45F8              <1>  inc DWORD  [  ebp+     -8]
  6608 0000428A E98FFFFFFF          <1>  jmp  leab70b528c102
  6609                              <1>  leab70b528c103:
  6610                              <1> ;68
  6611 0000428F BA00000000          <1>  mov DWORD edx,     0
  6612                              <1>  leab70b532c108:
  6613 00004294 81FA03000000        <1>  cmp DWORD edx,      3
  6614 0000429A 0F8F7D000000        <1>  jg near  leab70b532c109
  6615                              <1> ; substituting in eax with 2 occurences and score of 4
  6616 000042A0 8D1D[F4070000]      <1>  lea ebx,[  vectestsleab70a469417]
  6617 000042A6 8B0493              <1>  mov eax,DWORD  [  ebx+edx* 4]
  6618 000042A9 3D00000000          <1>  cmp DWORD eax,      0
  6619 000042AE 0F8C10000000        <1>  jl near  leab70b539a10a
  6620 000042B4 3D0A000000          <1>  cmp DWORD eax,      10
  6621 000042B9 0F8F05000000        <1>  jg near  leab70b539a10a
  6622 000042BF E902000000          <1>  jmp  leab70b539a10b
  6623                              <1>  leab70b539a10a:
  6624 000042C4 CD05                <1>  int     5
  6625                              <1>  leab70b539a10b:
  6626 000042C6 8B1C95[F4070000]    <1>  mov ebx,DWORD  [  edx* 4+ vectestsleab70a469417]
  6627 000042CD 8B9C9D7CFFFFFF      <1>  mov ebx,DWORD  [  ebp+ebx* 4+     -132]
  6628 000042D4 899C9560FFFFFF      <1>  mov DWORD  [  ebp+edx* 4+     -160],ebx
  6629 000042DB 42                  <1>  inc DWORD edx
  6630                              <1> ; substituting in eax with 2 occurences and score of 4
  6631 000042DC 8D1D[F4070000]      <1>  lea ebx,[  vectestsleab70a469417]
  6632 000042E2 8B0493              <1>  mov eax,DWORD  [  ebx+edx* 4]
  6633 000042E5 3D00000000          <1>  cmp DWORD eax,      0
  6634 000042EA 0F8C10000000        <1>  jl near  leab70b544410c
  6635 000042F0 3D0A000000          <1>  cmp DWORD eax,      10
  6636 000042F5 0F8F05000000        <1>  jg near  leab70b544410c
  6637 000042FB E902000000          <1>  jmp  leab70b544410d
  6638                              <1>  leab70b544410c:
  6639 00004300 CD05                <1>  int     5
  6640                              <1>  leab70b544410d:
  6641 00004302 8B1C95[F4070000]    <1>  mov ebx,DWORD  [  edx* 4+ vectestsleab70a469417]
  6642 00004309 8B9C9D7CFFFFFF      <1>  mov ebx,DWORD  [  ebp+ebx* 4+     -132]
  6643 00004310 899C9560FFFFFF      <1>  mov DWORD  [  ebp+edx* 4+     -160],ebx
  6644 00004317 42                  <1>  inc DWORD edx
  6645 00004318 E977FFFFFF          <1>  jmp  leab70b532c108
  6646                              <1>  leab70b532c109:
  6647                              <1> ;69
  6648 0000431D 6805000000          <1>  push DWORD      5
  6649 00004322 680C000000          <1>  push DWORD      12
  6650 00004327 68[9E070000]        <1>  push DWORD  leab70a514823
  6651 0000432C 6800000000          <1>  push DWORD      0
  6652                              <1> 	EXTERN _printstring
  6653 00004331 E8(00000000)        <1>  call _printstring; imported
  6654 00004336 81C410000000        <1>  add esp, 16
  6655 0000433C 6800000000          <1>  push DWORD      0
  6656                              <1> 	EXTERN _println
  6657 00004341 E8(00000000)        <1>  call _println; imported
  6658 00004346 81C404000000        <1>  add esp, 4
  6659                              <1> ;69
  6660 0000434C C745F400000000      <1>  mov DWORD  [  ebp+     -12],     0
  6661                              <1>  leab70b5476110:
  6662 00004353 817DF403000000      <1>  cmp DWORD  [  ebp+     -12],      3
  6663 0000435A 0F8F53000000        <1>  jg near  leab70b5476111
  6664 00004360 6805000000          <1>  push DWORD      5
  6665 00004365 680C000000          <1>  push DWORD      12
  6666 0000436A 8B5DF4              <1>  mov ebx,DWORD  [  ebp+     -12]
  6667 0000436D FF349D[F4070000]    <1>  push DWORD  [  ebx* 4+ vectestsleab70a469417]
  6668 00004374 6800000000          <1>  push DWORD      0
  6669                              <1> 	EXTERN _printint
  6670 00004379 E8(00000000)        <1>  call _printint; imported
  6671 0000437E 81C410000000        <1>  add esp, 16
  6672 00004384 FF45F4              <1>  inc DWORD  [  ebp+     -12]
  6673 00004387 6805000000          <1>  push DWORD      5
  6674 0000438C 680C000000          <1>  push DWORD      12
  6675 00004391 8B5DF4              <1>  mov ebx,DWORD  [  ebp+     -12]
  6676 00004394 FF349D[F4070000]    <1>  push DWORD  [  ebx* 4+ vectestsleab70a469417]
  6677 0000439B 6800000000          <1>  push DWORD      0
  6678                              <1> 	EXTERN _printint
  6679 000043A0 E8(00000000)        <1>  call _printint; imported
  6680 000043A5 81C410000000        <1>  add esp, 16
  6681 000043AB FF45F4              <1>  inc DWORD  [  ebp+     -12]
  6682 000043AE E9A0FFFFFF          <1>  jmp  leab70b5476110
  6683                              <1>  leab70b5476111:
  6684                              <1> ;69
  6685 000043B3 6800000000          <1>  push DWORD      0
  6686                              <1> 	EXTERN _println
  6687 000043B8 E8(00000000)        <1>  call _println; imported
  6688 000043BD 81C404000000        <1>  add esp, 4
  6689                              <1> ;70
  6690 000043C3 6805000000          <1>  push DWORD      5
  6691 000043C8 680C000000          <1>  push DWORD      12
  6692 000043CD 68[90070000]        <1>  push DWORD  leab70a51b624
  6693 000043D2 6800000000          <1>  push DWORD      0
  6694                              <1> 	EXTERN _printstring
  6695 000043D7 E8(00000000)        <1>  call _printstring; imported
  6696 000043DC 81C410000000        <1>  add esp, 16
  6697 000043E2 6800000000          <1>  push DWORD      0
  6698                              <1> 	EXTERN _println
  6699 000043E7 E8(00000000)        <1>  call _println; imported
  6700 000043EC 81C404000000        <1>  add esp, 4
  6701                              <1> ;70
  6702 000043F2 C745F400000000      <1>  mov DWORD  [  ebp+     -12],     0
  6703                              <1>  leab70b54b2117:
  6704 000043F9 817DF403000000      <1>  cmp DWORD  [  ebp+     -12],      3
  6705 00004400 0F8F53000000        <1>  jg near  leab70b54b2118
  6706 00004406 6805000000          <1>  push DWORD      5
  6707 0000440B 680C000000          <1>  push DWORD      12
  6708 00004410 8B5DF4              <1>  mov ebx,DWORD  [  ebp+     -12]
  6709 00004413 FFB49D60FFFFFF      <1>  push DWORD  [  ebp+ebx* 4+     -160]
  6710 0000441A 6800000000          <1>  push DWORD      0
  6711                              <1> 	EXTERN _printint
  6712 0000441F E8(00000000)        <1>  call _printint; imported
  6713 00004424 81C410000000        <1>  add esp, 16
  6714 0000442A FF45F4              <1>  inc DWORD  [  ebp+     -12]
  6715 0000442D 6805000000          <1>  push DWORD      5
  6716 00004432 680C000000          <1>  push DWORD      12
  6717 00004437 8B5DF4              <1>  mov ebx,DWORD  [  ebp+     -12]
  6718 0000443A FFB49D60FFFFFF      <1>  push DWORD  [  ebp+ebx* 4+     -160]
  6719 00004441 6800000000          <1>  push DWORD      0
  6720                              <1> 	EXTERN _printint
  6721 00004446 E8(00000000)        <1>  call _printint; imported
  6722 0000444B 81C410000000        <1>  add esp, 16
  6723 00004451 FF45F4              <1>  inc DWORD  [  ebp+     -12]
  6724 00004454 E9A0FFFFFF          <1>  jmp  leab70b54b2117
  6725                              <1>  leab70b54b2118:
  6726                              <1> ;70
  6727 00004459 6800000000          <1>  push DWORD      0
  6728                              <1> 	EXTERN _println
  6729 0000445E E8(00000000)        <1>  call _println; imported
  6730 00004463 81C404000000        <1>  add esp, 4
  6731                              <1> ;73
  6732                              <1>  leab70a487e1c:
  6733                              <1> spacefortranspose equ 244
  6734                              <1> transposeexit:
  6735 00004469 C9                  <1> leave
  6736 0000446A C20000              <1>  ret 0
  6737                              <1> section .text  
  6738                              <1> ; procedure generated by code generator class ilcg.tree.IA32CG
  6739                              <1> ; Walker version 0.43255946
  6740                              <1> leab70a6b4264:
  6741                              <1> ;	 unit$vectests
  6742                              <1> unit$vectests:
  6743 0000446D C8000000            <1>  enter  0,0
  6744 00004471 E81EC6FFFF          <1>  call unit$system
  6745 00004476 803D[2A060000]01    <1> cmp byte[unit$vectestsready],1
  6746 0000447D 7505                <1>  jnz unit$vectestsinit
  6747 0000447F E91D000000          <1>  jmp unit$vectestsexit
  6748 00004484 C605[2A060000]01    <1> unit$vectestsinit:mov byte[unit$vectestsready],1
  6749                              <1> ;180
  6750                              <1>  floadlit 9.2
  6751                              <2> section .data
  6752 00000622 6666666666662240    <2> %%lit: dq %1
  6753                              <2> 	section .text
  6754 0000448B DD05[22060000]      <2> 	fld qword[%%lit]
  6755 00004491 D91D[B4520000]      <1>  fstp dword  [  leab70a32303+    -5116]
  6756                              <1> ;181
  6757 00004497 C705[A8660000]0300- <1>  mov DWORD  [  leab70a32303+    -8],     3
  6758 0000449F 0000                <1>
  6759                              <1> ;182
  6760                              <1>  leab70a42b616:
  6761                              <1> spaceforunit$vectests equ 26240
  6762                              <1> unit$vectestsexit:
  6763 000044A1 C9                  <1> leave
  6764 000044A2 C20000              <1>  ret 0
  6765                              <1> 	SECTION .bss
  6766                              <1> 	alignb 16
  6767 00000030 <res 00006680>      <1> resb spaceforunit$vectests
  6768                              <1> 	alignb 16
  6769                              <1>  leab70a32303:
  6770                              <1> 	SECTION .data
  6771 0000062A 00000000            <1> unit$vectestsready dd 0
  6772                              <1>  leab70a623c63:
  6773 0000062E 0E                  <1>  db  14
  6774 0000062F 73                  <1>  db  115
  6775 00000630 68                  <1>  db  104
  6776 00000631 6F                  <1>  db  111
  6777 00000632 75                  <1>  db  117
  6778 00000633 6C                  <1>  db  108
  6779 00000634 64                  <1>  db  100
  6780 00000635 20                  <1>  db  32
  6781 00000636 62                  <1>  db  98
  6782 00000637 65                  <1>  db  101
  6783 00000638 20                  <1>  db  32
  6784 00000639 30                  <1>  db  48
  6785 0000063A 2E                  <1>  db  46
  6786 0000063B 37                  <1>  db  55
  6787 0000063C 35                  <1>  db  53
  6788 0000063D 00                  <1>  db  0
  6789                              <1>  leab70a620a62:
  6790 0000063E 37                  <1>  db  55
  6791 0000063F 72                  <1>  db  114
  6792 00000640 65                  <1>  db  101
  6793 00000641 61                  <1>  db  97
  6794 00000642 6C                  <1>  db  108
  6795 00000643 20                  <1>  db  32
  6796 00000644 64                  <1>  db  100
  6797 00000645 6F                  <1>  db  111
  6798 00000646 74                  <1>  db  116
  6799 00000647 20                  <1>  db  32
  6800 00000648 70                  <1>  db  112
  6801 00000649 72                  <1>  db  114
  6802 0000064A 6F                  <1>  db  111
  6803 0000064B 64                  <1>  db  100
  6804 0000064C 75                  <1>  db  117
  6805 0000064D 63                  <1>  db  99
  6806 0000064E 74                  <1>  db  116
  6807 0000064F 20                  <1>  db  32
  6808 00000650 6D                  <1>  db  109
  6809 00000651 75                  <1>  db  117
  6810 00000652 6C                  <1>  db  108
  6811 00000653 74                  <1>  db  116
  6812 00000654 69                  <1>  db  105
  6813 00000655 70                  <1>  db  112
  6814 00000656 6C                  <1>  db  108
  6815 00000657 79                  <1>  db  121
  6816 00000658 20                  <1>  db  32
  6817 00000659 61                  <1>  db  97
  6818 0000065A 63                  <1>  db  99
  6819 0000065B 63                  <1>  db  99
  6820 0000065C 75                  <1>  db  117
  6821 0000065D 6D                  <1>  db  109
  6822 0000065E 75                  <1>  db  117
  6823 0000065F 6C                  <1>  db  108
  6824 00000660 61                  <1>  db  97
  6825 00000661 74                  <1>  db  116
  6826 00000662 65                  <1>  db  101
  6827 00000663 73                  <1>  db  115
  6828 00000664 20                  <1>  db  32
  6829 00000665 64                  <1>  db  100
  6830 00000666 6F                  <1>  db  111
  6831 00000667 6E                  <1>  db  110
  6832 00000668 65                  <1>  db  101
  6833 00000669 20                  <1>  db  32
  6834 0000066A 61                  <1>  db  97
  6835 0000066B 73                  <1>  db  115
  6836 0000066C 20                  <1>  db  32
  6837 0000066D 32                  <1>  db  50
  6838 0000066E 20                  <1>  db  32
  6839 0000066F 73                  <1>  db  115
  6840 00000670 74                  <1>  db  116
  6841 00000671 61                  <1>  db  97
  6842 00000672 67                  <1>  db  103
  6843 00000673 65                  <1>  db  101
  6844 00000674 73                  <1>  db  115
  6845 00000675 20                  <1>  db  32
  6846 00000676 00                  <1>  db  0
  6847                              <1>  leab70a60c061:
  6848 00000677 29                  <1>  db  41
  6849 00000678 69                  <1>  db  105
  6850 00000679 6E                  <1>  db  110
  6851 0000067A 74                  <1>  db  116
  6852 0000067B 65                  <1>  db  101
  6853 0000067C 67                  <1>  db  103
  6854 0000067D 65                  <1>  db  101
  6855 0000067E 72                  <1>  db  114
  6856 0000067F 20                  <1>  db  32
  6857 00000680 64                  <1>  db  100
  6858 00000681 6F                  <1>  db  111
  6859 00000682 74                  <1>  db  116
  6860 00000683 20                  <1>  db  32
  6861 00000684 70                  <1>  db  112
  6862 00000685 72                  <1>  db  114
  6863 00000686 6F                  <1>  db  111
  6864 00000687 64                  <1>  db  100
  6865 00000688 75                  <1>  db  117
  6866 00000689 63                  <1>  db  99
  6867 0000068A 74                  <1>  db  116
  6868 0000068B 20                  <1>  db  32
  6869 0000068C 6D                  <1>  db  109
  6870 0000068D 75                  <1>  db  117
  6871 0000068E 6C                  <1>  db  108
  6872 0000068F 74                  <1>  db  116
  6873 00000690 69                  <1>  db  105
  6874 00000691 70                  <1>  db  112
  6875 00000692 6C                  <1>  db  108
  6876 00000693 79                  <1>  db  121
  6877 00000694 20                  <1>  db  32
  6878 00000695 61                  <1>  db  97
  6879 00000696 63                  <1>  db  99
  6880 00000697 63                  <1>  db  99
  6881 00000698 75                  <1>  db  117
  6882 00000699 6D                  <1>  db  109
  6883 0000069A 75                  <1>  db  117
  6884 0000069B 6C                  <1>  db  108
  6885 0000069C 61                  <1>  db  97
  6886 0000069D 74                  <1>  db  116
  6887 0000069E 65                  <1>  db  101
  6888 0000069F 73                  <1>  db  115
  6889 000006A0 20                  <1>  db  32
  6890 000006A1 00                  <1>  db  0
  6891                              <1>  leab70a608460:
  6892 000006A2 26                  <1>  db  38
  6893 000006A3 72                  <1>  db  114
  6894 000006A4 65                  <1>  db  101
  6895 000006A5 61                  <1>  db  97
  6896 000006A6 6C                  <1>  db  108
  6897 000006A7 20                  <1>  db  32
  6898 000006A8 64                  <1>  db  100
  6899 000006A9 6F                  <1>  db  111
  6900 000006AA 74                  <1>  db  116
  6901 000006AB 20                  <1>  db  32
  6902 000006AC 70                  <1>  db  112
  6903 000006AD 72                  <1>  db  114
  6904 000006AE 6F                  <1>  db  111
  6905 000006AF 64                  <1>  db  100
  6906 000006B0 75                  <1>  db  117
  6907 000006B1 63                  <1>  db  99
  6908 000006B2 74                  <1>  db  116
  6909 000006B3 20                  <1>  db  32
  6910 000006B4 6D                  <1>  db  109
  6911 000006B5 75                  <1>  db  117
  6912 000006B6 6C                  <1>  db  108
  6913 000006B7 74                  <1>  db  116
  6914 000006B8 69                  <1>  db  105
  6915 000006B9 70                  <1>  db  112
  6916 000006BA 6C                  <1>  db  108
  6917 000006BB 79                  <1>  db  121
  6918 000006BC 20                  <1>  db  32
  6919 000006BD 61                  <1>  db  97
  6920 000006BE 63                  <1>  db  99
  6921 000006BF 63                  <1>  db  99
  6922 000006C0 75                  <1>  db  117
  6923 000006C1 6D                  <1>  db  109
  6924 000006C2 75                  <1>  db  117
  6925 000006C3 6C                  <1>  db  108
  6926 000006C4 61                  <1>  db  97
  6927 000006C5 74                  <1>  db  116
  6928 000006C6 65                  <1>  db  101
  6929 000006C7 73                  <1>  db  115
  6930 000006C8 20                  <1>  db  32
  6931 000006C9 00                  <1>  db  0
  6932                              <1>  leab70a60845f:
  6933 000006CA 0F                  <1>  db  15
  6934 000006CB 72                  <1>  db  114
  6935 000006CC 65                  <1>  db  101
  6936 000006CD 61                  <1>  db  97
  6937 000006CE 6C                  <1>  db  108
  6938 000006CF 20                  <1>  db  32
  6939 000006D0 61                  <1>  db  97
  6940 000006D1 64                  <1>  db  100
  6941 000006D2 64                  <1>  db  100
  6942 000006D3 69                  <1>  db  105
  6943 000006D4 74                  <1>  db  116
  6944 000006D5 69                  <1>  db  105
  6945 000006D6 6F                  <1>  db  111
  6946 000006D7 6E                  <1>  db  110
  6947 000006D8 73                  <1>  db  115
  6948 000006D9 20                  <1>  db  32
  6949 000006DA 00                  <1>  db  0
  6950                              <1>  leab70a60845e:
  6951 000006DB 13                  <1>  db  19
  6952 000006DC 73                  <1>  db  115
  6953 000006DD 68                  <1>  db  104
  6954 000006DE 6F                  <1>  db  111
  6955 000006DF 72                  <1>  db  114
  6956 000006E0 74                  <1>  db  116
  6957 000006E1 69                  <1>  db  105
  6958 000006E2 6E                  <1>  db  110
  6959 000006E3 74                  <1>  db  116
  6960 000006E4 20                  <1>  db  32
  6961 000006E5 61                  <1>  db  97
  6962 000006E6 64                  <1>  db  100
  6963 000006E7 64                  <1>  db  100
  6964 000006E8 69                  <1>  db  105
  6965 000006E9 74                  <1>  db  116
  6966 000006EA 69                  <1>  db  105
  6967 000006EB 6F                  <1>  db  111
  6968 000006EC 6E                  <1>  db  110
  6969 000006ED 73                  <1>  db  115
  6970 000006EE 20                  <1>  db  32
  6971 000006EF 00                  <1>  db  0
  6972                              <1>  leab70a60165d:
  6973 000006F0 0E                  <1>  db  14
  6974 000006F1 20                  <1>  db  32
  6975 000006F2 69                  <1>  db  105
  6976 000006F3 6E                  <1>  db  110
  6977 000006F4 74                  <1>  db  116
  6978 000006F5 20                  <1>  db  32
  6979 000006F6 61                  <1>  db  97
  6980 000006F7 64                  <1>  db  100
  6981 000006F8 64                  <1>  db  100
  6982 000006F9 69                  <1>  db  105
  6983 000006FA 74                  <1>  db  116
  6984 000006FB 69                  <1>  db  105
  6985 000006FC 6F                  <1>  db  111
  6986 000006FD 6E                  <1>  db  110
  6987 000006FE 73                  <1>  db  115
  6988 000006FF 00                  <1>  db  0
  6989                              <1>  leab70a60165c:
  6990 00000700 19                  <1>  db  25
  6991 00000701 20                  <1>  db  32
  6992 00000702 73                  <1>  db  115
  6993 00000703 61                  <1>  db  97
  6994 00000704 74                  <1>  db  116
  6995 00000705 75                  <1>  db  117
  6996 00000706 72                  <1>  db  114
  6997 00000707 61                  <1>  db  97
  6998 00000708 74                  <1>  db  116
  6999 00000709 65                  <1>  db  101
  7000 0000070A 64                  <1>  db  100
  7001 0000070B 20                  <1>  db  32
  7002 0000070C 62                  <1>  db  98
  7003 0000070D 79                  <1>  db  121
  7004 0000070E 74                  <1>  db  116
  7005 0000070F 65                  <1>  db  101
  7006 00000710 20                  <1>  db  32
  7007 00000711 61                  <1>  db  97
  7008 00000712 64                  <1>  db  100
  7009 00000713 64                  <1>  db  100
  7010 00000714 69                  <1>  db  105
  7011 00000715 74                  <1>  db  116
  7012 00000716 69                  <1>  db  105
  7013 00000717 6F                  <1>  db  111
  7014 00000718 6E                  <1>  db  110
  7015 00000719 73                  <1>  db  115
  7016 0000071A 00                  <1>  db  0
  7017                              <1>  leab70a60165b:
  7018 0000071B 10                  <1>  db  16
  7019 0000071C 20                  <1>  db  32
  7020 0000071D 62                  <1>  db  98
  7021 0000071E 79                  <1>  db  121
  7022 0000071F 74                  <1>  db  116
  7023 00000720 65                  <1>  db  101
  7024 00000721 20                  <1>  db  32
  7025 00000722 61                  <1>  db  97
  7026 00000723 64                  <1>  db  100
  7027 00000724 64                  <1>  db  100
  7028 00000725 69                  <1>  db  105
  7029 00000726 74                  <1>  db  116
  7030 00000727 69                  <1>  db  105
  7031 00000728 6F                  <1>  db  111
  7032 00000729 6E                  <1>  db  110
  7033 0000072A 73                  <1>  db  115
  7034 0000072B 20                  <1>  db  32
  7035 0000072C 00                  <1>  db  0
  7036                              <1>  leab70a5fa85a:
  7037 0000072D 17                  <1>  db  23
  7038 0000072E 20                  <1>  db  32
  7039 0000072F 70                  <1>  db  112
  7040 00000730 69                  <1>  db  105
  7041 00000731 78                  <1>  db  120
  7042 00000732 65                  <1>  db  101
  7043 00000733 6C                  <1>  db  108
  7044 00000734 20                  <1>  db  32
  7045 00000735 6D                  <1>  db  109
  7046 00000736 75                  <1>  db  117
  7047 00000737 6C                  <1>  db  108
  7048 00000738 74                  <1>  db  116
  7049 00000739 69                  <1>  db  105
  7050 0000073A 70                  <1>  db  112
  7051 0000073B 6C                  <1>  db  108
  7052 0000073C 69                  <1>  db  105
  7053 0000073D 63                  <1>  db  99
  7054 0000073E 61                  <1>  db  97
  7055 0000073F 74                  <1>  db  116
  7056 00000740 69                  <1>  db  105
  7057 00000741 6F                  <1>  db  111
  7058 00000742 6E                  <1>  db  110
  7059 00000743 73                  <1>  db  115
  7060 00000744 20                  <1>  db  32
  7061 00000745 00                  <1>  db  0
  7062                              <1>  leab70a5fa859:
  7063 00000746 11                  <1>  db  17
  7064 00000747 20                  <1>  db  32
  7065 00000748 70                  <1>  db  112
  7066 00000749 69                  <1>  db  105
  7067 0000074A 78                  <1>  db  120
  7068 0000074B 65                  <1>  db  101
  7069 0000074C 6C                  <1>  db  108
  7070 0000074D 20                  <1>  db  32
  7071 0000074E 61                  <1>  db  97
  7072 0000074F 64                  <1>  db  100
  7073 00000750 64                  <1>  db  100
  7074 00000751 69                  <1>  db  105
  7075 00000752 74                  <1>  db  116
  7076 00000753 69                  <1>  db  105
  7077 00000754 6F                  <1>  db  111
  7078 00000755 6E                  <1>  db  110
  7079 00000756 73                  <1>  db  115
  7080 00000757 20                  <1>  db  32
  7081 00000758 00                  <1>  db  0
  7082                              <1>  leab70a5f7658:
  7083 00000759 12                  <1>  db  18
  7084 0000075A 20                  <1>  db  32
  7085 0000075B 76                  <1>  db  118
  7086 0000075C 65                  <1>  db  101
  7087 0000075D 63                  <1>  db  99
  7088 0000075E 74                  <1>  db  116
  7089 0000075F 6F                  <1>  db  111
  7090 00000760 72                  <1>  db  114
  7091 00000761 20                  <1>  db  32
  7092 00000762 6F                  <1>  db  111
  7093 00000763 70                  <1>  db  112
  7094 00000764 65                  <1>  db  101
  7095 00000765 72                  <1>  db  114
  7096 00000766 61                  <1>  db  97
  7097 00000767 74                  <1>  db  116
  7098 00000768 69                  <1>  db  105
  7099 00000769 6F                  <1>  db  111
  7100 0000076A 6E                  <1>  db  110
  7101 0000076B 73                  <1>  db  115
  7102 0000076C 00                  <1>  db  0
  7103                              <1>  leab70a5f7657:
  7104 0000076D 0E                  <1>  db  14
  7105 0000076E 20                  <1>  db  32
  7106 0000076F 73                  <1>  db  115
  7107 00000770 74                  <1>  db  116
  7108 00000771 61                  <1>  db  97
  7109 00000772 72                  <1>  db  114
  7110 00000773 74                  <1>  db  116
  7111 00000774 20                  <1>  db  32
  7112 00000775 74                  <1>  db  116
  7113 00000776 65                  <1>  db  101
  7114 00000777 73                  <1>  db  115
  7115 00000778 74                  <1>  db  116
  7116 00000779 69                  <1>  db  105
  7117 0000077A 6E                  <1>  db  110
  7118 0000077B 67                  <1>  db  103
  7119 0000077C 00                  <1>  db  0
  7120                              <1>  leab70a53002a:
  7121 0000077D 0D                  <1>  db  13
  7122 0000077E 4D                  <1>  db  77
  7123 0000077F 20                  <1>  db  32
  7124 00000780 6F                  <1>  db  111
  7125 00000781 70                  <1>  db  112
  7126 00000782 73                  <1>  db  115
  7127 00000783 20                  <1>  db  32
  7128 00000784 70                  <1>  db  112
  7129 00000785 65                  <1>  db  101
  7130 00000786 72                  <1>  db  114
  7131 00000787 20                  <1>  db  32
  7132 00000788 73                  <1>  db  115
  7133 00000789 65                  <1>  db  101
  7134 0000078A 63                  <1>  db  99
  7135 0000078B 00                  <1>  db  0
  7136                              <1>  leab70a52ce29:
  7137 0000078C 02                  <1>  db  2
  7138 0000078D 20                  <1>  db  32
  7139 0000078E 20                  <1>  db  32
  7140 0000078F 00                  <1>  db  0
  7141                              <1>  leab70a51b624:
  7142 00000790 0C                  <1>  db  12
  7143 00000791 6D                  <1>  db  109
  7144 00000792 61                  <1>  db  97
  7145 00000793 3A                  <1>  db  58
  7146 00000794 3D                  <1>  db  61
  7147 00000795 6D                  <1>  db  109
  7148 00000796 30                  <1>  db  48
  7149 00000797 5B                  <1>  db  91
  7150 00000798 70                  <1>  db  112
  7151 00000799 65                  <1>  db  101
  7152 0000079A 72                  <1>  db  114
  7153 0000079B 6D                  <1>  db  109
  7154 0000079C 5D                  <1>  db  93
  7155 0000079D 00                  <1>  db  0
  7156                              <1>  leab70a514823:
  7157 0000079E 05                  <1>  db  5
  7158 0000079F 70                  <1>  db  112
  7159 000007A0 65                  <1>  db  101
  7160 000007A1 72                  <1>  db  114
  7161 000007A2 6D                  <1>  db  109
  7162 000007A3 3D                  <1>  db  61
  7163 000007A4 00                  <1>  db  0
  7164                              <1>  leab70a50da22:
  7165 000007A5 16                  <1>  db  22
  7166 000007A6 6D                  <1>  db  109
  7167 000007A7 32                  <1>  db  50
  7168 000007A8 3A                  <1>  db  58
  7169 000007A9 3D                  <1>  db  61
  7170 000007AA 20                  <1>  db  32
  7171 000007AB 69                  <1>  db  105
  7172 000007AC 6F                  <1>  db  111
  7173 000007AD 74                  <1>  db  116
  7174 000007AE 61                  <1>  db  97
  7175 000007AF 20                  <1>  db  32
  7176 000007B0 30                  <1>  db  48
  7177 000007B1 20                  <1>  db  32
  7178 000007B2 2B                  <1>  db  43
  7179 000007B3 32                  <1>  db  50
  7180 000007B4 2A                  <1>  db  42
  7181 000007B5 69                  <1>  db  105
  7182 000007B6 6F                  <1>  db  111
  7183 000007B7 74                  <1>  db  116
  7184 000007B8 61                  <1>  db  97
  7185 000007B9 20                  <1>  db  32
  7186 000007BA 31                  <1>  db  49
  7187 000007BB 20                  <1>  db  32
  7188 000007BC 00                  <1>  db  0
  7189                              <1>  leab70a506c21:
  7190 000007BD 1A                  <1>  db  26
  7191 000007BE 74                  <1>  db  116
  7192 000007BF 72                  <1>  db  114
  7193 000007C0 61                  <1>  db  97
  7194 000007C1 6E                  <1>  db  110
  7195 000007C2 73                  <1>  db  115
  7196 000007C3 70                  <1>  db  112
  7197 000007C4 6F                  <1>  db  111
  7198 000007C5 73                  <1>  db  115
  7199 000007C6 65                  <1>  db  101
  7200 000007C7 20                  <1>  db  32
  7201 000007C8 31                  <1>  db  49
  7202 000007C9 2E                  <1>  db  46
  7203 000007CA 2E                  <1>  db  46
  7204 000007CB 33                  <1>  db  51
  7205 000007CC 2C                  <1>  db  44
  7206 000007CD 30                  <1>  db  48
  7207 000007CE 2E                  <1>  db  46
  7208 000007CF 2E                  <1>  db  46
  7209 000007D0 34                  <1>  db  52
  7210 000007D1 20                  <1>  db  32
  7211 000007D2 6D                  <1>  db  109
  7212 000007D3 61                  <1>  db  97
  7213 000007D4 74                  <1>  db  116
  7214 000007D5 72                  <1>  db  114
  7215 000007D6 69                  <1>  db  105
  7216 000007D7 78                  <1>  db  120
  7217 000007D8 00                  <1>  db  0
  7218                              <1>  leab70a4f2220:
  7219 000007D9 0D                  <1>  db  13
  7220 000007DA 28                  <1>  db  40
  7221 000007DB 74                  <1>  db  116
  7222 000007DC 72                  <1>  db  114
  7223 000007DD 61                  <1>  db  97
  7224 000007DE 6E                  <1>  db  110
  7225 000007DF 73                  <1>  db  115
  7226 000007E0 20                  <1>  db  32
  7227 000007E1 76                  <1>  db  118
  7228 000007E2 31                  <1>  db  49
  7229 000007E3 29                  <1>  db  41
  7230 000007E4 2A                  <1>  db  42
  7231 000007E5 76                  <1>  db  118
  7232 000007E6 32                  <1>  db  50
  7233 000007E7 00                  <1>  db  0
  7234                              <1>  leab70a4eb41f:
  7235 000007E8 02                  <1>  db  2
  7236 000007E9 76                  <1>  db  118
  7237 000007EA 32                  <1>  db  50
  7238 000007EB 00                  <1>  db  0
  7239                              <1>  leab70a4c8e1e:
  7240 000007EC 02                  <1>  db  2
  7241 000007ED 76                  <1>  db  118
  7242 000007EE 31                  <1>  db  49
  7243 000007EF 00                  <1>  db  0
  7244                              <1>  leab70a4bb21d:
  7245 000007F0 02                  <1>  db  2
  7246 000007F1 6D                  <1>  db  109
  7247 000007F2 30                  <1>  db  48
  7248 000007F3 00                  <1>  db  0
  7249                              <1>  vectestsleab70a469417:
  7250 000007F4 03000000            <1>  dd     3
  7251 000007F8 01000000            <1>  dd     1
  7252 000007FC 02000000            <1>  dd     2
  7253 00000800 00000000            <1>  dd     0
  7254                              <1> %endif
