00000000  4D                dec bp
00000001  5A                pop dx
00000002  E000              loopne 0x4
00000004  1900              sbb [bx+si],ax
00000006  0000              add [bx+si],al
00000008  0400              add al,0x0
0000000A  B406              mov ah,0x6
0000000C  FF                db 0xFF
0000000D  FFD7              call di
0000000F  0300              add ax,[bx+si]
00000011  0100              add [bx+si],ax
00000013  005E00            add [bp+0x0],bl
00000016  0000              add [bx+si],al
00000018  40                inc ax
00000019  0000              add [bx+si],al
0000001B  0000              add [bx+si],al
0000001D  0000              add [bx+si],al
0000001F  0000              add [bx+si],al
00000021  0000              add [bx+si],al
00000023  0000              add [bx+si],al
00000025  0000              add [bx+si],al
00000027  0000              add [bx+si],al
00000029  0000              add [bx+si],al
0000002B  0000              add [bx+si],al
0000002D  0000              add [bx+si],al
0000002F  0000              add [bx+si],al
00000031  0000              add [bx+si],al
00000033  0000              add [bx+si],al
00000035  0000              add [bx+si],al
00000037  0000              add [bx+si],al
00000039  0000              add [bx+si],al
0000003B  0000              add [bx+si],al
0000003D  2D0000            sub ax,0x0
00000040  0800              or [bx+si],al
00000042  014000            add [bx+si+0x0],ax
00000045  800008            add byte [bx+si],0x8
00000048  0820              or [bx+si],ah
0000004A  0101              add [bx+di],ax
0000004C  0000              add [bx+si],al
0000004E  01FF              add di,di
00000050  FF                db 0xFF
00000051  FF                db 0xFF
00000052  7F00              jg 0x54
00000054  02504D            add dl,[bx+si+0x4d]
00000057  4F                dec di
00000058  44                inc sp
00000059  45                inc bp
0000005A  2F                das
0000005B  57                push di
0000005C  207631            and [bp+0x31],dh
0000005F  2E3333            xor si,[cs:bp+di]
00000062  20444F            and [si+0x4f],al
00000065  53                push bx
00000066  206578            and [di+0x78],ah
00000069  7465              jz 0xd0
0000006B  6E                outsb
0000006C  64657220          gs jc 0x90
00000070  2D2043            sub ax,0x4320
00000073  6F                outsw
00000074  7079              jo 0xef
00000076  7269              jc 0xe1
00000078  67687420          a32 push word 0x2074
0000007C  3139              xor [bx+di],di
0000007E  3934              cmp [si],si
00000080  2D3139            sub ax,0x3931
00000083  3937              cmp [bx],si
00000085  2C20              sub al,0x20
00000087  44                inc sp
00000088  61                popa
00000089  7265              jc 0xf0
0000008B  64657669          gs jna 0xf8
0000008F  6C                insb
00000090  20616E            and [bx+di+0x6e],ah
00000093  64205472          and [fs:si+0x72],dl
00000097  61                popa
00000098  6E                outsb
00000099  2E7D04            cs jnl 0xa0
0000009C  1C02              sbb al,0x2
0000009E  FC                cld
0000009F  16                push ss
000000A0  07                pop es
000000A1  BF0001            mov di,0x100
000000A4  8BF7              mov si,di
000000A6  57                push di
000000A7  B95E16            mov cx,0x165e
000000AA  F3A5              rep movsw
000000AC  06                push es
000000AD  1E                push ds
000000AE  07                pop es
000000AF  1F                pop ds
000000B0  5F                pop di
000000B1  BE2202            mov si,0x222
000000B4  06                push es
000000B5  0E                push cs
000000B6  A4                movsb
000000B7  AD                lodsw
000000B8  8BE8              mov bp,ax
000000BA  B210              mov dl,0x10
000000BC  1E                push ds
000000BD  B8D901            mov ax,0x1d9
000000C0  50                push ax
000000C1  CB                retf
000000C2  D1ED              shr bp,1
000000C4  FECA              dec dl
000000C6  7505              jnz 0xcd
000000C8  AD                lodsw
000000C9  8BE8              mov bp,ax
000000CB  B210              mov dl,0x10
000000CD  C3                ret
000000CE  E8F1FF            call 0xc2
000000D1  730F              jnc 0xe2
000000D3  E8ECFF            call 0xc2
000000D6  80D101            adc cl,0x1
000000D9  D0E1              shl cl,1
000000DB  E8E4FF            call 0xc2
000000DE  D0D7              rcl bh,1
000000E0  E2F9              loop 0xdb
000000E2  B602              mov dh,0x2
000000E4  B104              mov cl,0x4
000000E6  FEC6              inc dh
000000E8  E8D7FF            call 0xc2
000000EB  721D              jc 0x10a
000000ED  E2F7              loop 0xe6
000000EF  E8D0FF            call 0xc2
000000F2  7308              jnc 0xfc
000000F4  AC                lodsb
000000F5  8AC8              mov cl,al
000000F7  83C10F            add cx,byte +0xf
000000FA  EB14              jmp short 0x110
000000FC  32F6              xor dh,dh
000000FE  B103              mov cl,0x3
00000100  E8BFFF            call 0xc2
00000103  D0D6              rcl dh,1
00000105  E2F9              loop 0x100
00000107  80C607            add dh,0x7
0000010A  8ACE              mov cl,dh
0000010C  EB02              jmp short 0x110
0000010E  B102              mov cl,0x2
00000110  F7DB              neg bx
00000112  4B                dec bx
00000113  268A01            mov al,[es:bx+di]
00000116  AA                stosb
00000117  E2FA              loop 0x113
00000119  E8A6FF            call 0xc2
0000011C  7203              jc 0x121
0000011E  A4                movsb
0000011F  EBF8              jmp short 0x119
00000121  33DB              xor bx,bx
00000123  E89CFF            call 0xc2
00000126  AC                lodsb
00000127  8AD8              mov bl,al
00000129  72A3              jc 0xce
0000012B  E894FF            call 0xc2
0000012E  7207              jc 0x137
00000130  80EB01            sub bl,0x1
00000133  720D              jc 0x142
00000135  EBD7              jmp short 0x10e
00000137  B103              mov cl,0x3
00000139  E886FF            call 0xc2
0000013C  D0D7              rcl bh,1
0000013E  E2F9              loop 0x139
00000140  EBCC              jmp short 0x10e
00000142  5A                pop dx
00000143  01165C01          add [0x15c],dx
00000147  B11A              mov cl,0x1a
00000149  AD                lodsw
0000014A  8BD8              mov bx,ax
0000014C  260117            add [es:bx],dx
0000014F  E2F8              loop 0x149
00000151  1F                pop ds
00000152  FA                cli
00000153  81C2D703          add dx,0x3d7
00000157  8ED2              mov ss,dx
00000159  BC0004            mov sp,0x400
0000015C  FB                sti
0000015D  2EFF2E5A01        jmp far [cs:0x15a]
00000162  CB                retf
00000163  42                inc dx
00000164  0800              or [bx+si],al
00000166  01E8              add ax,bp
00000168  0A05              or al,[di]
0000016A  95                xchg ax,bp
0000016B  0309              add cx,[bx+di]
0000016D  086007            or [bx+si+0x7],ah
00000170  0018              add [bx+si],bl
00000172  0020              add [bx+si],ah
00000174  0010              add [bx+si],dl
00000176  1102              adc [bp+si],ax
00000178  0D8825            or ax,0x2588
0000017B  7037              jo 0x1b4
0000017D  FF07              inc word [bx]
0000017F  7103              jno 0x184
00000181  05515D            add ax,0x5d51
00000184  9F                lahf
00000185  0BE1              or sp,cx
00000187  0B00              or ax,[bx+si]
00000189  0B6202            or sp,[bp+si+0x2]
0000018C  7008              jo 0x196
0000018E  0809              or [bx+di],cl
00000190  0A0B              or cl,[bp+di]
00000192  0C0D              or al,0xd
00000194  0E                push cs
00000195  0F00837071        sldt [bp+di+0x7170]
0000019A  7273              jc 0x20f
0000019C  7475              jz 0x213
0000019E  7677              jna 0x217
000001A0  06                push es
000001A1  6783D628          adc si,byte +0x28
000001A5  9E                sahf
000001A6  0E                push cs
000001A7  4E                dec si
000001A8  CE                into
000001A9  54                push sp
000001AA  88CD              mov ch,cl
000001AC  C04800B8          ror byte [bx+si+0x0],0xb8
000001B0  78D3              js 0x185
000001B2  0400              add al,0x0
000001B4  CD28              int 0x28
000001B6  00C2              add dl,al
000001B8  06                push es
000001B9  4F                dec di
000001BA  07                pop es
000001BB  B707              mov bh,0x7
000001BD  8805              mov [di],al
000001BF  210B              and [bp+di],cx
000001C1  1010              adc [bx+si],dl
000001C3  2C0B              sub al,0xb
000001C5  3D0B2B            cmp ax,0x2b0b
000001C8  93                xchg ax,bx
000001C9  0901              or [bx+di],ax
000001CB  0902              or [bp+si],ax
000001CD  09FC              or sp,di
000001CF  91                xchg ax,cx
000001D0  2401              and al,0x1
000001D2  9A00FA8BB2        call 0xb28b:0xfa00
000001D7  FD                std
000001D8  0B840E02          or ax,[si+0x20e]
000001DC  0102              add [bp+si],ax
000001DE  0402              add al,0x2
000001E0  050203            add ax,0x302
000001E3  06                push es
000001E4  2863BD            sub [bp+di-0x43],ah
000001E7  0415              add al,0x15
000001E9  BA0C22            mov dx,0x220c
000001EC  93                xchg ax,bx
000001ED  40                inc ax
000001EE  0117              add [bx],dx
000001F0  250103            and ax,0x301
000001F3  0203              add al,[bp+di]
000001F5  8429              test [bx+di],ch
000001F7  0104              add [si],ax
000001F9  D505              aad 0x5
000001FB  0120              add [bx+si],sp
000001FD  053560            add ax,0x6035
00000200  1101              adc [bx+di],ax
00000202  06                push es
00000203  0207              add al,[bx]
00000205  0338              add di,[bx+si]
00000207  0108              add [bx+si],cx
00000209  021B              add bl,[bp+di]
0000020B  0000              add [bx+si],al
0000020D  02FF              add bh,bh
0000020F  051719            add ax,0x1917
00000212  2819              sub [bx+di],bl
00000214  3119              xor [bx+di],bx
00000216  7015              jo 0x22d
00000218  BC15E3            mov sp,0xe315
0000021B  153500            adc ax,0x35
0000021E  50                push ax
0000021F  16                push ss
00000220  3B165016          cmp dx,[0x1650]
00000224  6516              gs push ss
00000226  95                xchg ax,bp
00000227  16                push ss
00000228  DE17              ficom word [bx]
0000022A  EF                out dx,ax
0000022B  17                pop ss
0000022C  57                push di
0000022D  0200              add al,[bx+si]
0000022F  3A18              cmp bl,[bx+si]
00000231  241B              and al,0x1b
00000233  37                aaa
00000234  1B441B            sbb ax,[si+0x1b]
00000237  B416              mov ah,0x16
00000239  E416              in al,0x16
0000023B  FA                cli
0000023C  0016161F          add [0x1f16],dl
00000240  17                pop ss
00000241  51                push cx
00000242  17                pop ss
00000243  61                popa
00000244  17                pop ss
00000245  3A19              cmp bl,[bx+di]
00000247  49                dec cx
00000248  01A41A60          add [si+0x601a],sp
0000024C  32EB              xor ch,bl
0000024E  1A0B              sbb cl,[bp+di]
00000250  1E                push ds
00000251  FA                cli
00000252  1401              adc al,0x1
00000254  2115              and [di],dx
00000256  016080            add [bx+si-0x80],sp
00000259  8E21              mov fs,[bx+di]
0000025B  A6                cmpsb
0000025C  21571B            and [bx+0x1b],dx
0000025F  90                nop
00000260  92                xchg ax,dx
00000261  93                xchg ax,bx
00000262  46                inc si
00000263  97                xchg ax,di
00000264  93                xchg ax,bx
00000265  05E389            add ax,0x89e3
00000268  94                xchg ax,sp
00000269  0BA946A3          or bp,[bx+di+0xa346]
0000026D  96                xchg ax,si
0000026E  17                pop ss
0000026F  97                xchg ax,di
00000270  1D98D1            sbb ax,0xd198
00000273  682399            push word 0x9923
00000276  299A2F34          sub [bp+si+0x342f],bx
0000027A  1A9B359C          sbb bl,[bp+di+0x9c35]
0000027E  3B8D469D          cmp cx,[di+0x9d46]
00000282  41                inc cx
00000283  9E                sahf
00000284  47                inc di
00000285  A3919F            mov [0x9f91],ax
00000288  4D                dec bp
00000289  A053C8            mov al,[0xc853]
0000028C  12C1              adc al,cl
0000028E  0105              add [di],ax
00000290  49                dec cx
00000291  00CA              add dl,cl
00000293  0C04              or al,0x4
00000295  0200              add al,[bx+si]
00000297  C1                db 0xC1
00000298  3000              xor [bx+si],al
0000029A  0031              add [bx+di],dh
0000029C  3233              xor dh,[bp+di]
0000029E  3435              xor al,0x35
000002A0  3637              ss aaa
000002A2  3839              cmp [bx+di],bh
000002A4  41                inc cx
000002A5  42                inc dx
000002A6  43                inc bx
000002A7  44                inc sp
000002A8  45                inc bp
000002A9  46                inc si
000002AA  5B                pop bx
000002AB  0480              add al,0x80
000002AD  50                push ax
000002AE  4D                dec bp
000002AF  4F                dec di
000002B0  07                pop es
000002B1  2F                das
000002B2  57                push di
000002B3  5D                pop bp
000002B4  3A20              cmp ah,[bx+si]
000002B6  41                inc cx
000002B7  626F72            bound bp,[bx+0x72]
000002BA  7400              jz 0x2bc
000002BC  B007              mov al,0x7
000002BE  004578            add [di+0x78],al
000002C1  636570            arpl [di+0x70],sp
000002C4  7469              jz 0x32f
000002C6  6F                outsw
000002C7  6E                outsb
000002C8  0B880A4E          or cx,[bx+si+0x4e0a]
000002CC  6F                outsw
000002CD  2021              and [bx+di],ah
000002CF  2024              and [si],ah
000002D1  61                popa
000002D2  6304              arpl [si],ax
000002D4  58                pop ax
000002D5  6B2066            imul sp,[bx+si],byte +0x66
000002D8  1F                pop ds
000002D9  206361            and [bp+di+0x61],ah
000002DC  6C                insb
000002DD  6C                insb
000002DE  620C              bound cx,[si]
000002E0  830021            add word [bx+si],byte +0x21
000002E3  1902              sbb [bp+si],ax
000002E5  49                dec cx
000002E6  52                push dx
000002E7  51                push cx
000002E8  207265            and [bp+si+0x65],dh
000002EB  64314769          xor [fs:bx+0x69],ax
000002EF  0463              add al,0x63
000002F1  3B20              cmp sp,[bx+si]
000002F3  036352            add sp,[bp+di+0x52]
000002F6  204E54            and [bp+0x54],cl
000002F9  2070E0            and [bx+si-0x20],dh
000002FC  02418B            add al,[bx+di-0x75]
000002FF  0020              add [bx+si],ah
00000301  3331              xor si,[bx+di]
00000303  688848            push word 0x4888
00000306  203D              and [di],bh
00000308  2030              and [bx+si],dh
0000030A  82                db 0x82
0000030B  8933              mov [bp+di],si
0000030D  686445            push word 0x4564
00000310  7272              jc 0x384
00000312  736F              jnc 0x383
00000314  6465C9            gs leave
00000317  3496              xor al,0x96
00000319  41                inc cx
0000031A  58                pop ax
0000031B  9C                pushf
0000031C  42                inc dx
0000031D  051A8D            add ax,0x8d1a
00000320  43                inc bx
00000321  0B4411            or ax,[si+0x11]
00000324  8C23              mov [bp+di],fs
00000326  53                push bx
00000327  49                dec cx
00000328  0B05              or ax,[di]
0000032A  42                inc dx
0000032B  E364              jcxz 0x391
0000032D  50                push ax
0000032E  1105              adc [di],ax
00000330  44                inc sp
00000331  53                push bx
00000332  1C5C              sbb al,0x5c
00000334  D3D0              rcl ax,cl
00000336  46                inc si
00000337  094734            or [bx+0x34],ax
0000033A  8D0E5313          lea cx,[0x1353]
0000033E  43                inc bx
0000033F  18468C            sbb [bp-0x74],al
00000342  49                dec cx
00000343  29464C            sub [bp+0x4c],ax
00000346  41                inc cx
00000347  1818              sbb [bx+si],bl
00000349  2D4352            sub ax,0x5243
0000034C  3005              xor [di],al
0000034E  32FF              xor bh,bh
00000350  8800              mov [bx+si],al
00000352  0002              add [bp+si],al
00000354  94                xchg ax,sp
00000355  02AE02CF          add ch,[bp+0xcf02]
00000359  02F0              add dh,al
0000035B  025256            add dl,[bp+si+0x56]
0000035E  57                push di
0000035F  55                push bp
00000360  1E                push ds
00000361  06                push es
00000362  53                push bx
00000363  40                inc ax
00000364  05510E            add ax,0xe51
00000367  1F                pop ds
00000368  E84301            call 0x4ae
0000036B  B8A080            mov ax,0x80a0
0000036E  F9                stc
0000036F  0308              add cx,[bx+si]
00000371  55                push bp
00000372  7303              jnc 0x377
00000374  E98722            jmp 0x25fe
00000377  0E                push cs
00000378  66D200            o32 rol byte [bx+si],cl
0000037B  2C48              sub al,0x48
0000037D  CD2F              int 0x2f
0000037F  3C80              cmp al,0x80
00000381  751C              jnz 0x39f
00000383  06                push es
00000384  B81009            mov ax,0x910
00000387  8900              mov [bx+si],ax
00000389  60                pusha
0000038A  1E                push ds
0000038B  BF008C            mov di,0x8c00
0000038E  06                push es
0000038F  C100B4            rol word [bx+si],0xb4
00000392  30CD              xor ch,cl
00000394  21B408FF          and [si+0xff08],si
00000398  0DA950            or ax,0x50a9
0000039B  A3C5CA            mov [0xcac5],ax
0000039E  F60698D741        test byte [0xd798],0x41
000003A3  0D7408            or ax,0x874
000003A6  E895D8            call 0xdc3e
000003A9  6A00              push byte +0x0
000003AB  EB04              jmp short 0x3b1
000003AD  0806E865          or [0x65e8],al
000003B1  088A000F          or [bp+si+0xf00],cl
000003B5  01E0              add ax,sp
000003B7  254CB0            and ax,0xb04c
000003BA  90                nop
000003BB  40                inc ax
000003BC  02753F            add dh,[di+0x3f]
000003BF  833E240F97        cmp word [0xf24],byte -0x69
000003C4  C5BB8008          lds di,[bp+di+0x880]
000003C8  D415              aam 0x15
000003CA  B606              mov dh,0x6
000003CC  250FAF            and ax,0xaf0f
000003CF  06                push es
000003D0  91                xchg ax,cx
000003D1  03D6              add dx,si
000003D3  34D8              xor al,0xd8
000003D5  0B960B93          or dx,[bp+0x930b]
000003D9  0B04              or ax,[si]
000003DB  A09700            mov al,[0x97]
000003DE  6BC019            imul ax,ax,byte +0x19
000003E1  050F00            add ax,0xf
000003E4  C1E8F2            shr ax,0xf2
000003E7  42                inc dx
000003E8  D5D8              aad 0xd8
000003EA  A18FF5            mov ax,[0xf58f]
000003ED  16                push ss
000003EE  1080D1E8          adc [bx+si+0xe8d1],al
000003F2  26EB05            es jmp short 0x3fa
000003F5  59                pop cx
000003F6  5B                pop bx
000003F7  F9                stc
000003F8  EB0D              jmp short 0x407
000003FA  8A05              mov al,[di]
000003FC  008B882E          add [bp+di+0x2e88],cl
00000400  670083C40433C0    add [ebx+0xc03304c4],al
00000407  07                pop es
00000408  1F                pop ds
00000409  5D                pop bp
0000040A  80105F            adc byte [bx+si],0x5f
0000040D  5E                pop si
0000040E  5A                pop dx
0000040F  CB                retf
00000410  5D                pop bp
00000411  B88716            mov ax,0x1687
00000414  9D                popf
00000415  0BC0              or ax,ax
00000417  9D                popf
00000418  0816B003          or [0x3b0],dl
0000041C  F6C381            test bl,0x81
0000041F  D6                salc
00000420  B001              mov al,0x1
00000422  BA72CF            mov dx,0xcf72
00000425  2C00              sub al,0x0
00000427  893E14A4          mov [0xa414],di
0000042B  16                push ss
0000042C  008BDEB5          add [bp+di+0xb5de],cl
00000430  03EB              add bp,bx
00000432  C6                db 0xC6
00000433  FF02              inc word [bp+si]
00000435  40                inc ax
00000436  E55D              in ax,0x5d
00000438  328EC026          xor cl,[bp+0x26c0]
0000043C  A19C01            mov ax,[0x19c]
0000043F  260B069E04        or ax,[es:0x49e]
00000444  40                inc ax
00000445  A85E              test al,0x5e
00000447  D4DE              aam 0xde
00000449  CD67              int 0x67
0000044B  0AE4              or ah,ah
0000044D  7555              jnz 0x4a4
0000044F  8B1680C9          mov dx,[0xc980]
00000453  BD8BCA            mov bp,0xca8b
00000456  E30E              jcxz 0x466
00000458  B409              mov ah,0x9
0000045A  C9                leave
0000045B  8BFA              mov di,dx
0000045D  82                db 0x82
0000045E  054A02            add ax,0x24a
00000461  33C9              xor cx,cx
00000463  B8031E            mov ax,0x1e03
00000466  660FB7F1          movzx esi,cx
0000046A  40                inc ax
0000046B  FD                std
0000046C  66C1EE02          shr esi,0x2
00000470  66678D4158        lea eax,[ecx+0x58]
00000475  E202              loop 0x479
00000477  0C0A              or al,0xa
00000479  46                inc si
0000047A  E308              jcxz 0x484
0000047C  8BCC              mov cx,sp
0000047E  00D7              add bh,dl
00000480  B40A              mov ah,0xa
00000482  F6                db 0xF6
00000483  C9                leave
00000484  1E                push ds
00000485  8E00              mov es,[bx+si]
00000487  3BDE              cmp bx,si
00000489  0200              add al,[bx+si]
0000048B  7202              jc 0x48f
0000048D  65881E7B00        mov [gs:0x7b],bl
00000492  86DF              xchg bl,bh
00000494  81C38602          add bx,0x286
00000498  B508              mov ch,0x8
0000049A  0002              add [bp+si],al
0000049C  E91DFF            jmp 0x3bc
0000049F  7032              jo 0x4d3
000004A1  C9                leave
000004A2  9C                pushf
000004A3  5B                pop bx
000004A4  8BC3              mov ax,bx
000004A6  80E40F            and ah,0xf
000004A9  0800              or [bx+si],al
000004AB  50                push ax
000004AC  9D                popf
000004AD  9C                pushf
000004AE  58                pop ax
000004AF  07                pop es
000004B0  F080FCF0          lock cmp ah,0xf0
000004B4  745D              jz 0x513
000004B6  B102              mov cl,0x2
000004B8  800C01            or byte [si],0x1
000004BB  CF                iret
000004BC  F053              lock push bx
000004BE  10744F            adc [si+0x4f],dh
000004C1  41                inc cx
000004C2  6650              push eax
000004C4  66205C53          o32 and [si+0x53],bl
000004C8  669C              pushfd
000004CA  665B              pop ebx
000004CC  66296635          sub [bp+0x35],esp
000004D0  B8AE05            mov ax,0x5ae
000004D3  109D1058          adc [di+0x5810],bl
000004D7  6633C3            xor eax,ebx
000004DA  326C74            xor ch,[si+0x74]
000004DD  2C1F              sub al,0x1f
000004DF  16                push ss
000004E0  1B07              sbb ax,[bx]
000004E2  0A161566          or dl,[0x6615]
000004E6  51                push cx
000004E7  9C                pushf
000004E8  CF                iret
000004E9  6652              push edx
000004EB  66A04D16          o32 mov al,[0x164d]
000004EF  58                pop ax
000004F0  A25E66            mov [0x665e],al
000004F3  5A                pop dx
000004F4  6659              pop ecx
000004F6  8ACC              mov cl,ah
000004F8  43                inc bx
000004F9  016758            add [bx+0x58],sp
000004FC  44                inc sp
000004FD  60                pusha
000004FE  1E                push ds
000004FF  8BEC              mov bp,sp
00000501  FC                cld
00000502  C0                db 0xC0
00000503  721B              jc 0x520
00000505  41                inc cx
00000506  0121              add [bx+di],sp
00000508  0E                push cs
00000509  BC6835            mov sp,0x3568
0000050C  E004              loopne 0x512
0000050E  66A35D66          mov [0x665d],eax
00000512  33A6B9CF          xor sp,[bp+0xcfb9]
00000516  04D3              add al,0xd3
00000518  0937              or [bx],si
0000051A  2941B7            sub [bx+di-0x49],ax
0000051D  43                inc bx
0000051E  D1E3              shl bx,1
00000520  FFA7E78B          jmp near [bx+0x8be7]
00000524  95                xchg ax,bp
00000525  8358001F          sbb word [bx+si+0x0],byte +0x1f
00000529  4B                dec bx
0000052A  2EFB              cs sti
0000052C  12422D            adc al,[bp+si+0x2d]
0000052F  1E                push ds
00000530  7311              jnc 0x543
00000532  BB1E3D            mov bx,0x3d1e
00000535  1109              adc [bx+di],cx
00000537  80F974            cmp cl,0x74
0000053A  014B89            add [bp+di-0x77],cx
0000053D  5E                pop si
0000053E  1E                push ds
0000053F  1F                pop ds
00000540  6661              popad
00000542  CB                retf
00000543  B99440            mov cx,0x4094
00000546  6869CD            push word 0xcd69
00000549  317304            xor [bp+di+0x4],si
0000054C  B44C              mov ah,0x4c
0000054E  19B4EB5D          sbb [si+0x5deb],si
00000552  8BD8              mov bx,ax
00000554  B86428            mov ax,0x2864
00000557  818B56242FC1      or word [bp+di+0x2456],0xc12f
0000055D  E204              loop 0x563
0000055F  C1E90C            shr cx,0xc
00000562  28651A            sub [di+0x1a],ah
00000565  40                inc ax
00000566  2ABAEE07          sub bh,[bp+si+0x7ee]
0000056A  2124              and [si],sp
0000056C  8CCA              mov dx,cs
0000056E  0F0216E908        lar dx,[0x8e9]
00000573  2D3B00            sub ax,0x3b
00000576  0124              add [si],sp
00000578  33DB              xor bx,bx
0000057A  EBBE              jmp short 0x53a
0000057C  06                push es
0000057D  0E                push cs
0000057E  07                pop es
0000057F  1C8E              sbb al,0x8e
00000581  D9BF1094          fnstcw [bx+0x9410]
00000585  000633F6          add [0xf633],al
00000589  13F3              adc si,bx
0000058B  A5                movsw
0000058C  E4A1              in al,0xa1
0000058E  8AE0              mov ah,al
00000590  E468              in al,0x68
00000592  82                db 0x82
00000593  212EA37C          and [0x7ca3],bp
00000597  F5                cmc
00000598  EE                out dx,al
00000599  2EA19D40          mov ax,[cs:0x409d]
0000059D  04ED              add al,0xed
0000059F  3BF0              cmp si,ax
000005A1  7206              jc 0x5a9
000005A3  C2FCFE            ret 0xfefc
000005A6  F0C3              lock ret
000005A8  E00C              loopne 0x5b6
000005AA  9C                pushf
000005AB  0FA0              push fs
000005AD  0FA8              push gs
000005AF  FA                cli
000005B0  A2E048            mov [0x48e0],al
000005B3  8E5740            mov ss,[bx+0x40]
000005B6  E83F74            call 0x79f8
000005B9  48                dec ax
000005BA  E492              in al,0x92
000005BC  0C02              or al,0x2
000005BE  EBB5              jmp short 0x575
000005C0  104701            adc [bx+0x1],al
000005C3  E692              out 0x92,al
000005C5  E85911            call 0x1721
000005C8  0008              add [bx+si],cl
000005CA  37                aaa
000005CB  E84500            call 0x613
000005CE  7510              jnz 0x5e0
000005D0  B0D1              mov al,0xd1
000005D2  E664              out 0x64,al
000005D4  E83C09            call 0xf13
000005D7  07                pop es
000005D8  806EB0DF          sub byte [bp-0x50],0xdf
000005DC  E660              out 0x60,al
000005DE  E83300            call 0x614
000005E1  B93D0E            mov cx,0xe3d
000005E4  41                inc cx
000005E5  0474              add al,0x74
000005E7  1AE8              sbb ch,al
000005E9  1D005E            sbb ax,0x5e00
000005EC  E8EA3A            call 0x40d9
000005EF  C428              les bp,[bx+si]
000005F1  6974F9E2ED        imul si,[si-0x7],0xede2
000005F6  D3EC              shr sp,cl
000005F8  BB0500            mov bx,0x5
000005FB  04C7              add al,0xc7
000005FD  46                inc si
000005FE  08A1055D          or [bx+di+0x5d05],ah
00000602  0FA9              pop gs
00000604  0F                db 0x0F
00000605  6C                insb
00000606  C3                ret
00000607  E4C3              in al,0xc3
00000609  C8404B08          enter 0x4b40,0x8
0000060D  C3                ret
0000060E  B100              mov cl,0x0
00000610  000A              add [bp+si],cl
00000612  64A802            fs test al,0x2
00000615  E0F4              loopne 0x60b
00000617  C3                ret
00000618  BA8064            mov dx,0x6480
0000061B  A08A99            mov al,[0x998a]
0000061E  F6D0              not al
00000620  6586060E21        xchg al,[gs:0x210e]
00000625  82                db 0x82
00000626  643A260E65        cmp ah,[fs:0x650e]
0000062B  A2096A            mov [0x6a09],al
0000062E  DDC3              ffree st3
00000630  0AB83B00          or bh,[bx+si+0x3b]
00000634  28C1              sub cl,al
00000636  9B                wait
00000637  0460              add al,0x60
00000639  0129              add [bx+di],bp
0000063B  8BF1              mov si,cx
0000063D  C1E602            shl si,0x2
00000640  B110              mov cl,0x10
00000642  C7                db 0xC7
00000643  52                push dx
00000644  51                push cx
00000645  810875F0          or word [bx+si],0xf075
00000649  7BC3              jpo 0x60e
0000064B  B488              mov ah,0x88
0000064D  CD15              int 0x15
0000064F  0AA9750F          or ch,[bx+di+0xf75]
00000653  84D9              test cl,bl
00000655  C825E07C          enter 0xe025,0x7c
00000659  F06681C6BE1F857A  lock add esi,0x7a851fbe
00000661  E60A              out 0xa,al
00000663  E83211            call 0x1798
00000666  F8                clc
00000667  22D4              and dl,ah
00000669  C51E64E3          lds bx,[0xe364]
0000066D  BA56AB            mov dx,0xab56
00000670  E539              in ax,0x39
00000672  E28C              loop 0x600
00000674  5C                pop sp
00000675  90                nop
00000676  C0663957          shl byte [bp+0x39],0x57
0000067A  12C1              adc al,cl
0000067C  ED                in ax,dx
0000067D  47                inc di
0000067E  2C66              sub al,0x66
00000680  054520            add ax,0x2045
00000683  4B                dec bx
00000684  2500FC            and ax,0xfc00
00000687  FF00              inc word [bx+si]
00000689  49                dec cx
0000068A  60                pusha
0000068B  21961916          and [bp+0x1619],dx
0000068F  13DB              adc bx,bx
00000691  12461E            adc al,[bp+0x1e]
00000694  2EA5              cs movsw
00000696  C441E3            les ax,[bx+di-0x1d]
00000699  0A18              or bl,[bx+si]
0000069B  C3                ret
0000069C  7703              ja 0x6a1
0000069E  B524              mov ch,0x24
000006A0  1380A3AD          adc ax,[bx+si+0xada3]
000006A4  5E                pop si
000006A5  00B82BF0          add [bx+si+0xf02b],bh
000006A9  7676              jna 0x721
000006AB  E8CDFE            call 0x57b
000006AE  668936A97F        mov [0x7fa9],esi
000006B3  181D              sbb [di],bl
000006B5  0832              or [bp+si],dh
000006B7  3941B5            cmp [bx+di-0x4b],ax
000006BA  088E21DB          or [bp+0xdb21],cl
000006BE  24A3              and al,0xa3
000006C0  E607              out 0x7,al
000006C2  E076              loopne 0x73a
000006C4  32C0              xor al,al
000006C6  EB53              jmp short 0x71b
000006C8  B403              mov ah,0x3
000006CA  85F3              test bx,si
000006CC  7548              jnz 0x716
000006CE  3D590F            cmp ax,0xf59
000006D1  82                db 0x82
000006D2  42                inc dx
000006D3  2DD4A3            sub ax,0xa3d4
000006D6  93                xchg ax,bx
000006D7  3692              ss xchg ax,dx
000006D9  8D934084          lea dx,[bp+di+0x8440]
000006DD  3A0B              cmp cl,[bp+di]
000006DF  F67434            div byte [si+0x34]
000006E2  78D6              js 0x6ba
000006E4  9D                popf
000006E5  EA0A0B03E4        jmp 0xe403:0xb0a
000006EA  B87423            mov ax,0x2374
000006ED  896A03            mov [bp+si+0x3],bp
000006F0  16                push ss
000006F1  C3                ret
000006F2  C00C0D            ror byte [si],0xd
000006F5  48                dec ax
000006F6  8997CF10          mov [bx+0x10cf],dx
000006FA  8BD3              mov dx,bx
000006FC  61                popa
000006FD  52                push dx
000006FE  631A              arpl [bp+si],bx
00000700  76B1              jna 0x6b3
00000702  53                push bx
00000703  D2A27A40          shl byte [bp+si+0x407a],cl
00000707  06                push es
00000708  60                pusha
00000709  CF                iret
0000070A  11BC0C66          adc [si+0x660c],di
0000070E  07                pop es
0000070F  6200              bound ax,[bx+si]
00000711  82                db 0x82
00000712  91                xchg ax,cx
00000713  A5                movsw
00000714  73E9              jnc 0x6ff
00000716  C0DB0A            rcr bl,0xa
00000719  3407              xor al,0x7
0000071B  3D8AEB            cmp ax,0xeb8a
0000071E  890E68BD          mov [0xbd68],cx
00000722  DC10              fcom qword [bx+si]
00000724  58                pop ax
00000725  FE8CC281          dec byte [si+0x81c2]
00000729  C2C232            ret 0x32c2
0000072C  D28EC2BB          ror byte [bp+0xbbc2],cl
00000730  94                xchg ax,sp
00000731  17                pop ss
00000732  C2FEC4            ret 0xc4fe
00000735  BC703A            mov sp,0x3a70
00000738  53                push bx
00000739  7E12              jng 0x74d
0000073B  B60E              mov dh,0xe
0000073D  0F4788CCE1        cmova cx,[bx+si+0xe1cc]
00000742  3E03C1            ds add ax,cx
00000745  C6824AA944        mov byte [bp+si+0xa94a],0x44
0000074A  FFA910B3          jmp far [bx+di+0xb310]
0000074E  8652F3            xchg dl,[bp+si-0xd]
00000751  AB                stosw
00000752  8EEA              mov gs,dx
00000754  E90707            jmp 0xe5e
00000757  2A8983EC          sub cl,[bx+di+0xec83]
0000075B  188BF4E5          sbb [bp+di+0xe5f4],cl
0000075F  CD36              int 0x36
00000761  FF6850            jmp far [bx+si+0x50]
00000764  722C              jc 0x792
00000766  57                push di
00000767  66A13303          mov eax,[0x333]
0000076B  C7                db 0xC7
0000076C  A7                cmpsw
0000076D  CB                retf
0000076E  DD867F1E          fld qword [bp+0x1e7f]
00000772  E159              loope 0x7cd
00000774  F619              neg byte [bx+di]
00000776  016F66            add [bx+0x66],bp
00000779  64AD              fs lodsw
0000077B  E3CB              jcxz 0x748
0000077D  00268080          add [0x8080],ah
00000781  A4                movsb
00000782  6501F1            gs add cx,si
00000785  83EF04            sub di,byte +0x4
00000788  73F6              jnc 0x780
0000078A  7234              jc 0x7c0
0000078C  5A                pop dx
0000078D  125908            adc bl,[bx+di+0x8]
00000790  4E                dec si
00000791  B504              mov ch,0x4
00000793  4C                dec sp
00000794  76A1              jna 0x737
00000796  FEC6              inc dh
00000798  7A23              jpe 0x7bd
0000079A  656789044F        mov [gs:edi+ecx*2],ax
0000079F  5A                pop dx
000007A0  EE                out dx,al
000007A1  00433A            add [bp+di+0x3a],al
000007A4  86D4              xchg dl,ah
000007A6  0272E0            add dh,[bp+si-0x20]
000007A9  1F                pop ds
000007AA  A13666            mov ax,[0x6636]
000007AD  26A39B32          mov [es:0x329b],ax
000007B1  1C04              sbb al,0x4
000007B3  C586BCC1          lds ax,[bp+0xc1bc]
000007B7  86B083C2          xchg dh,[bx+si+0xc283]
000007BB  07                pop es
000007BC  A7                cmpsw
000007BD  838CC0A1A6        or word [si+0xa1c0],byte -0x5a
000007C2  A4                movsb
000007C3  56                push si
000007C4  C2BDAC            ret 0xacbd
000007C7  5F                pop di
000007C8  BF88D4            mov di,0xd488
000007CB  681E88            push word 0x881e
000007CE  0595E8            add ax,0xe895
000007D1  11A34092          adc [bp+di+0x9240],sp
000007D5  C3                ret
000007D6  A34208            mov [0x842],ax
000007D9  B526              mov ch,0x26
000007DB  63FE              arpl si,di
000007DD  FF14              call near [si]
000007DF  E201              loop 0x7e2
000007E1  5A                pop dx
000007E2  9F                lahf
000007E3  C9                leave
000007E4  8AD9              mov bl,cl
000007E6  80E3F8            and bl,0xf8
000007E9  09BC840E          or [si+0xe84],di
000007ED  771D              ja 0x80c
000007EF  0204              add al,[si]
000007F1  8D4611            lea ax,[bp+0x11]
000007F4  1E                push ds
000007F5  C1D83A            rcr ax,0x3a
000007F8  DE75D5            fidiv word [di-0x2b]
000007FB  6BC113            imul ax,cx,byte +0x13
000007FE  224010            and al,[bx+si+0x10]
00000801  80ED10            sub ch,0x10
00000804  1066AB            adc [bp-0x55],ah
00000807  EB2B              jmp short 0x834
00000809  8AFB              mov bh,bl
0000080B  0D1AC1            or ax,0xc11a
0000080E  C12407            shl word [si],0x7
00000811  3ADA              cmp bl,dl
00000813  393664B7          cmp [0xb764],si
00000817  7020              jo 0x839
00000819  06                push es
0000081A  080A              or [bp+si],cl
0000081C  CD20              int 0x20
0000081E  FB                sti
0000081F  094620            or [bp+0x20],ax
00000822  B48F              mov ah,0x8f
00000824  808470FF08        add byte [si+0xff70],0x8
00000829  7463              jz 0x88e
0000082B  FF7020            push word [bx+si+0x20]
0000082E  B48E              mov ah,0x8e
00000830  F72E17F6          imul word [0xf617]
00000834  36FEC1            ss inc cl
00000837  16                push ss
00000838  B675              mov dh,0x75
0000083A  A09D88            mov al,[0x889d]
0000083D  01C0              add ax,ax
0000083F  14A4              adc al,0xa4
00000841  A4                movsb
00000842  860C              xchg cl,[si]
00000844  BA0E8E            mov dx,0x8e0e
00000847  06                push es
00000848  7EA1              jng 0x7eb
0000084A  C4A52459          les sp,[di+0x5924]
0000084E  0E                push cs
0000084F  F6AC184C          imul byte [si+0x4c18]
00000853  1E                push ds
00000854  233D              and di,[di]
00000856  A7                cmpsw
00000857  4C                dec sp
00000858  B678              mov dh,0x78
0000085A  7C99              jl 0x7f5
0000085C  0CB1              or al,0xb1
0000085E  AA                stosb
0000085F  3D3238            cmp ax,0x3832
00000862  26BB6B28          es mov bx,0x286b
00000866  C9                leave
00000867  0E                push cs
00000868  31612D            xor [bx+di+0x2d],sp
0000086B  0AC9              or cl,cl
0000086D  744B              jz 0x8ba
0000086F  0D2C22            or ax,0x222c
00000872  EB81              jmp short 0x7f5
00000874  3304              xor ax,[si]
00000876  16                push ss
00000877  3000              xor [bx+si],al
00000879  8EDB              mov ds,bx
0000087B  58                pop ax
0000087C  6634E0            o32 xor al,0xe0
0000087F  68C705            push word 0x5c7
00000882  10886502          adc [bx+si+0x265],cl
00000886  C7456C0A88        mov word [di+0x6c],0x880a
0000088B  894505            mov [di+0x5],ax
0000088E  C6450BB9          mov byte [di+0xb],0xb9
00000892  07                pop es
00000893  0E                push cs
00000894  104407            adc [si+0x7],al
00000897  14EA              adc al,0xea
00000899  1315              adc dx,[di]
0000089B  C9                leave
0000089C  0C18              or al,0x18
0000089E  17                pop ss
0000089F  006D87            add [di-0x79],ch
000008A2  83C719            add di,byte +0x19
000008A5  FEC9              dec cl
000008A7  75D5              jnz 0x87e
000008A9  F4                hlt
000008AA  28D1              sub cl,dl
000008AC  090F              or [bx],cx
000008AE  C16103DF          shl word [bx+di+0x3],0xdf
000008B2  8E                db 0x8E
000008B3  894C5E            mov [si+0x5e],cx
000008B6  81A34C3C00B4      and word [bp+di+0x3c4c],0xb400
000008BC  50                push ax
000008BD  40                inc ax
000008BE  DA400E            fiadd dword [bx+si+0xe]
000008C1  867C03            xchg bh,[si+0x3]
000008C4  83C177            add cx,byte +0x77
000008C7  9C                pushf
000008C8  B17E              mov cl,0x7e
000008CA  4E                dec si
000008CB  C841D1E9          enter 0xd141,0xe9
000008CF  A4                movsb
000008D0  256DC9            and ax,0xc96d
000008D3  803E88AB99        cmp byte [0xab88],0x99
000008D8  D7                xlatb
000008D9  32ABACA5          xor ch,[bp+di+0xa5ac]
000008DD  126B4A            adc ch,[bp+di+0x4a]
000008E0  A6                cmpsb
000008E1  C606AC3448        mov byte [0x34ac],0x48
000008E6  006705            add [bx+0x5],ah
000008E9  4D                dec bp
000008EA  6F                outsw
000008EB  A0D5DA            mov al,[0xdad5]
000008EE  E4E4              in al,0xe4
000008F0  03D7              add dx,di
000008F2  94                xchg ax,sp
000008F3  52                push dx
000008F4  C9                leave
000008F5  86BFABEE          xchg bh,[bx+0xeeab]
000008F9  82                db 0x82
000008FA  96                xchg ax,si
000008FB  B10C              mov cl,0xc
000008FD  F336A5            ss rep movsw
00000900  BA1806            mov dx,0x618
00000903  A6                cmpsb
00000904  C5711F            lds si,[bx+di+0x1f]
00000907  BA92DF            mov dx,0xdf92
0000090A  CB                retf
0000090B  AA                stosb
0000090C  98                cbw
0000090D  84B796D4          test [bx+0xd496],dh
00000911  A3D307            mov [0x7d3],ax
00000914  0BA92811          or bp,[bx+di+0x1128]
00000918  80C8BB            or al,0xbb
0000091B  8385AAB803        add word [di+0xb8aa],byte +0x3
00000920  E8B3CA            call 0xd3d6
00000923  F705E88C          test word [di],0x8ce8
00000927  C8E8AB00          enter 0xabe8,0x0
0000092B  B29A              mov dl,0x9a
0000092D  B351              mov bl,0x51
0000092F  0041AC            add [bx+di-0x54],al
00000932  00B35053          add [bp+di+0x5350],dh
00000936  8CD0              mov ax,ss
00000938  3350E8            xor dx,[bx+si-0x18]
0000093B  99                cwd
0000093C  90                nop
0000093D  AE                scasb
0000093E  8FC3              pop bx
00000940  874622            xchg ax,[bp+0x22]
00000943  3AF3              cmp dh,bl
00000945  F2125191          repne adc dl,[bx+di-0x6f]
00000949  F35B              rep pop bx
0000094B  8D5C8E            lea bx,[si-0x72]
0000094E  10A1FBD1          adc [bx+di+0xd1fb],ah
00000952  3925              cmp [di],sp
00000954  086403            or [si+0x3],ah
00000957  E877B1            call 0xbad1
0000095A  40                inc ax
0000095B  A3C632            mov [0x32c6],ax
0000095E  ED                in ax,dx
0000095F  E87000            call 0x9d2
00000962  7EBF              jng 0x923
00000964  7E04              jng 0x96a
00000966  94                xchg ax,sp
00000967  41                inc cx
00000968  B0CC              mov al,0xcc
0000096A  F3AA              rep stosb
0000096C  E8739F            call 0xa8e2
0000096F  2D6CC1            sub ax,0xc16c
00000972  6BF85A            imul di,ax,byte +0x5a
00000975  B98DCB            mov cx,0xcb8d
00000978  99                cwd
00000979  D2DC              rcr ah,cl
0000097B  B8B5BF            mov ax,0xbfb5
0000097E  8DAF4D7D          lea bp,[bx+0x7d4d]
00000982  78A3              js 0x927
00000984  6AF8              push byte -0x8
00000986  26E37E            es jcxz 0xa07
00000989  A5                movsw
0000098A  C51EA7EC          lds bx,[0xeca7]
0000098E  8DBBDBBD          lea di,[bp+di+0xbddb]
00000992  AD                lodsw
00000993  C2F87A            ret 0x7af8
00000996  F9                stc
00000997  DABE728D          fidivr dword [bp+0x8d72]
0000099B  F5                cmc
0000099C  681951            push word 0x5119
0000099F  67BEC909          a32 mov si,0x9c9
000009A3  50                push ax
000009A4  39EC              cmp sp,bp
000009A6  1304              adc ax,[si]
000009A8  A18EC5            mov ax,[0xc58e]
000009AB  8E1E12DB          mov ds,[0xdb12]
000009AF  8F068659          pop word [0x5986]
000009B3  53                push bx
000009B4  0438              add al,0x38
000009B6  0934              or [si],si
000009B8  CD5E              int 0x5e
000009BA  1BD5              sbb dx,bp
000009BC  FA                cli
000009BD  59                pop cx
000009BE  5A                pop dx
000009BF  D402              aam 0x2
000009C1  89928947          mov [bp+si+0x4789],dx
000009C5  02895768          add cl,[bx+di+0x6857]
000009C9  2905              sub [di],ax
000009CB  83C308            add bx,byte +0x8
000009CE  FF                db 0xFF
000009CF  FC                cld
000009D0  88F8              mov al,bh
000009D2  235E65            and bx,[bp+0x65]
000009D5  2E59              cs pop cx
000009D7  9C                pushf
000009D8  6307              arpl [bx],ax
000009DA  F5                cmc
000009DB  5F                pop di
000009DC  2E2B06BD4B        sub ax,[cs:0x4bbd]
000009E1  A09E80            mov al,[0x809e]
000009E4  6606              o32 push es
000009E6  FE                db 0xFE
000009E7  5D                pop bp
000009E8  CF                iret
000009E9  6F                outsw
000009EA  7FFD              jg 0x9e9
000009EC  AD                lodsw
000009ED  249A              and al,0x9a
000009EF  96                xchg ax,si
000009F0  C1A114E86E        shl word [bx+di+0xe814],0x6e
000009F5  37                aaa
000009F6  6B4E74F4          imul cx,[bp+0x74],byte -0xc
000009FA  D4FF              aam 0xff
000009FC  97                xchg ax,di
000009FD  EF                out dx,ax
000009FE  4B                dec bx
000009FF  1F                pop ds
00000A00  CB                retf
00000A01  116FA1            adc [bx-0x5f],bp
00000A04  0D2687            or ax,0x8726
00000A07  06                push es
00000A08  54                push sp
00000A09  8AE9              mov ch,cl
00000A0B  EE                out dx,al
00000A0C  A0A96E            mov al,[0x6ea9]
00000A0F  DF                db 0xDF
00000A10  0DE075            or ax,0x75e0
00000A13  B0E3              mov al,0xe3
00000A15  2B8B3626          sub cx,[bp+di+0x2636]
00000A19  5E                pop si
00000A1A  F6975E75          not byte [bx+0x755e]
00000A1E  29DA              sub dx,bx
00000A20  FB                sti
00000A21  2F                das
00000A22  BFC8B9            mov di,0xb9c8
00000A25  DE83E675          fiadd word [bp+di+0x75e6]
00000A29  FC                cld
00000A2A  F8                clc
00000A2B  4C                dec sp
00000A2C  0024              add [si],ah
00000A2E  5A                pop dx
00000A2F  8B14              mov dx,[si]
00000A31  81E200F0          and dx,0xf000
00000A35  EE                out dx,al
00000A36  00B805AA          add [bx+si+0xaa05],bh
00000A3A  83C604            add si,byte +0x4
00000A3D  3BF7              cmp si,di
00000A3F  7207              jc 0xa48
00000A41  10482B            adc [bx+si+0x2b],cl
00000A44  F780C7081D66      test word [bx+si+0x8c7],0x661d
00000A4A  49                dec cx
00000A4B  75E2              jnz 0xa2f
00000A4D  70AF              jo 0x9fe
00000A4F  07                pop es
00000A50  A7                cmpsw
00000A51  C9                leave
00000A52  A7                cmpsw
00000A53  75AA              jnz 0x9ff
00000A55  C3                ret
00000A56  E650              out 0x50,al
00000A58  6B218A            imul sp,[bx+di],byte -0x76
00000A5B  C4                db 0xC4
00000A5C  E6A1              out 0xa1,al
00000A5E  98                cbw
00000A5F  BEA0D1            mov si,0xd1a0
00000A62  56                push si
00000A63  B94400            mov cx,0x44
00000A66  9F                lahf
00000A67  0A166904          or dl,[0x469]
00000A6B  2EB9BA01          cs mov cx,0x1ba
00000A6F  0B8E257A          or cx,[bp+0x7a25]
00000A73  FA                cli
00000A74  98                cbw
00000A75  E1A1              loope 0xa18
00000A77  D7                xlatb
00000A78  55                push bp
00000A79  B9A339            mov cx,0x39a3
00000A7C  B36B              mov bl,0x6b
00000A7E  CE                into
00000A7F  96                xchg ax,si
00000A80  36180C            sbb [ss:si],cl
00000A83  50                push ax
00000A84  8ED2              mov ss,dx
00000A86  50                push ax
00000A87  267DE3            es jnl 0xa6d
00000A8A  2E0018            add [cs:bx+si],bl
00000A8D  B5AF              mov ch,0xaf
00000A8F  B6AD              mov dh,0xad
00000A91  AC                lodsb
00000A92  5D                pop bp
00000A93  9B                wait
00000A94  BFCB29            mov di,0x29cb
00000A97  B777              mov bh,0x77
00000A99  E783              out 0x83,ax
00000A9B  AD                lodsw
00000A9C  8924              mov [si],sp
00000A9E  D7                xlatb
00000A9F  FF2E5766          jmp far [0x6657]
00000AA3  CF                iret
00000AA4  58                pop ax
00000AA5  97                xchg ax,di
00000AA6  42                inc dx
00000AA7  50                push ax
00000AA8  260E              es push cs
00000AAA  C24972            ret 0x7249
00000AAD  7804              js 0xab3
00000AAF  37                aaa
00000AB0  268D47F7          lea ax,[es:bx-0x9]
00000AB4  67C740CD98E6      mov word [eax-0x33],0xe698
00000ABA  66080F            o32 or [bx],cl
00000ABD  084660            or [bp+0x60],al
00000AC0  1F                pop ds
00000AC1  C9                leave
00000AC2  16                push ss
00000AC3  894814            mov [bx+si+0x14],cx
00000AC6  59                pop cx
00000AC7  055A6D            add ax,0x6d5a
00000ACA  180A              sbb [bp+si],cl
00000ACC  50                push ax
00000ACD  2234              and dh,[si]
00000ACF  7B4A              jpo 0xb1b
00000AD1  58                pop ax
00000AD2  752A              jnz 0xafe
00000AD4  8D1EF92A          lea bx,[0x2af9]
00000AD8  00440F            add [si+0xf],al
00000ADB  2E96              cs xchg ax,si
00000ADD  5B                pop bx
00000ADE  7616              jna 0xaf6
00000AE0  4E                dec si
00000AE1  8BE0              mov sp,ax
00000AE3  DD978766          fst qword [bx+0x6687]
00000AE7  23904553          and dx,[bx+si+0x5345]
00000AEB  56                push si
00000AEC  57                push di
00000AED  CF                iret
00000AEE  7E67              jng 0xb57
00000AF0  0F011EB92A        lidt [0x2ab9]
00000AF5  2605169E          es add ax,0x9e16
00000AF9  00D4              add ah,dl
00000AFB  0F20C0            mov eax,cr0
00000AFE  0C01              or al,0x1
00000B00  0F22C0            mov cr0,eax
00000B03  EA650CAA06        jmp 0x6aa:0xc65
00000B08  641F              fs pop ds
00000B0A  A358B7            mov [0xb758],ax
00000B0D  8C                db 0x8C
00000B0E  FE                db 0xFE
00000B0F  A5                movsw
00000B10  BF8C73            mov di,0x738c
00000B13  BD0156            mov bp,0x5601
00000B16  A06899            mov al,[0x9968]
00000B19  B8F08E            mov ax,0x8ef0
00000B1C  D8E6              fsub st6
00000B1E  D991EBCF          fst dword [bx+di+0xcfeb]
00000B22  CD8E              int 0x8e
00000B24  D0                db 0xD0
00000B25  B526              mov ch,0x26
00000B27  B0E3              mov al,0xe3
00000B29  50                push ax
00000B2A  5A                pop dx
00000B2B  4A                dec dx
00000B2C  24D3              and al,0xd3
00000B2E  66FE4AB0          o32 dec byte [bp+si-0x50]
00000B32  7DF8              jnl 0xb2c
00000B34  F4                hlt
00000B35  33C0              xor ax,ax
00000B37  E7F4              out 0xf4,ax
00000B39  CD04              int 0x4
00000B3B  E632              out 0x32,al
00000B3D  7ECB              jng 0xb0a
00000B3F  8BC4              mov ax,sp
00000B41  16                push ss
00000B42  5D                pop bp
00000B43  D7                xlatb
00000B44  50                push ax
00000B45  B9BD2F            mov cx,0x2fbd
00000B48  E51C              in ax,0x1c
00000B4A  F2CC              repne int3
00000B4C  A075B4            mov al,[0xb475]
00000B4F  2E95              cs xchg ax,bp
00000B51  A5                movsw
00000B52  DDB5EEB7          fnsave [di+0xb7ee]
00000B56  1E                push ds
00000B57  A9A29D            test ax,0x9da2
00000B5A  BAE51E            mov dx,0x1ee5
00000B5D  C893E536          enter 0xe593,0x36
00000B61  06                push es
00000B62  07                pop es
00000B63  D95EB7            fstp dword [bp-0x49]
00000B66  D7                xlatb
00000B67  D9827B7D          fld dword [bp+si+0x7d7b]
00000B6B  C0ED63            shr ch,0x63
00000B6E  B7EE              mov bh,0xee
00000B70  0DE292            or ax,0x92e2
00000B73  3DDA1E            cmp ax,0x1eda
00000B76  225AA6            and bl,[bp+si-0x5a]
00000B79  8BD0              mov dx,ax
00000B7B  97                xchg ax,di
00000B7C  F6BE9924          idiv byte [bp+0x2499]
00000B80  1496              adc al,0x96
00000B82  22B8678B          and bh,[bx+si+0x8b67]
00000B86  7C24              jl 0xbac
00000B88  0E                push cs
00000B89  B952FA            mov cx,0xfa52
00000B8C  7424              jz 0xbb2
00000B8E  18B95251          sbb [bx+di+0x5152],bh
00000B92  A4                movsb
00000B93  F313A5C848        rep adc sp,[di+0x48c8]
00000B98  66E105            o32 loope 0xba0
00000B9B  F307              rep pop es
00000B9D  67AD              a32 lodsw
00000B9F  052A22            add ax,0x222a
00000BA2  DAB0FA47          fidiv dword [bx+si+0x47fa]
00000BA6  049B              add al,0x9b
00000BA8  6F                outsw
00000BA9  5B                pop bx
00000BAA  5F                pop di
00000BAB  216FE4            and [bx-0x1c],bp
00000BAE  2A8A87E5          sub cl,[bp+si+0xe587]
00000BB2  53                push bx
00000BB3  63D8              arpl ax,bx
00000BB5  386877            cmp [bx+si+0x77],ch
00000BB8  5C                pop sp
00000BB9  84E5              test ch,ah
00000BBB  44                inc sp
00000BBC  CF                iret
00000BBD  45                inc bp
00000BBE  16                push ss
00000BBF  F367FF61AD        rep jmp near [ecx-0x53]
00000BC4  D4CB              aam 0xcb
00000BC6  A37C91            mov [0x917c],ax
00000BC9  7EA3              jng 0xb6e
00000BCB  F7                db 0xF7
00000BCC  CC                int3
00000BCD  9C                pushf
00000BCE  1A6442            sbb ah,[si+0x42]
00000BD1  5E                pop si
00000BD2  2E205630          and [cs:bp+0x30],dl
00000BD6  83EB02            sub bx,byte +0x2
00000BD9  A93B6E            test ax,0x6e3b
00000BDC  6E                outsb
00000BDD  0C8B              or al,0x8b
00000BDF  EBC1              jmp short 0xba2
00000BE1  C88866C1          enter 0x6688,0xc1
00000BE5  E7A4              out 0xa4,ax
00000BE7  03D2              add dx,dx
00000BE9  72C0              jc 0xbab
00000BEB  21894606          and [bx+di+0x646],cx
00000BEF  8E6697            mov fs,[bp-0x69]
00000BF2  AB                stosw
00000BF3  07                pop es
00000BF4  9C                pushf
00000BF5  08980498          or [bx+si+0x9804],bl
00000BF9  06                push es
00000BFA  0446              add al,0x46
00000BFC  04A1              add al,0xa1
00000BFE  4E                dec si
00000BFF  02D8              add bl,al
00000C01  7BBF              jpo 0xbc2
00000C03  D6                salc
00000C04  0DBE67            or ax,0x67be
00000C07  48                dec ax
00000C08  97                xchg ax,di
00000C09  F4                hlt
00000C0A  25FE7B            and ax,0x7bfe
00000C0D  D9AB5DF8          fldcw [bp+di+0xf85d]
00000C11  2EC8F97DAF        cs enter 0x7df9,0xaf
00000C16  61                popa
00000C17  797D              jns 0xc96
00000C19  CF                iret
00000C1A  B4EE              mov ah,0xee
00000C1C  53                push bx
00000C1D  AF                scasw
00000C1E  0427              add al,0x27
00000C20  A7                cmpsw
00000C21  4E                dec si
00000C22  08260C93          or [0x930c],ah
00000C26  269D              es popf
00000C28  10A91449          adc [bx+di+0x4914],ch
00000C2C  93                xchg ax,bx
00000C2D  1F                pop ds
00000C2E  18E0              sbb al,ah
00000C30  1CA4              sbb al,0xa4
00000C32  4D                dec bp
00000C33  2D20A6            sub ax,0xa620
00000C36  2462              and al,0x62
00000C38  93                xchg ax,bx
00000C39  FE                db 0xFE
00000C3A  2814              sub [si],dl
00000C3C  27                daa
00000C3D  C8302E49          enter 0x2e30,0x49
00000C41  6B34EF            imul si,[si],byte -0x11
00000C44  389F40C2          cmp [bx+0xc240],bl
00000C48  3CF6              cmp al,0xf6
00000C4A  58                pop ax
00000C4B  2DEF0D            sub ax,0xdef
00000C4E  D7                xlatb
00000C4F  E9EC0B            jmp 0x183e
00000C52  60                pusha
00000C53  92                xchg ax,dx
00000C54  3F                aas
00000C55  3C24              cmp al,0x24
00000C57  6321              arpl [bx+di],sp
00000C59  D40C              aam 0xc
00000C5B  C00534            rol byte [di],0x34
00000C5E  08D2              or dl,dl
00000C60  6D                insw
00000C61  8F872403          pop word [bx+0x324]
00000C65  0A848E92          or al,[si+0x928e]
00000C69  A1A285            mov ax,[0x85a2]
00000C6C  3CBF              cmp al,0xbf
00000C6E  8438              test [bx+si],bh
00000C70  3BE9              cmp bp,cx
00000C72  0055BA            add [di-0x46],dl
00000C75  5D                pop bp
00000C76  83E8CA            sub ax,byte -0x36
00000C79  8BC2              mov ax,dx
00000C7B  8CD5              mov bp,ss
00000C7D  DDE5              fucom st5
00000C7F  E8DC74            call 0x815e
00000C82  EC                in al,dx
00000C83  F6                db 0xF6
00000C84  CD9C              int 0x9c
00000C86  2530A4            and ax,0xa430
00000C89  EA0EDDBF99        jmp 0x99bf:0xdd0e
00000C8E  0E                push cs
00000C8F  C2E001            ret 0x1e0
00000C92  BF07F7            mov di,0xf707
00000C95  F6442414          test byte [si+0x24],0x14
00000C99  D19E0FB3          rcr word [bp+0xb30f],1
00000C9D  0BE0              or sp,ax
00000C9F  45                inc bp
00000CA0  FB                sti
00000CA1  50                push ax
00000CA2  F4                hlt
00000CA3  D258CF            rcr byte [bx+si-0x31],cl
00000CA6  53                push bx
00000CA7  97                xchg ax,di
00000CA8  5A                pop dx
00000CA9  94                xchg ax,sp
00000CAA  04CD              add al,0xcd
00000CAC  7C15              jl 0xcc3
00000CAE  03E9              add bp,cx
00000CB0  8D168922          lea dx,[0x2289]
00000CB4  E76B              out 0x6b,ax
00000CB6  08A6F893          or [bp+0x93f8],ah
00000CBA  4F                dec di
00000CBB  D7                xlatb
00000CBC  09987B5C          or [bx+si+0x5c7b],bx
00000CC0  EC                in al,dx
00000CC1  54                push sp
00000CC2  6655              push ebp
00000CC4  61                popa
00000CC5  0E                push cs
00000CC6  2F                das
00000CC7  AD                lodsw
00000CC8  125AAF            adc bl,[bp+si-0x51]
00000CCB  3E7C16            ds jl 0xce4
00000CCE  DA7BAB            fidivr dword [bp+di-0x55]
00000CD1  E0EA              loopne 0xcbd
00000CD3  7E04              jng 0xcd9
00000CD5  6D                insw
00000CD6  E9E86F            jmp 0x7cc1
00000CD9  2BD3              sub dx,bx
00000CDB  E7EB              out 0xeb,ax
00000CDD  7BAE              jpo 0xc8d
00000CDF  1F                pop ds
00000CE0  24E8              and al,0xe8
00000CE2  43                inc bx
00000CE3  97                xchg ax,di
00000CE4  1AE5              sbb ah,ch
00000CE6  2E3B167E42        cmp dx,[cs:0x427e]
00000CEB  4B                dec bx
00000CEC  C20305            ret 0x503
00000CEF  54                push sp
00000CF0  8C551F            mov [di+0x1f],ss
00000CF3  80EB06            sub bl,0x6
00000CF6  8965FA            mov [di-0x6],sp
00000CF9  2D9303            sub ax,0x393
00000CFC  8AE0              mov ah,al
00000CFE  BA1358            mov dx,0x5813
00000D01  7FFC              jg 0xcff
00000D03  6F                outsw
00000D04  E99008            jmp 0x1597
00000D07  053C76            add ax,0x763c
00000D0A  80EC6E            sub ah,0x6e
00000D0D  B46E              mov ah,0x6e
00000D0F  21D0              and ax,dx
00000D11  F643274D          test byte [bp+di+0x27],0x4d
00000D15  08F4              or ah,dh
00000D17  7B6C              jpo 0xd85
00000D19  6F                outsw
00000D1A  99                cwd
00000D1B  6AC8              push byte -0x38
00000D1D  82                db 0x82
00000D1E  3C8D              cmp al,0x8d
00000D20  135053            adc dx,[bx+si+0x53]
00000D23  2AC4              sub al,ah
00000D25  8AC8              mov cl,al
00000D27  0E                push cs
00000D28  A30E32            mov [0x320e],ax
00000D2B  2B4D73            sub cx,[di+0x73]
00000D2E  A82E              test al,0x2e
00000D30  151F86            adc ax,0x861f
00000D33  9B                wait
00000D34  95                xchg ax,bp
00000D35  E7FE              out 0xfe,ax
00000D37  10B21FE2          adc [bp+si+0xe21f],dh
00000D3B  C9                leave
00000D3C  E12F              loope 0xd6d
00000D3E  C3                ret
00000D3F  68325B            push word 0x5b32
00000D42  5A                pop dx
00000D43  45                inc bp
00000D44  F66B91            imul byte [bp+di-0x6f]
00000D47  0F                db 0x0F
00000D48  7B6C              jpo 0xdb6
00000D4A  A2992E            mov [0x2e99],al
00000D4D  A6                cmpsb
00000D4E  FD                std
00000D4F  60                pusha
00000D50  0E                push cs
00000D51  9B                wait
00000D52  67018791F1B086    add [edi+0x86b0f191],ax
00000D59  CA6788            retf 0x8867
00000D5C  87E8              xchg bp,ax
00000D5E  7921              jns 0xd81
00000D60  26348D            es xor al,0x8d
00000D63  4E                dec si
00000D64  5D                pop bp
00000D65  7DD8              jnl 0xd3f
00000D67  1830              sbb [bx+si],dh
00000D69  0E                push cs
00000D6A  5E                pop si
00000D6B  7399              jnc 0xd06
00000D6D  FF9901A8          call far [bx+di+0xa801]
00000D71  369A42736328      ss call 0x2863:0x7342
00000D77  BF070D            mov di,0xd07
00000D7A  01D5              add bp,dx
00000D7C  6ACE              push byte -0x32
00000D7E  9A6162604B        call 0x4b60:0x6261
00000D83  0B54F9            or dx,[si-0x7]
00000D86  EC                in al,dx
00000D87  0F                db 0x0F
00000D88  7A29              jpe 0xdb3
00000D8A  5E                pop si
00000D8B  228B5626          and cl,[bp+di+0x2656]
00000D8F  ED                in ax,dx
00000D90  E3E8              jcxz 0xd7a
00000D92  E88885            call 0x931d
00000D95  17                pop ss
00000D96  FC                cld
00000D97  FF6085            jmp near [bx+si-0x7b]
00000D9A  07                pop es
00000D9B  8008EE            or byte [bx+si],0xee
00000D9E  8B4500            mov ax,[di+0x0]
00000DA1  25D508            and ax,0x8d5
00000DA4  E15C              loope 0xe02
00000DA6  7381              jnc 0xd29
00000DA8  702A              jo 0xdd4
00000DAA  E32A              jcxz 0xdd6
00000DAC  F7                db 0xF7
00000DAD  0BC3              or ax,bx
00000DAF  7430              jz 0xde1
00000DB1  46                inc si
00000DB2  D6                salc
00000DB3  99                cwd
00000DB4  C5                db 0xC5
00000DB5  F4                hlt
00000DB6  7882              js 0xd3a
00000DB8  8B702B            mov si,[bx+si+0x2b]
00000DBB  57                push di
00000DBC  9A8B6897AA        call 0xaa97:0x688b
00000DC1  A88B              test al,0x8b
00000DC3  58                pop ax
00000DC4  E1F3              loope 0xdb9
00000DC6  50                push ax
00000DC7  ED                in ax,dx
00000DC8  C232F8            ret 0xf832
00000DCB  48                dec ax
00000DCC  1A1D              sbb bl,[di]
00000DCE  40                inc ax
00000DCF  1E                push ds
00000DD0  C3                ret
00000DD1  804E7320          or byte [bp+0x73],0x20
00000DD5  68A1C6            push word 0xc6a1
00000DD8  E826D1            call 0xdf01
00000DDB  1CB8              sbb al,0xb8
00000DDD  06                push es
00000DDE  00A54E2A          add [di+0x2a4e],ah
00000DE2  E1BF              loope 0xda3
00000DE4  F7ED              imul bp
00000DE6  9E                sahf
00000DE7  B887A8            mov ax,0xa887
00000DEA  093F              or [bx],di
00000DEC  EA8757926A        jmp 0x6a92:0x5787
00000DF1  44                inc sp
00000DF2  51                push cx
00000DF3  A4                movsb
00000DF4  665F              pop edi
00000DF6  95                xchg ax,bp
00000DF7  E06C              loopne 0xe65
00000DF9  6E                outsb
00000DFA  EF                out dx,ax
00000DFB  5D                pop bp
00000DFC  58                pop ax
00000DFD  53                push bx
00000DFE  57                push di
00000DFF  5D                pop bp
00000E00  CE                into
00000E01  2AE3              sub ah,bl
00000E03  08D4              or ah,dl
00000E05  193F              sbb [bx],di
00000E07  33E8              xor bp,ax
00000E09  3089662B          xor [bx+di+0x2b66],cl
00000E0D  E1C1              loope 0xdd0
00000E0F  FC                cld
00000E10  41                inc cx
00000E11  3000              xor [bx+si],al
00000E13  20FF              and bh,bh
00000E15  E5E8              in ax,0xe8
00000E17  CF                iret
00000E18  FFD2              call dx
00000E1A  E00A              loopne 0xe26
00000E1C  EC                in al,dx
00000E1D  F8                clc
00000E1E  FB                sti
00000E1F  CD23              int 0x23
00000E21  FC                cld
00000E22  0F92C0            setc al
00000E25  D0A2678A          shl byte [bp+si+0x8a67],1
00000E29  642420            fs and al,0x20
00000E2C  0DFE0A            or ax,0xafe
00000E2F  C4360C1D          les si,[0x1d0c]
00000E33  A820              test al,0x20
00000E35  B851EB            mov ax,0xeb51
00000E38  B404              mov ah,0x4
00000E3A  8D8CDAA1          lea cx,[si+0xa1da]
00000E3E  E8A728            call 0x36e8
00000E41  57                push di
00000E42  8EC0              mov es,ax
00000E44  7DDA              jnl 0xe20
00000E46  8D771A            lea si,[bx+0x1a]
00000E49  FD                std
00000E4A  66AD              lodsd
00000E4C  8F03              pop word [bp+di]
00000E4E  D0                db 0xD0
00000E4F  F6048C            test byte [si],0x8c
00000E52  D2                db 0xD2
00000E53  F075BB            lock jnz 0xe11
00000E56  EC                in al,dx
00000E57  45                inc bp
00000E58  06                push es
00000E59  FB                sti
00000E5A  F5                cmc
00000E5B  3B4C87            cmp cx,[si-0x79]
00000E5E  EE                out dx,al
00000E5F  45                inc bp
00000E60  F0059772          lock add ax,0x7297
00000E64  1C8B              sbb al,0x8b
00000E66  386567            cmp [di+0x67],ah
00000E69  D99A245F          fstp dword [bp+si+0x5f24]
00000E6D  5A                pop dx
00000E6E  F01B1C            lock sbb bx,[si]
00000E71  E931FF            jmp 0xda5
00000E74  67386A00          cmp [edx+0x0],ch
00000E78  50                push ax
00000E79  01EB              add bx,bp
00000E7B  346A              xor al,0x6a
00000E7D  02EB              add ch,bl
00000E7F  306A03            xor [bp+si+0x3],ch
00000E82  EB2C              jmp short 0xeb0
00000E84  6A04              push byte +0x4
00000E86  8102006A          add word [bp+si],0x6a00
00000E8A  05EB24            add ax,0x24eb
00000E8D  6A06              push byte +0x6
00000E8F  EB20              jmp short 0xeb1
00000E91  6A07              push byte +0x7
00000E93  EB1C              jmp short 0xeb1
00000E95  6A00              push byte +0x0
00000E97  50                push ax
00000E98  08EB              or bl,ch
00000E9A  186A09            sbb [bp+si+0x9],ch
00000E9D  EB14              jmp short 0xeb3
00000E9F  6A0A              push byte +0xa
00000EA1  EB10              jmp short 0xeb3
00000EA3  6A0B              push byte +0xb
00000EA5  0001              add [bx+di],al
00000EA7  1D6A0C            sbb ax,0xc6a
00000EAA  EB08              jmp short 0xeb4
00000EAC  6A0D              push byte +0xd
00000EAE  27                daa
00000EAF  6A3A              push byte +0x3a
00000EB1  350EEB            xor ax,0xeb0e
00000EB4  B18C              mov cl,0x8c
00000EB6  95                xchg ax,bp
00000EB7  B800FA            mov ax,0xfa00
00000EBA  0B08              or cx,[bx+si]
00000EBC  E620              out 0x20,al
00000EBE  E420              in al,0x20
00000EC0  A801              test al,0x1
00000EC2  7479              jz 0xf3d
00000EC4  C6                db 0xC6
00000EC5  B7AC              mov bh,0xac
00000EC7  A5                movsw
00000EC8  D001              rol byte [bx+di],1
00000ECA  1209              adc cl,[bx+di]
00000ECC  91                xchg ax,cx
00000ECD  9F                lahf
00000ECE  1202              adc al,[bp+si]
00000ED0  7485              jz 0xe57
00000ED2  6B1A12            imul bx,[bp+si],byte +0x12
00000ED5  D6                salc
00000ED6  120A              adc cl,[bp+si]
00000ED8  25319A            and ax,0x9a31
00000EDB  0474              add al,0x74
00000EDD  53                push bx
00000EDE  25DC25            and ax,0x25dc
00000EE1  C6                db 0xC6
00000EE2  DA0B              fimul dword [bp+di]
00000EE4  3807              cmp [bx],al
00000EE6  40                inc ax
00000EE7  681A38            push word 0x381a
00000EEA  E238              loop 0xf24
00000EEC  0C4B              or al,0x4b
00000EEE  319A1074          xor [bp+si+0x7410],bx
00000EF2  2D4BE8            sub ax,0xe84b
00000EF5  4B                dec bx
00000EF6  46                inc si
00000EF7  8C0D              mov [di],cs
00000EF9  5E                pop si
00000EFA  20741A            and [si+0x1a],dh
00000EFD  5E                pop si
00000EFE  A6                cmpsb
00000EFF  11EE              adc si,bp
00000F01  5E                pop si
00000F02  0E                push cs
00000F03  7140              jno 0xf45
00000F05  7423              jz 0xf2a
00000F07  7507              jnz 0xf10
00000F09  71F4              jno 0xeff
00000F0B  01DA              add dx,bx
00000F0D  A94BDC            test ax,0xdc4b
00000F10  8739              xchg di,[bx+di]
00000F12  CB                retf
00000F13  1D91E0            sbb ax,0xe091
00000F16  FE                db 0xFE
00000F17  B6FE              mov dh,0xfe
00000F19  228920A5          and cl,[bx+di+0xa520]
00000F1D  07                pop es
00000F1E  9C                pushf
00000F1F  54                push sp
00000F20  02E4              add ah,ah
00000F22  F1                int1
00000F23  20EB              and bl,ch
00000F25  4B                dec bx
00000F26  36BA316B          ss mov dx,0x6b31
00000F2A  8D                db 0x8D
00000F2B  FC                cld
00000F2C  3407              xor al,0x7
00000F2E  8F                db 0x8F
00000F2F  3B801C07          cmp ax,[bx+si+0x71c]
00000F33  06                push es
00000F34  01CE              add si,cx
00000F36  0E                push cs
00000F37  16                push ss
00000F38  7284              jc 0xebe
00000F3A  1A263476          sbb ah,[0x7634]
00000F3E  D1E6              shl si,1
00000F40  17                pop ss
00000F41  F5                cmc
00000F42  F8                clc
00000F43  819EB798CDB4      sbb word [bp+0x98b7],0xb4cd
00000F49  FE01              inc byte [bx+di]
00000F4B  0592D8            add ax,0xd892
00000F4E  FA                cli
00000F4F  06                push es
00000F50  3A582C            cmp bl,[bx+si+0x2c]
00000F53  3F                aas
00000F54  647A52            fs jpe 0xfa9
00000F57  292E4409          sub [0x944],bp
00000F5B  7DBF              jnl 0xf1c
00000F5D  BC52DE            mov sp,0xde52
00000F60  CC                int3
00000F61  C25D0E            ret 0xe5d
00000F64  B079              mov al,0x79
00000F66  1B9E5DC6          sbb bx,[bp+0xc65d]
00000F6A  121C              adc bl,[si]
00000F6C  3C56              cmp al,0x56
00000F6E  FB                sti
00000F6F  9ADB0B4081        call 0x8140:0xbdb
00000F74  7353              jnc 0xfc9
00000F76  112A              adc [bp+si],bp
00000F78  69E8E7F7          imul bp,ax,0xf7e7
00000F7C  356C9E            xor ax,0x9e6c
00000F7F  018DA8CF          add [di+0xcfa8],cx
00000F83  06                push es
00000F84  1E                push ds
00000F85  33ED              xor bp,bp
00000F87  E80240            call 0x4f8c
00000F8A  9C                pushf
00000F8B  019B5424          add [bp+di+0x2454],bx
00000F8F  46                inc si
00000F90  52                push dx
00000F91  E87F01            call 0x1113
00000F94  E85901            call 0x10f0
00000F97  47                inc di
00000F98  40                inc ax
00000F99  A880              test al,0x80
00000F9B  BFBF00            mov di,0xbf
00000F9E  7412              jz 0xfb2
00000FA0  BE1265            mov si,0x6512
00000FA3  06                push es
00000FA4  E340              jcxz 0xfe6
00000FA6  7C1C              jl 0xfc4
00000FA8  0CE8              or al,0xe8
00000FAA  81B4741B3E01      xor word [si+0x1b74],0x13e
00000FB0  BE1F12            mov si,0x121f
00000FB3  1A23              sbb ah,[bp+di]
00000FB5  2211              and dl,[bx+di]
00000FB7  40                inc ax
00000FB8  E8620F            call 0x1f1d
00000FBB  252186            and ax,0x8621
00000FBE  881F              mov [bx],bl
00000FC0  2034              and [si],dh
00000FC2  E8531E            call 0x2e18
00000FC5  2B18              sub bx,[bx+si]
00000FC7  2230              and dh,[bx+si]
00000FC9  102F              adc [bx],ch
00000FCB  3CE8              cmp al,0xe8
00000FCD  44                inc sp
00000FCE  2D6288            sub ax,0x8862
00000FD1  313F              xor [bx],di
00000FD3  013E38E8          add [0xe838],di
00000FD7  3568C4            xor ax,0xc468
00000FDA  5A                pop dx
00000FDB  FFC7              inc di
00000FDD  37                aaa
00000FDE  51                push cx
00000FDF  EF                out dx,ax
00000FE0  9B                wait
00000FE1  41                inc cx
00000FE2  16                push ss
00000FE3  6D                insw
00000FE4  28E8              sub al,ch
00000FE6  23C4              and ax,sp
00000FE8  50                push ax
00000FE9  4E                dec si
00000FEA  3D60E0            cmp ax,0xe060
00000FED  0E                push cs
00000FEE  241B              and al,0x1b
00000FF0  313B              xor [bp+di],di
00000FF2  5D                pop bp
00000FF3  43                inc bx
00000FF4  6F                outsw
00000FF5  D11D              rcr word [di],1
00000FF7  44                inc sp
00000FF8  C42C              les bp,[si]
00000FFA  E8056C            call 0x7c02
00000FFD  49                dec cx
00000FFE  7EC2              jng 0xfc2
00001000  90                nop
00001001  862C              xchg ch,[si]
00001003  1CE8              sbb al,0xe8
00001005  30E8              xor al,ch
00001007  C008F4            ror byte [bx+si],0xf4
0000100A  3F                aas
0000100B  4F                dec di
0000100C  90                nop
0000100D  B000              mov al,0x0
0000100F  5A                pop dx
00001010  E839C4            call 0xd44c
00001013  8ABE549A          mov bh,[bp+0x9a54]
00001017  A6                cmpsb
00001018  09D7              or di,dx
0000101A  53                push bx
0000101B  59                pop cx
0000101C  0091A49C          add [bx+di+0x9ca4],dl
00001020  008CE2E8          add [si+0xe8e2],cl
00001024  CC                int3
00001025  5E                pop si
00001026  5E                pop si
00001027  AF                scasw
00001028  06                push es
00001029  22988CEA          and bl,[bx+si+0xea8c]
0000102D  E8C169            call 0x79f1
00001030  63BA8288          arpl [bp+si+0x8882],di
00001034  8616D2E8          xchg dl,[0xe8d2]
00001038  B674              mov dh,0x74
0000103A  68C57B            push word 0x7bc5
0000103D  D7                xlatb
0000103E  41                inc cx
0000103F  0AE0              or ah,al
00001041  10E8              adc al,ch
00001043  A844              test al,0x44
00001045  CE                into
00001046  46                inc si
00001047  7A85              jpe 0xfce
00001049  6D                insw
0000104A  D6                salc
0000104B  AC                lodsb
0000104C  43                inc bx
0000104D  69D59E58          imul dx,bp,0x589e
00001051  678921            mov [ecx],sp
00001054  BE73E8            mov si,0xe873
00001057  58                pop ax
00001058  96                xchg ax,si
00001059  1415              adc al,0x15
0000105B  11E8              adc ax,bp
0000105D  55                push bp
0000105E  E856A9            call 0xb9b7
00001061  7CFA              jl 0x105d
00001063  EF                out dx,ax
00001064  91                xchg ax,cx
00001065  46                inc si
00001066  8BC2              mov ax,dx
00001068  E87DB5            call 0xc5e8
0000106B  868DD4E8          xchg cl,[di+0xe8d4]
0000106F  3A0B              cmp cl,[bp+di]
00001071  4D                dec bp
00001072  710A              jno 0x107e
00001074  7F73              jg 0x10e9
00001076  BA00BD            mov dx,0xbd00
00001079  50                push ax
0000107A  FE                db 0xFE
0000107B  FD                std
0000107C  330F              xor cx,[bx]
0000107E  8D57BB            lea dx,[bx-0x45]
00001081  06                push es
00001082  0B9BBE6D          or bx,[bp+di+0x6dbe]
00001086  F1                int1
00001087  F9                stc
00001088  6F                outsw
00001089  54                push sp
0000108A  FF                db 0xFF
0000108B  BD3742            mov bp,0x4237
0000108E  E8EBE0            call 0xf17c
00001091  BD0305            mov bp,0x503
00001094  03BDFCCB          add di,[di+0xcbfc]
00001098  0003              add [bp+di],al
0000109A  318900AC          xor [bx+di+0xac00],cx
0000109E  0AC0              or al,al
000010A0  1DA074            sbb ax,0x74a0
000010A3  68ABEB            push word 0xebab
000010A6  F7C381C5          test bx,0xc581
000010AA  A02287            mov al,[0x8722]
000010AD  1E                push ds
000010AE  FD                std
000010AF  C3                ret
000010B0  33DB              xor bx,bx
000010B2  44                inc sp
000010B3  C204F4            ret 0xf404
000010B6  A88A              test al,0x8a
000010B8  DA80A68A          fiadd dword [bx+si+0x8aa6]
000010BC  876527            xchg sp,[di+0x27]
000010BF  7CC5              jl 0x1086
000010C1  AB                stosw
000010C2  C0EDB0            shr ch,0xb0
000010C5  205B7E            and [bp+di+0x7e],bl
000010C8  96                xchg ax,si
000010C9  AB                stosw
000010CA  C3                ret
000010CB  C6                db 0xC6
000010CC  52                push dx
000010CD  F718              neg word [bx+si]
000010CF  B10C              mov cl,0xc
000010D1  5E                pop si
000010D2  3F                aas
000010D3  D5CE              aad 0xce
000010D5  B10C              mov cl,0xc
000010D7  D47A              aam 0x7a
000010D9  D4B1              aam 0xb1
000010DB  00D0              add al,dl
000010DD  96                xchg ax,si
000010DE  3E56              ds push si
000010E0  55                push bp
000010E1  55                push bp
000010E2  B113              mov cl,0x13
000010E4  6F                outsw
000010E5  E2F4              loop 0x10db
000010E7  A16302            mov ax,[0x263]
000010EA  E27B              loop 0x1167
000010EC  2A2EF6BE          sub ch,[0xbef6]
000010F0  42                inc dx
000010F1  E6A0              out 0xa0,al
000010F3  85E8              test ax,bp
000010F5  F9                stc
000010F6  F6B8B448          idiv byte [bx+si+0x48b4]
000010FA  6E                outsb
000010FB  CDE1              int 0xe1
000010FD  BD0080            mov bp,0x8000
00001100  8D0F              lea cx,[bx]
00001102  A0BCFD            mov al,[0xfdbc]
00001105  B407              mov ah,0x7
00001107  BE7502            mov si,0x275
0000110A  E88AFF            call 0x1097
0000110D  251400            and ax,0x14
00001110  B31D              mov bl,0x1d
00001112  8D                db 0x8D
00001113  FF5B32            call far [bp+di+0x32]
00001116  FF02              inc word [bp+si]
00001118  DB                db 0xDB
00001119  8B5A95            mov bx,[bp+si-0x6b]
0000111C  B788              mov bh,0x88
0000111E  ED                in ax,dx
0000111F  774E              ja 0x116f
00001121  0244FE            add al,[si-0x2]
00001124  0DC008            or ax,0x8c0
00001127  2D0ACD            sub ax,0xcd0a
0000112A  1B558D            sbb dx,[di-0x73]
0000112D  761F              jna 0x114e
0000112F  95                xchg ax,bp
00001130  E58C              in ax,0x8c
00001132  E060              loopne 0x1194
00001134  2660              es pusha
00001136  53                push bx
00001137  BB52C7            mov bx,0xc752
0000113A  356887            xor ax,0x8768
0000113D  F700750A          test word [bx+si],0xa75
00001141  4C                dec sp
00001142  A9009F            test ax,0x9f00
00001145  4B                dec bx
00001146  1487              adc al,0x87
00001148  1C24              sbb al,0x24
0000114A  C3                ret
0000114B  4B                dec bx
0000114C  4B                dec bx
0000114D  70E9              jo 0x1138
0000114F  79EB              jns 0x113c
00001151  5B                pop bx
00001152  EB0A              jmp short 0x115e
00001154  6C                insb
00001155  106BD2            adc [bp+di-0x2e],ch
00001158  FB                sti
00001159  1C15              sbb al,0x15
0000115B  37                aaa
0000115C  A24B67            mov [0x674b],al
0000115F  804C3BAB          or byte [si+0x3b],0xab
00001163  5C                pop sp
00001164  A0CF87            mov al,[0x87cf]
00001167  CF                iret
00001168  7537              jnz 0x11a1
0000116A  8F                db 0x8F
0000116B  621C              bound bx,[si]
0000116D  2210              and dl,[bx+si]
0000116F  180B              sbb [bp+di],cl
00001171  266C              es insb
00001173  7400              jz 0x1175
00001175  4F                dec di
00001176  0810              or [bx+si],dl
00001178  4D                dec bp
00001179  C0955A1E4E        rcl byte [di+0x1e5a],0x4e
0000117E  0077C1            add [bx-0x3f],dh
00001181  AB                stosw
00001182  C2A750            ret 0x50a7
00001185  AD                lodsw
00001186  E3F8              jcxz 0x1180
00001188  A7                cmpsw
00001189  A05867            mov al,[0x6758]
0000118C  F6441F06          test byte [si+0x1f],0x6
00001190  70D6              jo 0x1168
00001192  00AC865D          add [si+0x5d86],ch
00001196  F6C520            test ch,0x20
00001199  7580              jnz 0x111b
0000119B  20A4F6C1          and [si+0xc1f6],ah
0000119F  90                nop
000011A0  749F              jz 0x1141
000011A2  7B9D              jpo 0x1141
000011A4  07                pop es
000011A5  60                pusha
000011A6  7598              jnz 0x1140
000011A8  0C9D              or al,0x9d
000011AA  80A4071106        and byte [si+0x1107],0x6
000011AF  748E              jz 0x113f
000011B1  7A8C              jpe 0x113f
000011B3  7CB5              jl 0x116a
000011B5  2027              and [bx],ah
000011B7  863A              xchg bh,[bp+si]
000011B9  7227              jc 0x11e2
000011BB  16                push ss
000011BC  3B5EB7            cmp bx,[bp-0x49]
000011BF  06                push es
000011C0  4A                dec dx
000011C1  B002              mov al,0x2
000011C3  24F8              and al,0xf8
000011C5  8BD9              mov bx,cx
000011C7  3E023F            add bh,[ds:bx]
000011CA  7522              jnz 0x11ee
000011CC  4B                dec bx
000011CD  E233              loop 0x1202
000011CF  7521              jnz 0x11f2
000011D1  FB                sti
000011D2  D89C049F          fcomp dword [si+0x9f04]
000011D6  001A              add [bp+si],bl
000011D8  9C                pushf
000011D9  F4                hlt
000011DA  FA                cli
000011DB  44                inc sp
000011DC  1A7B92            sbb bh,[bp+di-0x6e]
000011DF  8AAF40C1          mov ch,[bx+0xc140]
000011E3  49                dec cx
000011E4  75E7              jnz 0x11cd
000011E6  E96DFF            jmp 0x1156
000011E9  F4                hlt
000011EA  022C              add ch,[si]
000011EC  2D903D            sub ax,0x3d90
000011EF  7873              js 0x1264
000011F1  CC                int3
000011F2  E9251B            jmp 0x2d1a
000011F5  3E3472            ds xor al,0x72
000011F8  FF9579BE          call near [di+0xbe79]
000011FC  76EF              jna 0x11ed
000011FE  B9A20F            mov cx,0xfa2
00001201  1AC4              sbb al,ah
00001203  6C                insb
00001204  EF                out dx,ax
00001205  67395DF5          cmp [ebp-0xb],bx
00001209  06                push es
0000120A  DB                db 0xDB
0000120B  09983D83          or [bx+si+0x833d],bx
0000120F  C502              lds ax,[bp+si]
00001211  B60B              mov dh,0xb
00001213  E2EE              loop 0x1203
00001215  26184D20          sbb [es:di+0x20],cl
00001219  FC                cld
0000121A  7009              jo 0x1225
0000121C  8BCB              mov cx,bx
0000121E  B8B56C            mov ax,0x6cb5
00001221  2D7370            sub ax,0x7073
00001224  5F                pop di
00001225  EB41              jmp short 0x1268
00001227  43                inc bx
00001228  0BF3              or si,bx
0000122A  394C07            cmp [si+0x7],cx
0000122D  60                pusha
0000122E  2D0502            sub ax,0x205
00001231  56                push si
00001232  54                push sp
00001233  D6                salc
00001234  06                push es
00001235  4A                dec dx
00001236  0072EE            add [bp+si-0x12],dh
00001239  C8076095          enter 0x6007,0x95
0000123D  C9                leave
0000123E  0F85E1FE          jnz near 0x1123
00001242  8407              test [bx],al
00001244  97                xchg ax,di
00001245  F7DD              neg bp
00001247  9C                pushf
00001248  2187C5C2          and [bx+0xc2c5],ax
0000124C  150064            adc ax,0x6400
0000124F  832308            and word [bp+di],byte +0x8
00001252  E9E7FE            jmp 0x113c
00001255  7721              ja 0x1278
00001257  B7E9              mov bh,0xe9
00001259  22E8              and ch,al
0000125B  F325B5A0          rep and ax,0xa0b5
0000125F  6E                outsb
00001260  1F                pop ds
00001261  1E                push ds
00001262  8A4C1F            mov cl,[si+0x1f]
00001265  1802              sbb [bp+si],al
00001267  228A6C1F          and cl,[bp+si+0x1f6c]
0000126B  07                pop es
0000126C  E9C215            jmp 0x2831
0000126F  DE3A              fidivr word [bp+si]
00001271  E59A              in ax,0x9a
00001273  47                inc di
00001274  1488              adc al,0x88
00001276  14A6              adc al,0xa6
00001278  008814BC          add [bx+si+0xbc14],cl
0000127C  2AC9              sub cl,cl
0000127E  FE83F90F          inc byte [bp+di+0xff9]
00001282  7A48              jpe 0x12cc
00001284  7616              jna 0x129c
00001286  F725              mul word [di]
00001288  FF0F              dec word [bx]
0000128A  3D0300            cmp ax,0x3
0000128D  206081            and [bx+si-0x7f],ah
00001290  FE0F              dec byte [bx]
00001292  AC                lodsb
00001293  CA0CC1            retf 0xc10c
00001296  E90C80            jmp 0x92a5
00001299  C9                leave
0000129A  80634E83          and byte [bp+di+0x4e],0x83
0000129E  145D              adc al,0x5d
000012A0  C8706708          enter 0x6770,0x8
000012A4  68234A            push word 0x4a23
000012A7  06                push es
000012A8  0F5A995DA8        pmvnzb mm3,[bx+di+0xa85d]
000012AD  68B5FE            push word 0xfeb5
000012B0  800E80E575        or byte [0xe580],0x75
000012B5  A7                cmpsw
000012B6  24E1              and al,0xe1
000012B8  0F                db 0x0F
000012B9  1A5FD8            sbb bl,[bx-0x28]
000012BC  AB                stosw
000012BD  0C53              or al,0x53
000012BF  050479            add ax,0x7904
000012C2  7A2E              jpe 0x12f2
000012C4  E9FEB9            jmp 0xccc5
000012C7  BDCD31            mov bp,0x31cd
000012CA  A8C1              test al,0xc1
000012CC  B938FE            mov cx,0xfe38
000012CF  50                push ax
000012D0  1E                push ds
000012D1  07                pop es
000012D2  82                db 0x82
000012D3  868CD5DA          xchg cl,[si+0xdad5]
000012D7  36D903            fld dword [ss:bp+di]
000012DA  B3FB              mov bl,0xfb
000012DC  44                inc sp
000012DD  032A              add bp,[bp+si]
000012DF  7C26              jl 0x1307
000012E1  AD                lodsw
000012E2  B492              mov ah,0x92
000012E4  2A58E9            sub bl,[bx+si-0x17]
000012E7  22E4              and ah,ah
000012E9  65E84A15          gs call 0x2837
000012ED  94                xchg ax,sp
000012EE  FF                db 0xFF
000012EF  FE439D            inc byte [bp+di-0x63]
000012F2  D3                db 0xD3
000012F3  F5                cmc
000012F4  221B              and bl,[bp+di]
000012F6  A5                movsw
000012F7  E927BF            jmp 0xd221
000012FA  16                push ss
000012FB  1D3415            sbb ax,0x1534
000012FE  8B34              mov si,[si]
00001300  2460              and al,0x60
00001302  8B6A55            mov bp,[bp+si+0x55]
00001305  4E                dec si
00001306  0525FE            add ax,0xfe25
00001309  47                inc di
0000130A  3ECDC1            ds int 0xc1
0000130D  6D                insw
0000130E  3C52              cmp al,0x52
00001310  0101              add [bx+di],ax
00001312  AD                lodsw
00001313  0C24              or al,0x24
00001315  AB                stosw
00001316  E902FE            jmp 0x111b
00001319  B4FC              mov ah,0xfc
0000131B  07                pop es
0000131C  48                dec ax
0000131D  E85EC8            call 0xdb7e
00001320  C8FD8BD0          enter 0x8bfd,0xd0
00001324  F8                clc
00001325  098CDBB8          or [si+0xb8db],cx
00001329  0A8B7308          or cl,[bp+di+0x873]
0000132D  B469              mov ah,0x69
0000132F  054951            add ax,0x5149
00001332  B5BF              mov ch,0xbf
00001334  13D8              adc bx,ax
00001336  52                push dx
00001337  2ACB              sub cl,bl
00001339  8BCA              mov cx,dx
0000133B  E704              out 0x4,ax
0000133D  C5B80712          lds di,[bx+si+0x1207]
00001341  B119              mov cl,0x19
00001343  8BD3              mov dx,bx
00001345  6D                insw
00001346  C6                db 0xC6
00001347  29F2              sub dx,si
00001349  1F                pop ds
0000134A  7A81              jpe 0x12cd
0000134C  15D9DE            adc ax,0xded9
0000134F  9C                pushf
00001350  97                xchg ax,di
00001351  FD                std
00001352  E95B90            jmp 0xa3b0
00001355  08424A            or [bp+si+0x4a],al
00001358  E81DA8            call 0xbb78
0000135B  860C              xchg cl,[si]
0000135D  B4E0              mov ah,0xe0
0000135F  6D                insw
00001360  FD                std
00001361  5D                pop bp
00001362  50                push ax
00001363  53                push bx
00001364  8BDA              mov bx,dx
00001366  FA                cli
00001367  0867B9            or [bx-0x47],ah
0000136A  5B                pop bx
0000136B  58                pop ax
0000136C  BB7DFD            mov bx,0xfd7d
0000136F  03FE              add di,si
00001371  7E04              jng 0x1377
00001373  55                push bp
00001374  DDB08490          fnsave [bx+si+0x9084]
00001378  83EC0A            sub sp,byte +0xa
0000137B  52                push dx
0000137C  06                push es
0000137D  60                pusha
0000137E  16                push ss
0000137F  CC                int3
00001380  0E                push cs
00001381  E4D5              in al,0xd5
00001383  B321              mov bl,0x21
00001385  B80003            mov ax,0x300
00001388  DD                db 0xDD
00001389  6ADD              push byte -0x23
0000138B  7C86              jl 0x1313
0000138D  FB                sti
0000138E  AC                lodsb
0000138F  D2AABECC          shr byte [bp+si+0xccbe],cl
00001393  113A              adc [bp+si],di
00001395  325DEE            xor bl,[di-0x12]
00001398  4A                dec dx
00001399  FD                std
0000139A  98                cbw
0000139B  A123BA            mov ax,[0xba23]
0000139E  0BEC              or bp,sp
000013A0  00EF              add bh,ch
000013A2  50                push ax
000013A3  51                push cx
000013A4  F1                int1
000013A5  FF01              inc word [bx+di]
000013A7  FD                std
000013A8  8AFB              mov bh,bl
000013AA  80E7F8            and bh,0xf8
000013AD  8AFC              mov bh,ah
000013AF  59                pop cx
000013B0  C3                ret
000013B1  2407              and al,0x7
000013B3  D48C              aam 0x8c
000013B5  B36A              mov bl,0x6a
000013B7  D9EB              fldpi
000013B9  0808              or [bx+si],cl
000013BB  39A06E8A          cmp [bx+si+0x8a6e],sp
000013BF  DD                db 0xDD
000013C0  0AD8              or bl,al
000013C2  59                pop cx
000013C3  58                pop ax
000013C4  86C8              xchg cl,al
000013C6  D112              rcl word [bp+si],1
000013C8  DBC1              fcmovnb st1
000013CA  E3C2              jcxz 0x138e
000013CC  8B13              mov dx,[bp+di]
000013CE  FB                sti
000013CF  E8064B            call 0x5ed8
000013D2  02E9              add ch,cl
000013D4  23F2              and si,dx
000013D6  1020              adc [bx+si],ah
000013D8  96                xchg ax,si
000013D9  8911              mov [bx+di],dx
000013DB  8910              mov [bx+si],dx
000013DD  21FD              and bp,di
000013DF  A6                cmpsb
000013E0  5F                pop di
000013E1  59                pop cx
000013E2  3624B0            ss and al,0xb0
000013E5  7080              jo 0x1367
000013E7  FB                sti
000013E8  0E                push cs
000013E9  7715              ja 0x1400
000013EB  661C5B            o32 sbb al,0x5b
000013EE  D1E3              shl bx,1
000013F0  D94540            fld dword [di+0x40]
000013F3  97                xchg ax,di
000013F4  A0015E            mov al,[0x5e01]
000013F7  8F                db 0x8F
000013F8  A4                movsb
000013F9  01E9              add cx,bp
000013FB  E91FA1            jmp 0xb51d
000013FE  624003            bound ax,[bx+si+0x3]
00001401  1203              adc al,[bp+di]
00001403  1E                push ds
00001404  4C                dec sp
00001405  39FB              cmp bx,di
00001407  3E53              ds push bx
00001409  693A044A          imul di,[bp+si],0x4a04
0000140D  D0FC              sar ah,1
0000140F  E87CB4            call 0xc88e
00001412  32FF              xor bh,bh
00001414  87D9              xchg bx,cx
00001416  06                push es
00001417  FC                cld
00001418  058312            add ax,0x1283
0000141B  3A2EA18D          cmp ch,[0x8da1]
0000141F  3AFC              cmp bh,ah
00001421  4D                dec bp
00001422  A00D3A            mov al,[0x3a0d]
00001425  F8                clc
00001426  7554              jnz 0x147c
00001428  80EFB0            sub bh,0xb0
0000142B  7AC3              jpe 0x13f0
0000142D  78AB              js 0x13da
0000142F  2AC7              sub al,bh
00001431  66644A            fs dec edx
00001434  B81DFF            mov ax,0xff1d
00001437  AB                stosw
00001438  DF                db 0xDF
00001439  F9                stc
0000143A  A2032E            mov [0x2e03],al
0000143D  21640F            and [si+0xf],sp
00001440  AB                stosw
00001441  06                push es
00001442  C7                db 0xC7
00001443  AA                stosb
00001444  F1                int1
00001445  2D3485            sub ax,0x8534
00001448  EB13              jmp short 0x145d
0000144A  811752C6          adc word [bx],0xc652
0000144E  E689              out 0x89,al
00001450  34F6              xor al,0xf6
00001452  5F                pop di
00001453  8A901B21          mov dl,[bx+si+0x211b]
00001457  B3E5              mov bl,0xe5
00001459  D320              shl word [bx+si],cl
0000145B  7313              jnc 0x1470
0000145D  327C72            xor bh,[si+0x72]
00001460  2432              and al,0x32
00001462  1C80              sbb al,0x80
00001464  93                xchg ax,bx
00001465  CA33F6            retf 0xf633
00001468  E077              loopne 0x14e1
0000146A  A81C              test al,0x1c
0000146C  7410              jz 0x147e
0000146E  4C                dec sp
0000146F  3062B0            xor [bp+si-0x50],ah
00001472  237408            and si,[si+0x8]
00001475  07                pop es
00001476  2475              and al,0x75
00001478  1DB719            sbb ax,0x19b7
0000147B  833C9D            cmp word [si],byte -0x63
0000147E  49                dec cx
0000147F  BA8510            mov dx,0x1085
00001482  06                push es
00001483  69F96A06          imul di,cx,0x66a
00001487  C48434F8          les ax,[si+0xf834]
0000148B  6E                outsb
0000148C  60                pusha
0000148D  05D96C            add ax,0x6cd9
00001490  A6                cmpsb
00001491  6489D9            fs mov cx,bx
00001494  05D926            add ax,0x26d9
00001497  819CD90EE3A5      sbb word [si+0xed9],0xa5e3
0000149D  E7EA              out 0xea,ax
0000149F  16                push ss
000014A0  53                push bx
000014A1  FA                cli
000014A2  94                xchg ax,sp
000014A3  3B160AFC          cmp dx,[0xfc0a]
000014A7  73CF              jnc 0x1478
000014A9  66EC              o32 in al,dx
000014AB  3009              xor [bx+di],cl
000014AD  C7                db 0xC7
000014AE  0F47B4B175        cmova si,[si+0x75b1]
000014B3  E9FBFB            jmp 0x10b1
000014B6  105F38            adc [bx+0x38],bl
000014B9  B911EB            mov cx,0xeb11
000014BC  ED                in ax,dx
000014BD  8008E6            or byte [bx+si],0xe6
000014C0  D5E4              aad 0xe4
000014C2  90                nop
000014C3  51                push cx
000014C4  2CE8              sub al,0xe8
000014C6  43                inc bx
000014C7  79EB              jns 0x14b4
000014C9  A86C              test al,0x6c
000014CB  C3                ret
000014CC  8B6F2A            mov bp,[bx+0x2a]
000014CF  050E5F            add ax,0x5f0e
000014D2  2E08E4            cs or ah,ah
000014D5  06                push es
000014D6  57                push di
000014D7  308BC30B          xor [bp+di+0xbc3],cl
000014DB  C29FED            ret 0xed9f
000014DE  DEE4              fsubrp st4
000014E0  E99A6C            jmp 0x817d
000014E3  8B5F5E            mov bx,[bx+0x5e]
000014E6  0064A9            add [si-0x57],ah
000014E9  FA                cli
000014EA  8A14              mov dl,[si]
000014EC  BF4E7A            mov di,0x7a4e
000014EF  BB3746            mov bx,0x4637
000014F2  95                xchg ax,bp
000014F3  EC                in al,dx
000014F4  C5BBCFFF          lds di,[bp+di+0xffcf]
000014F8  666487BB77CC      xchg edi,[fs:bp+di+0xcc77]
000014FE  6AA1              push byte -0x5f
00001500  B6BF              mov dh,0xbf
00001502  0C7A              or al,0x7a
00001504  27                daa
00001505  037053            add si,[bx+si+0x53]
00001508  C1D1E0            rcl cx,0xe0
0000150B  83EB2E            sub bx,byte +0x2e
0000150E  2BD8              sub bx,ax
00001510  A4                movsb
00001511  59                pop cx
00001512  E2C4              loop 0x14d8
00001514  83EF02            sub di,byte +0x2
00001517  AF                scasw
00001518  17                pop ss
00001519  C18D744C38        ror word [di+0x4c74],0x38
0000151E  F3E777            rep out 0x77,ax
00001521  F058              lock pop ax
00001523  8656BC            xchg dl,[bp-0x44]
00001526  8B467D            mov ax,[bp+0x7d]
00001529  80E889            sub al,0x89
0000152C  B82201            mov ax,0x122
0000152F  D480              aam 0x80
00001531  E4C4              in al,0xc4
00001533  AB                stosw
00001534  2603F3            es add si,bx
00001537  E55F              in ax,0x5f
00001539  6B6F861B          imul bp,[bx-0x7a],byte +0x1b
0000153D  96                xchg ax,si
0000153E  3F                aas
0000153F  40                inc ax
00001540  45                inc bp
00001541  859FA5B1          test [bx+0xb1a5],bx
00001545  C747CC133F        mov word [bx-0x34],0x3f13
0000154A  06                push es
0000154B  06                push es
0000154C  2E1ABFFCD1        sbb bh,[cs:bx+0xd1fc]
00001551  C52F              lds bp,[bx]
00001553  DDC2              ffree st2
00001555  0FF84AFA          psubb mm1,[bp+si-0x6]
00001559  BF271A            mov di,0x1a27
0000155C  0F                db 0x0F
0000155D  F050              lock push ax
0000155F  0FFE4260          paddd mm0,[bp+si+0x60]
00001563  02B46C7E          add dh,[si+0x7e6c]
00001567  FF                db 0xFF
00001568  FA                cli
00001569  41                inc cx
0000156A  66037C4B          add edi,[si+0x4b]
0000156E  B1BF              mov cl,0xbf
00001570  60                pusha
00001571  7FCB              jg 0x153e
00001573  A6                cmpsb
00001574  1E                push ds
00001575  AD                lodsw
00001576  EBBF              jmp short 0x1537
00001578  47                inc di
00001579  F3F268BF42        repne push word 0x42bf
0000157E  B7EE              mov bh,0xee
00001580  B95C4D            mov cx,0x4d5c
00001583  F73F              idiv word [bx]
00001585  DAB562FC          fidiv dword [di+0xfc62]
00001589  A5                movsw
0000158A  A15E8F            mov ax,[0x8f5e]
0000158D  CF                iret
0000158E  37                aaa
0000158F  E404              in al,0x4
00001591  E267              loop 0x15fa
00001593  8EE0              mov fs,ax
00001595  8A7E4B            mov bh,[bp+0x4b]
00001598  8F                db 0x8F
00001599  8BF5              mov si,bp
0000159B  53                push bx
0000159C  FFA02F53          jmp near [bx+si+0x532f]
000015A0  DE                db 0xDE
000015A1  D0C6              rol dh,1
000015A3  93                xchg ax,bx
000015A4  837F6F35          cmp word [bx+0x6f],byte +0x35
000015A8  7C7E              jl 0x1628
000015AA  89FA              mov dx,di
000015AC  008B8E64          add [bp+di+0x648e],cl
000015B0  010622E9          add [0xe922],ax
000015B4  7D00              jnl 0x15b6
000015B6  F00C8A            lock or al,0x8a
000015B9  1E                push ds
000015BA  97                xchg ax,di
000015BB  000A              add [bp+si],cl
000015BD  DB                db 0xDB
000015BE  0F844BFA          jz near 0x100d
000015C2  3AAAFF2C          cmp ch,[bp+si+0x2cff]
000015C6  72A2              jc 0x156a
000015C8  D3CA              ror dx,cl
000015CA  297A9D            sub [bp+si-0x63],di
000015CD  74C1              jz 0x1590
000015CF  007083            add [bx+si-0x7d],dh
000015D2  C219FE            ret 0xfe19
000015D5  CB                retf
000015D6  75F1              jnz 0x15c9
000015D8  E930FA            jmp 0x100b
000015DB  2EBBAAC4          cs mov bx,0xc4aa
000015DF  5A                pop dx
000015E0  AD                lodsw
000015E1  80BFCA7207        cmp byte [bx+0x72ca],0x7
000015E6  678C42BA          mov [edx-0x46],es
000015EA  7484              jz 0x1570
000015EC  897A51            mov [bp+si+0x51],di
000015EF  2BD1              sub dx,cx
000015F1  A6                cmpsb
000015F2  E9043A            jmp 0x4ff9
000015F5  58                pop ax
000015F6  F053              lock push bx
000015F8  3B0E305B          cmp cx,[0x5b30]
000015FC  890E0645          mov [0x4506],cx
00001600  BADAFB            mov dx,0xfbda
00001603  92                xchg ax,dx
00001604  B92010            mov cx,0x1020
00001607  1900              sbb [bx+si],ax
00001609  F7F1              div cx
0000160B  0BD2              or dx,dx
0000160D  6E                outsb
0000160E  F4                hlt
0000160F  F9                stc
00001610  0AE4              or ah,ah
00001612  7410              jz 0x1624
00001614  B8EEF9            mov ax,0xf9ee
00001617  2E3A06680F        cmp al,[cs:0xf68]
0000161C  83E5F9            and bp,byte -0x7
0000161F  EF                out dx,ax
00001620  4C                dec sp
00001621  DB                db 0xDB
00001622  6686C8            o32 xchg cl,al
00001625  07                pop es
00001626  21C7              and di,ax
00001628  E9FDF9            jmp 0x1028
0000162B  2CB9              sub al,0xb9
0000162D  C84DFCC5          enter 0xfc4d,0xc5
00001631  BFC7FC            mov di,0xfcc7
00001634  8CCE              mov si,cs
00001636  BBAABF            mov bx,0xbfaa
00001639  12EA              adc ch,dl
0000163B  47                inc di
0000163C  A5                movsw
0000163D  97                xchg ax,di
0000163E  F715              not word [di]
00001640  810009DA          add word [bx+si],0xda09
00001644  EBEB              jmp short 0x1631
00001646  B85A00            mov ax,0x5a
00001649  BB8DA6            mov bx,0xa68d
0000164C  0E                push cs
0000164D  B307              mov bl,0x7
0000164F  66FF87E9CA        inc dword [bx+0xcae9]
00001654  FD                std
00001655  2E10E5            cs adc ch,ah
00001658  803E670002        cmp byte [0x67],0x2
0000165D  C9                leave
0000165E  26A867            es test al,0x67
00001661  FD                std
00001662  45                inc bp
00001663  36B8D7EF          ss mov ax,0xefd7
00001667  43                inc bx
00001668  F671A9            div byte [bx+di-0x57]
0000166B  307EA4            xor [bp-0x5c],bh
0000166E  1E                push ds
0000166F  D36FA4            shr word [bx-0x5c],cl
00001672  A8F1              test al,0xf1
00001674  9AA8895E16        call 0x165e:0x89a8
00001679  0ACA              or cl,dl
0000167B  EA23A002ED        jmp 0xed02:0xa023
00001680  A4                movsb
00001681  EE                out dx,al
00001682  0C74              or al,0x74
00001684  356498            xor ax,0x9864
00001687  EC                in al,dx
00001688  DBD8              fcmovnu st0
0000168A  A4                movsb
0000168B  2A5D37            sub bl,[di+0x37]
0000168E  B660              mov dh,0x60
00001690  A9A65B            test ax,0x5ba6
00001693  0A3F              or bh,[bx]
00001695  A3AD42            mov [0x42ad],ax
00001698  F4                hlt
00001699  0F                db 0x0F
0000169A  0467              add al,0x67
0000169C  10A0A675          adc [bx+si+0x75a6],ah
000016A0  1380E6F0          adc ax,[bx+si+0xf0e6]
000016A4  B2EF              mov dl,0xef
000016A6  B914B0            mov cx,0xb014
000016A9  45                inc bp
000016AA  FC                cld
000016AB  C1                db 0xC1
000016AC  35C32B            xor ax,0x2bc3
000016AF  4E                dec si
000016B0  75E0              jnz 0x1692
000016B2  D57C              aad 0x7c
000016B4  A13BD9            mov ax,[0xd93b]
000016B7  8409              test [bx+di],cl
000016B9  C44B8F            les cx,[bp+di-0x71]
000016BC  D467              aam 0x67
000016BE  2B360F11          sub si,[0x110f]
000016C2  D9C9              fxch
000016C4  F8                clc
000016C5  76F7              jna 0x16be
000016C7  3B5878            cmp bx,[bx+si+0x78]
000016CA  231C              and bx,[si]
000016CC  ED                in ax,dx
000016CD  6E                outsb
000016CE  0E                push cs
000016CF  BA7CC5            mov dx,0xc57c
000016D2  007F29            add [bx+0x29],bh
000016D5  AB                stosw
000016D6  5C                pop sp
000016D7  D3940694          rcl word [si+0x9406],cl
000016DB  E0B2              loopne 0x168f
000016DD  DE940306          ficom word [si+0x603]
000016E1  94                xchg ax,sp
000016E2  2BB2FF46          sub si,[bp+si+0x46ff]
000016E6  DB3B              fstp tword [bp+di]
000016E8  F072CD            lock jc 0x16b8
000016EB  6F                outsw
000016EC  ED                in ax,dx
000016ED  8BF0              mov si,ax
000016EF  3D2F1B            cmp ax,0x1b2f
000016F2  57                push di
000016F3  8A94DFF6          mov dl,[si+0xf6df]
000016F7  3264E8            xor ah,[si-0x18]
000016FA  9F                lahf
000016FB  FA                cli
000016FC  A220A8            mov [0xa820],al
000016FF  6455              fs push bp
00001701  DA                db 0xDA
00001702  E8BBED            call 0x4c0
00001705  BFB241            mov di,0x41b2
00001708  AB                stosw
00001709  AC                lodsb
0000170A  EC                in al,dx
0000170B  D431              aam 0x31
0000170D  F1                int1
0000170E  295531            sub [di+0x31],dx
00001711  F1                int1
00001712  92                xchg ax,dx
00001713  802F34            sub byte [bx],0x34
00001716  30C6              xor dh,al
00001718  16                push ss
00001719  1D09CF            sbb ax,0xcf09
0000171C  BC28B8            mov sp,0xb828
0000171F  01BE3934          add [bp+0x3439],di
00001723  B55F              mov ch,0x5f
00001725  AC                lodsb
00001726  6D                insw
00001727  BC4607            mov sp,0x746
0000172A  C7C33D80          mov bx,0x803d
0000172E  0E                push cs
0000172F  C9                leave
00001730  FD                std
00001731  6C                insb
00001732  008B222F          add [bp+di+0x2f22],cl
00001736  07                pop es
00001737  EC                in al,dx
00001738  204CDD            and [si-0x23],cl
0000173B  17                pop ss
0000173C  682996            push word 0x9629
0000173F  9D                popf
00001740  AE                scasb
00001741  C7                db 0xC7
00001742  98                cbw
00001743  AE                scasb
00001744  43                inc bx
00001745  23FD              and di,bp
00001747  81E300AA          and bx,0xaa00
0000174B  7686              jna 0x16d3
0000174D  EF                out dx,ax
0000174E  CF                iret
0000174F  97                xchg ax,di
00001750  CB                retf
00001751  93                xchg ax,bx
00001752  232A              and bp,[bp+si]
00001754  67AF              a32 scasw
00001756  201F              and [bx],bl
00001758  EBFF              jmp short 0x1759
0000175A  65                db 0x65
0000175B  8C                db 0x8C
0000175C  360C07            ss or al,0x7
0000175F  9D                popf
00001760  F9                stc
00001761  AB                stosw
00001762  0205              add al,[di]
00001764  00B1792E          add [bx+di+0x2e79],dh
00001768  044C              add al,0x4c
0000176A  B3F7              mov bl,0xf7
0000176C  A316AC            mov [0xac16],ax
0000176F  F8                clc
00001770  1AB25F16          sbb dh,[bp+si+0x165f]
00001774  A5                movsw
00001775  AD                lodsw
00001776  2CCB              sub al,0xcb
00001778  B622              mov dh,0x22
0000177A  3F                aas
0000177B  E70E              out 0xe,ax
0000177D  4B                dec bx
0000177E  93                xchg ax,bx
0000177F  99                cwd
00001780  DDE9              fucomp st1
00001782  7311              jnc 0x1795
00001784  94                xchg ax,sp
00001785  93                xchg ax,bx
00001786  7267              jc 0x17ef
00001788  E5F3              in ax,0xf3
0000178A  30569D            xor [bp-0x63],dl
0000178D  A95009            test ax,0x950
00001790  C56687            lds sp,[bp-0x79]
00001793  F9                stc
00001794  57                push di
00001795  52                push dx
00001796  BFCA3C            mov di,0x3cca
00001799  BF2C3B            mov di,0x3b2c
0000179C  BD9FAE            mov bp,0xae9f
0000179F  A4                movsb
000017A0  F5                cmc
000017A1  FE8BEA2B          dec byte [bp+di+0x2bea]
000017A5  808D787B57        or byte [di+0x7b78],0x57
000017AA  DEE9              fsubp st1
000017AC  3A9FEE84          cmp bl,[bx+0x84ee]
000017B0  703C              jo 0x17ee
000017B2  9E                sahf
000017B3  0475              add al,0x75
000017B5  10A3BA00          adc [bp+di+0xba],ah
000017B9  EF                out dx,ax
000017BA  CB                retf
000017BB  F8                clc
000017BC  1B17              sbb dx,[bx]
000017BE  7309              jnc 0x17c9
000017C0  E6F3              out 0xf3,al
000017C2  030F              add cx,[bx]
000017C4  97                xchg ax,di
000017C5  2DDCC3            sub ax,0xc3dc
000017C8  3F                aas
000017C9  01F5              add bp,si
000017CB  C1D3CD            rcl bx,0xcd
000017CE  91                xchg ax,cx
000017CF  25AD66            and ax,0x66ad
000017D2  0BB29A4D          or si,[bp+si+0x4d9a]
000017D6  75B2              jnz 0x178a
000017D8  BE2759            mov si,0x5927
000017DB  B98D6D            mov cx,0x6d8d
000017DE  FA                cli
000017DF  B30E              mov bl,0xe
000017E1  80C8B5            or al,0xb5
000017E4  9E                sahf
000017E5  06                push es
000017E6  3F                aas
000017E7  891EE764          mov [0x64e7],bx
000017EB  C7                db 0xC7
000017EC  B0DA              mov al,0xda
000017EE  06                push es
000017EF  95                xchg ax,bp
000017F0  015120            add [bx+di+0x20],dx
000017F3  06                push es
000017F4  97                xchg ax,di
000017F5  637E40            arpl [bp+0x40],di
000017F8  EE                out dx,al
000017F9  A85D              test al,0x5d
000017FB  66BD937B192B      mov ebp,0x2b197b93
00001801  EF                out dx,ax
00001802  42                inc dx
00001803  F699F7CC          neg byte [bx+di+0xccf7]
00001807  59                pop cx
00001808  DA                db 0xDA
00001809  F1                int1
0000180A  6A5C              push byte +0x5c
0000180C  324BF5            xor cl,[bp+di-0xb]
0000180F  FE                db 0xFE
00001810  38B1B4C6          cmp [bx+di+0xc6b4],dh
00001814  6E                outsb
00001815  FF80E7EE          inc word [bx+si+0xeee7]
00001819  F4                hlt
0000181A  AD                lodsw
0000181B  721D              jc 0x183a
0000181D  0385854B          add ax,[di+0x4b85]
00001821  8501              test [bx+di],ax
00001823  DC1D              fcomp qword [di]
00001825  52                push dx
00001826  8701              xchg ax,[bx+di]
00001828  221EC5D4          and bl,[0xd4c5]
0000182C  59                pop cx
0000182D  8901              mov [bx+di],ax
0000182F  6506              gs push es
00001831  8B00              mov ax,[bx+si]
00001833  20B11EE9          and [bx+di+0xe91e],dh
00001837  45                inc bp
00001838  42                inc dx
00001839  CB                retf
0000183A  2E37              cs aaa
0000183C  BBB95A            mov bx,0x5ab9
0000183F  54                push sp
00001840  BE6EEB            mov si,0xeb6e
00001843  211E29BA          and [0xba29],bx
00001847  F31F              rep pop ds
00001849  7252              jc 0x189d
0000184B  9C                pushf
0000184C  6E                outsb
0000184D  3BD8              cmp bx,ax
0000184F  E7A9              out 0xa9,ax
00001851  2320              and sp,[bx+si]
00001853  41                inc cx
00001854  1E                push ds
00001855  B63B              mov dh,0x3b
00001857  F5                cmc
00001858  72E2              jc 0x183c
0000185A  EB10              jmp short 0x186c
0000185C  33BE22E0          xor di,[bp+0xe022]
00001860  B90C7E            mov cx,0x7e0c
00001863  643CC8            fs cmp al,0xc8
00001866  FF                db 0xFF
00001867  ED                in ax,dx
00001868  82                db 0x82
00001869  3BE9              cmp bp,cx
0000186B  FFF6              push si
0000186D  E82F6F            call 0x879f
00001870  C3                ret
00001871  56                push si
00001872  E0E8              loopne 0x185c
00001874  5B                pop bx
00001875  97                xchg ax,di
00001876  C098C8F68B        rcr byte [bx+si+0xf6c8],0x8b
0000187B  F8                clc
0000187C  B56F              mov ch,0x6f
0000187E  A5                movsw
0000187F  2B10              sub dx,[bx+si]
00001881  25EA4F            and ax,0x4fea
00001884  00F5              add ch,dh
00001886  7BFD              jpo 0x1885
00001888  FA                cli
00001889  895527            mov [di+0x27],dx
0000188C  C0566780          rcl byte [bp+0x67],0x80
00001890  39E9              cmp cx,bp
00001892  CDF6              int 0xf6
00001894  5D                pop bp
00001895  81FBFF7F          cmp bx,0x7fff
00001899  9AB7479DF6        call 0xf69d:0x47b7
0000189E  3BD1              cmp dx,cx
000018A0  5D                pop bp
000018A1  27                daa
000018A2  D9ABFC13          fldcw [bp+di+0x13fc]
000018A6  E82FD1            call 0xe9d8
000018A9  8BC6              mov ax,si
000018AB  E86E38            call 0x511c
000018AE  45                inc bp
000018AF  37                aaa
000018B0  AD                lodsw
000018B1  52                push dx
000018B2  DD7311            fnsave [bp+di+0x11]
000018B5  40                inc ax
000018B6  52                push dx
000018B7  682BAA            push word 0xaa2b
000018BA  BC5D86            mov sp,0x865d
000018BD  6F                outsw
000018BE  F0C00397          lock rol byte [bp+di],0x97
000018C2  03F3              add si,bx
000018C4  B3B4              mov bl,0xb4
000018C6  E93EB3            jmp 0xcc07
000018C9  B1B3              mov cl,0xb3
000018CB  0397AA7C          add dx,[bx+0x7caa]
000018CF  20740D            and [si+0xd],dh
000018D2  0AED              or ch,ch
000018D4  2400              and al,0x0
000018D6  F4                hlt
000018D7  5C                pop sp
000018D8  07                pop es
000018D9  FB                sti
000018DA  6F                outsw
000018DB  4F                dec di
000018DC  3B09              cmp cx,[bx+di]
000018DE  DE35              fidiv word [di]
000018E0  088DB4BA          or [di+0xbab4],cl
000018E4  AA                stosb
000018E5  EBB8              jmp short 0x189f
000018E7  2D8ECC            sub ax,0xcc8e
000018EA  B273              mov dl,0x73
000018EC  CD7C              int 0x7c
000018EE  1F                pop ds
000018EF  CD98              int 0x98
000018F1  D7                xlatb
000018F2  FD                std
000018F3  72C5              jc 0x18ba
000018F5  EE                out dx,al
000018F6  07                pop es
000018F7  C07EB734          sar byte [bp-0x49],0x34
000018FB  01732B            add [bp+di+0x2b],si
000018FE  F8                clc
000018FF  A15CF9            mov ax,[0xf95c]
00001902  FA                cli
00001903  F1                int1
00001904  FB                sti
00001905  A35BDA            mov [0xda5b],ax
00001908  52                push dx
00001909  0B487E            or cx,[bx+si+0x7e]
0000190C  E83C10            call 0x294b
0000190F  09EA              or dx,bp
00001911  7400              jz 0x1913
00001913  13B80489          adc di,[bx+si+0x8904]
00001917  1F                pop ds
00001918  C3                ret
00001919  60                pusha
0000191A  8D5303            lea dx,[bp+di+0x3]
0000191D  809D13E2DF        sbb byte [di+0xe213],0xdf
00001922  F9                stc
00001923  72EF              jc 0x1914
00001925  0248EE            add cl,[bx+si-0x12]
00001928  FC                cld
00001929  3BDA              cmp bx,dx
0000192B  0FEEE6            pmaxsw mm4,mm6
0000192E  87B264DE          xchg si,[bp+si+0xde64]
00001932  95                xchg ax,bp
00001933  807E4DCB          cmp byte [bp+0x4d],0xcb
00001937  B656              mov dh,0x56
00001939  A819              test al,0x19
0000193B  72C2              jc 0x18ff
0000193D  DA941EDE          ficom dword [si+0xde1e]
00001941  1E                push ds
00001942  E303              jcxz 0x1947
00001944  B658              mov dh,0x58
00001946  56                push si
00001947  9C                pushf
00001948  2C3E              sub al,0x3e
0000194A  4C                dec sp
0000194B  018ECA72          add [bp+0x72ca],cx
0000194F  4B                dec bx
00001950  D5FB              aad 0xfb
00001952  77EB              ja 0x193f
00001954  0E                push cs
00001955  7300              jnc 0x1957
00001957  E63B              out 0x3b,al
00001959  1A0C              sbb cl,[si]
0000195B  F2361B30          repne sbb si,[ss:bx+si]
0000195F  66877FD0          xchg edi,[bx-0x30]
00001963  760D              jna 0x1972
00001965  C9                leave
00001966  82                db 0x82
00001967  D52B              aad 0x2b
00001969  BDD68B            mov bp,0x8bd6
0000196C  37                aaa
0000196D  87CF              xchg cx,di
0000196F  7CAD              jl 0x191e
00001971  E902C8            jmp 0xe176
00001974  10062BDA          adc [0xda2b],al
00001978  746F              jz 0x19e9
0000197A  FB                sti
0000197B  00411C            add [bx+di+0x1c],al
0000197E  10EB              adc bl,ch
00001980  64AF              fs scasw
00001982  C2E8CF            ret 0xcfe8
00001985  4A                dec dx
00001986  95                xchg ax,bp
00001987  B28B              mov dl,0x8b
00001989  745E              jz 0x19e9
0000198B  97                xchg ax,di
0000198C  F5                cmc
0000198D  52                push dx
0000198E  FF702E            push word [bx+si+0x2e]
00001991  D7                xlatb
00001992  06                push es
00001993  5C                pop sp
00001994  C42F              les bp,[bx]
00001996  46                inc si
00001997  E23F              loop 0x19d8
00001999  04E8              add al,0xe8
0000199B  07                pop es
0000199C  0BC2              or ax,dx
0000199E  BECCEB            mov si,0xebcc
000019A1  384C3F            cmp [si+0x3f],cl
000019A4  307E3C            xor [bp+0x3c],bh
000019A7  A81A              test al,0x1a
000019A9  45                inc bp
000019AA  BB9F8B            mov bx,0x8b9f
000019AD  3807              cmp [bx],al
000019AF  E0B5              loopne 0x1966
000019B1  D917              fst dword [bx]
000019B3  7001              jo 0x19b6
000019B5  FA                cli
000019B6  81CA5B38          or dx,0x385b
000019BA  D917              fst dword [bx]
000019BC  51                push cx
000019BD  7E9C              jng 0x195b
000019BF  60                pusha
000019C0  85F4              test sp,si
000019C2  F08D582B          lock lea bx,[bx+si+0x2b]
000019C6  3BFB              cmp di,bx
000019C8  741B              jz 0x19e5
000019CA  7C6F              jl 0x1a3b
000019CC  C4                db 0xC4
000019CD  FD                std
000019CE  0F2EE1            ucomiss xmm4,xmm1
000019D1  09E8              or ax,bp
000019D3  6D                insw
000019D4  0F                db 0x0F
000019D5  6D                insw
000019D6  24D7              and al,0xd7
000019D8  E2F8              loop 0x19d2
000019DA  F2F3E5AA          rep in ax,0xaa
000019DE  5B                pop bx
000019DF  E9C940            jmp 0x5aab
000019E2  F5                cmc
000019E3  1380F383          adc ax,[bx+si+0x83f3]
000019E7  FE0ECBEE          dec byte [0xeecb]
000019EB  8E93F4F0          mov ss,[bp+di+0xf0f4]
000019EF  B41E              mov ah,0x1e
000019F1  ED                in ax,dx
000019F2  99                cwd
000019F3  D7                xlatb
000019F4  E9C1EB            jmp 0x5b8
000019F7  F69E99CC          neg byte [bp+0xcc99]
000019FB  D90652D6          fld dword [0xd652]
000019FF  F7DB              neg bx
00001A01  E86167            call 0x8165
00001A04  25D30B            and ax,0xbd3
00001A07  3BD3              cmp dx,bx
00001A09  136E25            adc bp,[bp+0x25]
00001A0C  8BEE              mov bp,si
00001A0E  15D025            adc ax,0x25d0
00001A11  F5                cmc
00001A12  5E                pop si
00001A13  B0E8              mov al,0xe8
00001A15  4F                dec di
00001A16  07                pop es
00001A17  2E0B06F599        or ax,[cs:0x99f5]
00001A1C  D6                salc
00001A1D  37                aaa
00001A1E  E5E3              in ax,0xe3
00001A20  AA                stosb
00001A21  3B4B50            cmp cx,[bp+di+0x50]
00001A24  DB84AF4E          fild dword [si+0x4eaf]
00001A28  0102              add [bp+si],ax
00001A2A  054FFD            add ax,0xfd4f
00001A2D  C6                db 0xC6
00001A2E  CDF9              int 0xf9
00001A30  E16B              loope 0x1a9d
00001A32  19C5              sbb bp,ax
00001A34  C8CEEE7A          enter 0xeece,0x7a
00001A38  6BBEE303D6        imul di,[bp+0x3e3],byte -0x2a
00001A3D  BFF58E            mov di,0x8ef5
00001A40  18C7              sbb bh,al
00001A42  BF6F24            mov di,0x246f
00001A45  59                pop cx
00001A46  40                inc ax
00001A47  B2E9              mov dl,0xe9
00001A49  3D7DC7            cmp ax,0xc77d
00001A4C  FB                sti
00001A4D  022D              add ch,[di]
00001A4F  0B70D3            or si,[bx+si-0x2d]
00001A52  CAD22D            retf 0x2dd2
00001A55  080F              or [bx],cl
00001A57  53                push bx
00001A58  67E32B            a32 jcxz 0x1a86
00001A5B  F2F5              repne cmc
00001A5D  AF                scasw
00001A5E  6E                outsb
00001A5F  C3                ret
00001A60  7525              jnz 0x1a87
00001A62  E2F9              loop 0x1a5d
00001A64  5F                pop di
00001A65  FC                cld
00001A66  3D7DE0            cmp ax,0xe07d
00001A69  0E                push cs
00001A6A  5B                pop bx
00001A6B  DB04              fild dword [si]
00001A6D  5A                pop dx
00001A6E  30F2              xor dl,dh
00001A70  EA720981DF        jmp 0xdf81:0x972
00001A75  F2128BD5F5        repne adc cl,[bp+di+0xf5d5]
00001A7A  3B2C              cmp bp,[si]
00001A7C  2472              and al,0x72
00001A7E  54                push sp
00001A7F  0933              or [bp+di],si
00001A81  4E                dec si
00001A82  DDE4              fucom st4
00001A84  FB                sti
00001A85  9D                popf
00001A86  D7                xlatb
00001A87  0F22C2            mov cr0,edx
00001A8A  B943B8            mov cx,0xb843
00001A8D  E4EB              in al,0xeb
00001A8F  0A80E3B4          or al,[bx+si+0xb4e3]
00001A93  7693              jna 0x1a28
00001A95  2F                das
00001A96  60                pusha
00001A97  3B1E3A42          cmp bx,[0x423a]
00001A9B  E91DA5            jmp 0xbfbb
00001A9E  A9F643            test ax,0x43f6
00001AA1  3AB9A9AE          cmp bh,[bx+di+0xaea9]
00001AA5  9C                pushf
00001AA6  4F                dec di
00001AA7  75D5              jnz 0x1a7e
00001AA9  BD8791            mov bp,0x9187
00001AAC  A906D0            test ax,0xd006
00001AAF  F6C404            test ah,0x4
00001AB2  74F0              jz 0x1aa4
00001AB4  E968FF            jmp 0x1a1f
00001AB7  5D                pop bp
00001AB8  2A08              sub cl,[bx+si]
00001ABA  BE2041            mov si,0x4120
00001ABD  81F3325B          xor bx,0x5b32
00001AC1  7F8E              jg 0x1a51
00001AC3  6E                outsb
00001AC4  0E                push cs
00001AC5  54                push sp
00001AC6  89D4              mov sp,dx
00001AC8  07                pop es
00001AC9  5D                pop bp
00001ACA  FA                cli
00001ACB  01E4              add sp,sp
00001ACD  28D0              sub al,dl
00001ACF  37                aaa
00001AD0  E8E0FF            call 0x1ab3
00001AD3  8CD6              mov si,ss
00001AD5  5D                pop bp
00001AD6  AB                stosw
00001AD7  8E00              mov es,[bx+si]
00001AD9  77F6              ja 0x1ad1
00001ADB  B717              mov bh,0x17
00001ADD  E8F8BA            call 0xd5d8
00001AE0  4F                dec di
00001AE1  BA64F3            mov dx,0xf364
00001AE4  686C6A            push word 0x6a6c
00001AE7  8604              xchg al,[si]
00001AE9  C11A49            rcr word [bp+si],0x49
00001AEC  2B876DA5          sub ax,[bx+0xa56d]
00001AF0  F017              lock pop ss
00001AF2  030B              add cx,[bp+di]
00001AF4  0018              add [bx+si],bl
00001AF6  62                db 0x62
00001AF7  F30020            rep add [bx+si],ah
00001AFA  003D              add [di],bh
00001AFC  005200            add [bp+si+0x0],dl
00001AFF  8E00              mov es,[bx+si]
00001B01  9A06A60021        call 0x2100:0xa606
00001B06  5C                pop sp
00001B07  E700              out 0x0,ax
00001B09  0000              add [bx+si],al
00001B0B  FA                cli
00001B0C  0013              add [bp+di],dl
00001B0E  015B50            add [bp+di+0x50],bx
00001B11  4D                dec bp
00001B12  4F                dec di
00001B13  44                inc sp
00001B14  45                inc bp
00001B15  2F                das
00001B16  57                push di
00001B17  5D                pop bp
00001B18  3A20              cmp ah,[bx+si]
00001B1A  2400              and al,0x0
00001B1C  004E6F            add [bp+0x6f],cl
00001B1F  7420              jz 0x1b41
00001B21  45                inc bp
00001B22  6E                outsb
00001B23  6F                outsw
00001B24  7567              jnz 0x1b8d
00001B26  68204D            push word 0x4d20
00001B29  656D              gs insw
00001B2B  6F                outsw
00001B2C  7200              jc 0x1b2e
00001B2E  007920            add [bx+di+0x20],bh
00001B31  41                inc cx
00001B32  7661              jna 0x1b95
00001B34  696C61626C        imul bp,[si+0x61],0x6c62
00001B39  652124            and [gs:si],sp
00001B3C  3830              cmp [bx+si],dh
00001B3E  33982038          xor bx,[bx+si+0x3820]
00001B42  362B20            sub sp,[ss:bx+si]
00001B45  234465            and ax,[si+0x65]
00001B48  7465              jz 0x1baf
00001B4A  6303              arpl [bp+di],ax
00001B4C  82                db 0x82
00001B4D  086415            or [si+0x15],ah
00001B50  53                push bx
00001B51  7973              jns 0x1bc6
00001B53  0B6D27            or bp,[di+0x27]
00001B56  6C                insb
00001B57  08C8              or al,cl
00001B59  7265              jc 0x1bc0
00001B5B  61                popa
00001B5C  642F              fs das
00001B5E  49                dec cx
00001B5F  6E                outsb
00001B60  205072            and [bx+si+0x72],dl
00001B63  45                inc bp
00001B64  18441C            sbb [si+0x1c],al
00001B67  43                inc bx
00001B68  6F                outsw
00001B69  646541            gs inc cx
00001B6C  6E                outsb
00001B6D  0224              add ah,[si]
00001B6F  095720            or [bx+0x20],dx
00001B72  56                push si
00001B73  43                inc bx
00001B74  50                push ax
00001B75  49                dec cx
00001B76  20513A            and [bx+di+0x3a],dl
00001B79  8924              mov [si],sp
00001B7B  6E                outsb
00001B7C  086662            or [bp+0x62],ah
00001B7F  16                push ss
00001B80  51                push cx
00001B81  23890B48          and cx,[bx+di+0x480b]
00001B85  6F                outsw
00001B86  41                inc cx
00001B87  37                aaa
00001B88  7311              jnc 0x1b9b
00001B8A  0456              add al,0x56
00001B8C  3332              xor si,[bp+si]
00001B8E  626974            bound bp,[bx+di+0x74]
00001B91  6941321103        imul ax,[bx+di+0x32],0x311
00001B96  30867247          xor [bp+0x4772],al
00001B9A  7222              jc 0x1bbe
00001B9C  1800              sbb [bx+si],al
00001B9E  0B5593            or dx,[di-0x6d]
00001BA1  046E              add al,0x6e
00001BA3  8720              xchg sp,[bx+si]
00001BA5  54                push sp
00001BA6  4D                dec bp
00001BA7  6E                outsb
00001BA8  6C                insb
00001BA9  6F                outsw
00001BAA  12D9              adc bl,cl
00001BAC  636183            arpl [bx+di-0x7d],sp
00001BAF  8C6584            mov [di-0x7c],fs
00001BB2  689124            push word 0x2491
00001BB5  54                push sp
00001BB6  53                push bx
00001BB7  65A5              gs movsw
00001BB9  94                xchg ax,sp
00001BBA  B432              mov ah,0x32
00001BBC  2273AA            and dh,[bp+di-0x56]
00001BBF  3C20              cmp al,0x20
00001BC1  4C                dec sp
00001BC2  6F                outsw
00001BC3  92                xchg ax,dx
00001BC4  0833              or [bp+di],dh
00001BC6  696E67D158        imul bp,[bp+0x67],0x58d1
00001BCB  45                inc bp
00001BCC  3CA1              cmp al,0xa1
00001BCE  C082636F67        rol byte [bp+si+0x6f63],0x67
00001BD3  6E                outsb
00001BD4  697A984669        imul di,[bp+si-0x68],0x6946
00001BD9  7875              js 0x1c50
00001BDB  7044              jo 0x1c21
00001BDD  D8C5              fadd st5
00001BDF  42                inc dx
00001BE0  61                popa
00001BE1  D6                salc
00001BE2  31367301          xor [0x173],si
00001BE6  80114F            adc byte [bx+di],0x4f
00001BE9  7665              jna 0x1c50
00001BEB  7266              jc 0x1c53
00001BED  C8095B77          enter 0x5b09,0x77
00001BF1  EC                in al,dx
00001BF2  1310              adc dx,[bx+si]
00001BF4  22E9              and ch,cl
00001BF6  4F                dec di
00001BF7  53                push bx
00001BF8  8B78ED            mov di,[bx+si-0x13]
00001BFB  0900              or [bx+si],ax
00001BFD  C51A              lds bx,[bp+si]
00001BFF  207631            and [bp+0x31],dh
00001C02  2E3333            xor si,[cs:bp+di]
00001C05  0A0D              or cl,[di]
00001C07  43                inc bx
00001C08  50                push ax
00001C09  06                push es
00001C0A  6F                outsw
00001C0B  7079              jo 0x1c86
00001C0D  7269              jc 0x1c78
00001C0F  22B72843          and dh,[bx+0x4328]
00001C13  C00229            rol byte [bp+si],0x29
00001C16  2031              and [bx+di],dh
00001C18  3939              cmp [bx+di],di
00001C1A  342D              xor al,0x2d
00001C1C  0437              add al,0x37
00001C1E  2C20              sub al,0x20
00001C20  43                inc bx
00001C21  681210            push word 0x1012
00001C24  61                popa
00001C25  72A1              jc 0x1bc8
00001C27  CB                retf
00001C28  53                push bx
00001C29  636865            arpl [bx+si+0x65],bp
00001C2C  66E4B1            o32 in al,0xb1
00001C2F  206CF9            and [si-0x7],ch
00001C32  61                popa
00001C33  FC                cld
00001C34  54                push sp
00001C35  686F6D            push word 0x6d6f
00001C38  61                popa
00001C39  E044              loopne 0x1c7f
00001C3B  CF                iret
00001C3C  50                push ax
00001C3D  79B0              jns 0x1bef
00001C3F  6C                insb
00001C40  94                xchg ax,sp
00001C41  0D24E9            or ax,0xe924
00001C44  E0AE              loopne 0x1bf4
00001C46  03FF              add di,di
00001C48  60                pusha
00001C49  BFFF9A            mov di,0x9aff
00001C4C  C5                db 0xC5
00001C4D  FF5EF3            call far [bp-0xd]
00001C50  92                xchg ax,dx
00001C51  E300              jcxz 0x1c53
00001C53  37                aaa
00001C54  EB79              jmp short 0x1ccf
00001C56  F0FF2C            lock jmp far [si]
00001C59  86C3              xchg al,bl
00001C5B  1E                push ds
00001C5C  C28C01            ret 0x18c
00001C5F  BE83E8            mov si,0xe883
00001C62  A150A4            mov ax,[0xa450]
00001C65  32D2              xor dl,dl
00001C67  EB53              jmp short 0x1cbc
00001C69  1AF4              sbb dh,ah
00001C6B  B100              mov cl,0x0
00001C6D  730F              jnc 0x1c7e
00001C6F  E881B2            call 0xcef3
00001C72  0000              add [bx+si],al
00001C74  D101              rol word [bx+di],1
00001C76  D0E1              shl cl,1
00001C78  E87900            call 0x1cf4
00001C7B  D0D7              rcl bh,1
00001C7D  E2F9              loop 0x1c78
00001C7F  B602              mov dh,0x2
00001C81  B104              mov cl,0x4
00001C83  7D55              jnl 0x1cda
00001C85  FE05              inc byte [di]
00001C87  353643            xor ax,0x4336
00001C8A  84E2              test dl,ah
00001C8C  F7E8              imul ax
00001C8E  65210B            and [gs:bp+di],cx
00001C91  2DAC8A            sub ax,0x8aac
00001C94  1E                push ds
00001C95  004E83            add [bp-0x7d],cl
00001C98  C10FEB            ror word [bx],0xeb
00001C9B  1432              adc al,0x32
00001C9D  F6B103E8          div byte [bx+di+0xe803]
00001CA1  1120              adc [bx+si],sp
00001CA3  51                push cx
00001CA4  28D6              sub dh,dl
00001CA6  2880C607          sub [bx+si+0x7c6],al
00001CAA  8ACE              mov cl,dh
00001CAC  EB2D              jmp short 0x1cdb
00001CAE  1F                pop ds
00001CAF  3593DB            xor ax,0xdb93
00001CB2  F9                stc
00001CB3  01E9              add cx,bp
00001CB5  51                push cx
00001CB6  8A04              mov al,[si]
00001CB8  1F                pop ds
00001CB9  67AA              a32 stosb
00001CBB  32B6D1AB          xor dh,[bp+0xabd1]
00001CBF  368801            mov [ss:bx+di],al
00001CC2  B8E8F2            mov ax,0xf2e8
00001CC5  89E5              mov bp,sp
00001CC7  E82943            call 0x5ff3
00001CCA  0568EB            add ax,0xeb68
00001CCD  EC                in al,dx
00001CCE  9D                popf
00001CCF  F344              rep inc sp
00001CD1  43                inc bx
00001CD2  D8E8              fsubr st0
00001CD4  17                pop ss
00001CD5  B0C1              mov al,0xc1
00001CD7  55                push bp
00001CD8  8CE8              mov ax,gs
00001CDA  12163179          adc dl,[0x7931]
00001CDE  C6C31A            mov bl,0x1a
00001CE1  41                inc cx
00001CE2  4A                dec dx
00001CE3  06                push es
00001CE4  72EB              jc 0x1cd1
00001CE6  BAFECA            mov dx,0xcafe
00001CE9  7917              jns 0x1d02
00001CEB  A1E495            mov ax,[0x95e4]
00001CEE  AD                lodsw
00001CEF  A0E8B2            mov al,[0xb2e8]
00001CF2  4F                dec di
00001CF3  A7                cmpsw
00001CF4  F7D1              not cx
00001CF6  E5F5              in ax,0xf5
00001CF8  52                push dx
00001CF9  D421              aam 0x21
00001CFB  A6                cmpsb
00001CFC  3E8401            test [ds:bx+di],al
00001CFF  06                push es
00001D00  0E                push cs
00001D01  F4                hlt
00001D02  D2                db 0xD2
00001D03  B45C              mov ah,0x5c
00001D05  CE                into
00001D06  BC4162            mov sp,0x6241
00001D09  D18BC1F3          ror word [bp+di+0xf3c1],1
00001D0D  BA665E            mov dx,0x5e66
00001D10  66C44C21          les ecx,[si+0x21]
00001D14  CD2B              int 0x2b
00001D16  97                xchg ax,di
00001D17  A19023            mov ax,[0x2390]
00001D1A  F8                clc
00001D1B  0A3B              or bh,[bp+di]
00001D1D  C87611C8          enter 0x1176,0xc8
00001D21  8B1E00DB          mov bx,[0xdb00]
00001D25  94                xchg ax,sp
00001D26  01B43FCD          add [si+0xcd3f],si
00001D2A  216629            and [bp+0x29],sp
00001D2D  06                push es
00001D2E  145A              adc al,0x5a
00001D30  FB                sti
00001D31  0B5AB6            or bx,[bp+si-0x4a]
00001D34  C3                ret
00001D35  0E                push cs
00001D36  1F                pop ds
00001D37  9C                pushf
00001D38  01FC              add sp,di
00001D3A  9A92377303        call 0x373:0x3792
00001D3F  E99109            jmp 0x26d3
00001D42  80F0D9            xor al,0xd9
00001D45  FD                std
00001D46  01772D            add [bx+0x2d],si
00001D49  FA                cli
00001D4A  258CC7            and ax,0xc78c
00001D4D  9F                lahf
00001D4E  1E                push ds
00001D4F  16                push ss
00001D50  00810106          add [bx+di+0x601],al
00001D54  49                dec cx
00001D55  030F              add cx,[bx]
00001D57  01164705          add [0x547],dx
00001D5B  20C0              and al,al
00001D5D  0C01              or al,0x1
00001D5F  16                push ss
00001D60  3489              xor al,0x89
00001D62  C0EB00            shr bl,0x0
00001D65  BB08A9            mov bx,0xa908
00001D68  60                pusha
00001D69  04E3              add al,0xe3
00001D6B  8EEB              mov gs,bx
00001D6D  24FE              and al,0xfe
00001D6F  0DFB8C            or ax,0x8cfb
00001D72  06                push es
00001D73  A4                movsb
00001D74  40                inc ax
00001D75  1201              adc al,[bx+di]
00001D77  26A12C00          mov ax,[es:0x2c]
00001D7B  A3A68A            mov [0x8aa6],ax
00001D7E  37                aaa
00001D7F  0A01              or al,[bx+di]
00001D81  AC                lodsb
00001D82  0275A3            add dh,[di-0x5d]
00001D85  B201              mov dl,0x1
00001D87  8CD0              mov ax,ss
00001D89  054008            add ax,0x840
00001D8C  AE                scasb
00001D8D  102D              adc [di],ch
00001D8F  0916717A          or [0x7a71],dx
00001D93  A13DE8            mov ax,[0xe83d]
00001D96  3AC8              cmp cl,al
00001D98  93                xchg ax,bx
00001D99  081D              or [di],bl
00001D9B  2A09              sub cl,[bx+di]
00001D9D  A35188            mov [0x8851],ax
00001DA0  D47F              aam 0x7f
00001DA2  57                push di
00001DA3  A39D0A            mov [0xa9d],ax
00001DA6  4E                dec si
00001DA7  692C037B          imul bp,[si],0x7b03
00001DAB  17                pop ss
00001DAC  C500              lds ax,[bx+si]
00001DAE  1218              adc bl,[bx+si]
00001DB0  61                popa
00001DB1  17                pop ss
00001DB2  8474BE            test [si-0x42],dh
00001DB5  D0A367AC          shl byte [bp+di+0xac67],1
00001DB9  2EAF              cs scasw
00001DBB  A34A49            mov [0x494a],ax
00001DBE  C28AE4            ret 0xe48a
00001DC1  B321              mov bl,0x21
00001DC3  16                push ss
00001DC4  328ED277          xor cl,[bp+0x77d2]
00001DC8  6680D610          o32 adc dh,0x10
00001DCC  0805              or [di],al
00001DCE  65F6069C1A74      test byte [gs:0x1a9c],0x74
00001DD4  06                push es
00001DD5  BA2919            mov dx,0x1929
00001DD8  07                pop es
00001DD9  63FC              arpl sp,di
00001DDB  09B656DB          or [bp+0xdb56],si
00001DDF  A7                cmpsw
00001DE0  D525              aad 0x25
00001DE2  B77B              mov bh,0x7b
00001DE4  A17912            mov ax,[0x1279]
00001DE7  0BAAEB8C          or bp,[bp+si+0x8ceb]
00001DEB  0A814D03          or al,[bx+di+0x34d]
00001DEF  884210            mov [bp+si+0x10],al
00001DF2  0E                push cs
00001DF3  3404              xor al,0x4
00001DF5  2E35F726          cs xor ax,0x26f7
00001DF9  C70612F85C77      mov word [0xf812],0x775c
00001DFF  121C              adc bl,[si]
00001E01  023C              add bh,[si]
00001E03  00A6979B          add [bp+0x9b97],ah
00001E07  8B1E978F          mov bx,[0x8f97]
00001E0B  2009              and [bx+di],cl
00001E0D  82                db 0x82
00001E0E  A3088E            mov [0x8e08],ax
00001E11  06                push es
00001E12  A111B2            mov ax,[0xb211]
00001E15  E316              jcxz 0x1e2d
00001E17  A6                cmpsb
00001E18  9A55714940        call 0x4049:0x7155
00001E1D  CB                retf
00001E1E  91                xchg ax,cx
00001E1F  08C6              or dh,al
00001E21  06                push es
00001E22  3603BD069E        add di,[ss:di+0x9e06]
00001E27  F604CB            test byte [si],0xcb
00001E2A  7D83              jnl 0x1daf
00001E2C  C9                leave
00001E2D  0BC8              or cx,ax
00001E2F  0F0000            sldt [bx+si]
00001E32  02D0              add dl,al
00001E34  8AD6              mov dl,dh
00001E36  80E260            and dl,0x60
00001E39  80CA9A            or dl,0x9a
00001E3C  B6C0              mov dh,0xc0
00001E3E  E82C07            call 0x256d
00001E41  A30221            mov [0x2102],ax
00001E44  9A010EF789        call 0x89f7:0xe01
00001E49  16                push ss
00001E4A  A89B              test al,0x9b
00001E4C  1F                pop ds
00001E4D  07                pop es
00001E4E  98                cbw
00001E4F  0067A3            add [bx-0x5d],ah
00001E52  9C                pushf
00001E53  01A36503          add [bp+di+0x365],sp
00001E57  A35D5E            mov [0x5e5d],ax
00001E5A  D1                db 0xD1
00001E5B  F33EBCE899        ds rep mov sp,0x99e8
00001E60  A398C1            mov [0xc198],ax
00001E63  5D                pop bp
00001E64  083EDFE8          or [0xe8df],bh
00001E68  012B              add [bp+di],bp
00001E6A  6304              arpl [si],ax
00001E6C  800380            add byte [bp+di],0x80
00001E6F  3E                db 0x3E
00001E70  82                db 0x82
00001E71  037405            add si,[si+0x5]
00001E74  B8FF05            mov ax,0x5ff
00001E77  CD31              int 0x31
00001E79  E87F05            call 0x23fb
00001E7C  04EA              add al,0xea
00001E7E  1D08B8            sbb ax,0xb808
00001E81  0402              add al,0x2
00001E83  B331              mov bl,0x31
00001E85  0E                push cs
00001E86  890E0978          mov [0x7809],cx
00001E8A  22F3              and dh,bl
00001E8C  47                inc di
00001E8D  1E                push ds
00001E8E  03B80502          add di,[bx+si+0x205]
00001E92  2E                db 0x2E
00001E93  D3                db 0xD3
00001E94  F7632F            mul word [bp+di+0x2f]
00001E97  0084240F          add [si+0xf24],al
00001E9B  A807              test al,0x7
00001E9D  E86900            call 0x1f09
00001EA0  B43E              mov ah,0x3e
00001EA2  A9A201            test ax,0x1a2
00001EA5  F3EF              rep out dx,ax
00001EA7  A7                cmpsw
00001EA8  27                daa
00001EA9  DF7009            fbstp tword [bx+si+0x9]
00001EAC  8B14              mov dx,[si]
00001EAE  95                xchg ax,bp
00001EAF  C6                db 0xC6
00001EB0  0E                push cs
00001EB1  0A10              or dl,[bx+si]
00001EB3  03163003          add dx,[0x330]
00001EB7  8CC0              mov ax,es
00001EB9  8ED0              mov ss,ax
00001EBB  C7                db 0xC7
00001EBC  6B60E219          imul sp,[bx+si-0x1e],byte +0x19
00001EC0  2419              and al,0x19
00001EC2  42                inc dx
00001EC3  AE                scasb
00001EC4  28E9              sub cl,ch
00001EC6  FF369B15          push word [0x159b]
00001ECA  DFACEF51          fild qword [si+0x51ef]
00001ECE  12A5EBE6          adc ah,[di+0xe6eb]
00001ED2  A19A2B            mov ax,[0x2b9a]
00001ED5  CF                iret
00001ED6  FE                db 0xFE
00001ED7  DE5D14            ficomp word [di+0x14]
00001EDA  03F0              add si,ax
00001EDC  45                inc bp
00001EDD  2267C6            and ah,[bx-0x3a]
00001EE0  45                inc bp
00001EE1  1D4AE8            sbb ax,0xe84a
00001EE4  5A                pop dx
00001EE5  145E              adc al,0x5e
00001EE7  6D                insw
00001EE8  A2F9E2            mov [0xe2f9],al
00001EEB  16                push ss
00001EEC  EB07              jmp short 0x1ef5
00001EEE  40                inc ax
00001EEF  CB                retf
00001EF0  810696010104      add word [0x196],0x401
00001EF6  7305              jnc 0x1efd
00001EF8  830EB0E208        or word [0xe2b0],byte +0x8
00001EFD  FF8E2EBA          dec word [bp+0xba2e]
00001F01  65733C            gs jnc 0x1f40
00001F04  71BF              jno 0x1ec5
00001F06  A01671            mov al,[0x7116]
00001F09  E8A706            call 0x25b3
00001F0C  44                inc sp
00001F0D  FA                cli
00001F0E  7FBC              jg 0x1ecc
00001F10  12B72516          adc dh,[bx+0x1625]
00001F14  D97F65            fnstcw [bx+0x65]
00001F17  42                inc dx
00001F18  9F                lahf
00001F19  813EA34C4512      cmp word [0x4ca3],0x1245
00001F1F  FB                sti
00001F20  CC                int3
00001F21  0E                push cs
00001F22  27                daa
00001F23  0BA15731          or sp,[bx+di+0x3157]
00001F27  157974            adc ax,0x7479
00001F2A  355807            xor ax,0x758
00001F2D  283EF537          sub [0x37f5],bh
00001F31  C604E2            mov byte [si],0xe2
00001F34  EC                in al,dx
00001F35  E85935            call 0x5491
00001F38  A1DBA3            mov ax,[0xa3db]
00001F3B  97                xchg ax,di
00001F3C  FA                cli
00001F3D  8D                db 0x8D
00001F3E  D6                salc
00001F3F  AE                scasb
00001F40  F4                hlt
00001F41  A39A83            mov [0x839a],ax
00001F44  E8C92A            call 0x4a10
00001F47  51                push cx
00001F48  A3F4A1            mov [0xa1f4],ax
00001F4B  D4A3              aam 0xa3
00001F4D  8045B563          add byte [di-0x4b],0x63
00001F51  A14167            mov ax,[0x6741]
00001F54  4C                dec sp
00001F55  99                cwd
00001F56  1E                push ds
00001F57  0C05              or al,0x5
00001F59  0E                push cs
00001F5A  2473              and al,0x73
00001F5C  76D9              jna 0x1f37
00001F5E  1428              adc al,0x28
00001F60  D0891EC7          ror byte [bx+di+0xc71e],1
00001F64  7293              jc 0x1ef9
00001F66  19F4              sbb sp,si
00001F68  82                db 0x82
00001F69  EC                in al,dx
00001F6A  4D                dec bp
00001F6B  2429              and al,0x29
00001F6D  58                pop ax
00001F6E  F606FD5016        test byte [0x50fd],0x16
00001F73  4B                dec bx
00001F74  1A0D              sbb cl,[di]
00001F76  8B2E1C64          mov bp,[0x641c]
00001F7A  FD                std
00001F7B  102F              adc [bx],ch
00001F7D  98                cbw
00001F7E  3EE59B            ds in ax,0x9b
00001F81  892E0E12          mov [0x120e],bp
00001F85  CC                int3
00001F86  55                push bp
00001F87  16                push ss
00001F88  18FD              sbb ch,bh
00001F8A  AD                lodsw
00001F8B  F9                stc
00001F8C  3293A933          xor dl,[bp+di+0x33a9]
00001F90  ED                in ax,dx
00001F91  DF260E3C          fbld tword [0x3c0e]
00001F95  1AAF53F7          sbb ch,[bx+0xf753]
00001F99  B813CA            mov ax,0xca13
00001F9C  760F              jna 0x1fad
00001F9E  262BCA            es sub cx,dx
00001FA1  46                inc si
00001FA2  F4                hlt
00001FA3  2AFA              sub bh,dl
00001FA5  32C0              xor al,al
00001FA7  D2AAF44C          shr byte [bp+si+0x4cf4],cl
00001FAB  C9                leave
00001FAC  E81E0E            call 0x2dcd
00001FAF  7604              jna 0x1fb5
00001FB1  EB68              jmp short 0x201b
00001FB3  5D                pop bp
00001FB4  D919              fstp dword [bx+di]
00001FB6  60                pusha
00001FB7  B2F9              mov dl,0xf9
00001FB9  2335              and si,[di]
00001FBB  61                popa
00001FBC  E80915            call 0x34c8
00001FBF  39E8              cmp ax,bp
00001FC1  91                xchg ax,cx
00001FC2  A5                movsw
00001FC3  AC                lodsb
00001FC4  B94534            mov cx,0x3445
00001FC7  58                pop ax
00001FC8  75B6              jnz 0x1f80
00001FCA  5E                pop si
00001FCB  AA                stosb
00001FCC  7EFC              jng 0x1fca
00001FCE  D06F3F            shr byte [bx+0x3f],1
00001FD1  9A9C6052E2        call 0xe252:0x609c
00001FD6  663E871C          xchg ebx,[ds:si]
00001FDA  AD                lodsw
00001FDB  4A                dec dx
00001FDC  B2CA              mov dl,0xca
00001FDE  5F                pop di
00001FDF  660BC5            or eax,ebp
00001FE2  095C98            or [si-0x68],bx
00001FE5  EF                out dx,ax
00001FE6  1103              adc [bp+di],ax
00001FE8  14AD              adc al,0xad
00001FEA  0AC3              or al,bl
00001FEC  CA097D            retf 0x7d09
00001FEF  7C29              jl 0x201a
00001FF1  7805              js 0x1ff8
00001FF3  B156              mov cl,0x56
00001FF5  05E8BA            add ax,0xbae8
00001FF8  77FB              ja 0x1ff5
00001FFA  0D9AB6            or ax,0xb69a
00001FFD  EAAE7B078C        jmp 0x8c07:0x7bae
00002002  69C0CAA2          imul ax,ax,0xa2ca
00002006  FB                sti
00002007  699F1B342D15      imul bx,[bx+0x341b],0x152d
0000200D  027F0A            add bh,[bx+0xa]
00002010  F1                int1
00002011  2E59              cs pop cx
00002013  5C                pop sp
00002014  12F7              adc dh,bh
00002016  5A                pop dx
00002017  3CAD              cmp al,0xad
00002019  CAF1F2            retf 0xf2f1
0000201C  9B                wait
0000201D  33F6              xor si,si
0000201F  B555              mov ch,0x55
00002021  6497              fs xchg ax,di
00002023  804FD0F6          or byte [bx-0x30],0xf6
00002027  C2200F            ret 0xf20
0000202A  85F3              test bx,si
0000202C  E4EE              in al,0xee
0000202E  D6                salc
0000202F  0DF4D8            or ax,0xd8f4
00002032  92                xchg ax,dx
00002033  BEF715            mov si,0x15f7
00002036  C3                ret
00002037  2B17              sub dx,[bx]
00002039  0E                push cs
0000203A  2C8D              sub al,0x8d
0000203C  0E                push cs
0000203D  97                xchg ax,di
0000203E  3418              xor al,0x18
00002040  E8ADF0            call 0x10f0
00002043  4E                dec si
00002044  81DF4775          sbb di,0x7547
00002048  CD66              int 0x66
0000204A  5D                pop bp
0000204B  30A21A4B          xor [bp+si+0x4b1a],ah
0000204F  3175B6            xor [di-0x4a],si
00002052  C28686            ret 0x8686
00002055  3C41              cmp al,0x41
00002057  FF24              jmp near [si]
00002059  B9C013            mov cx,0x13c0
0000205C  50                push ax
0000205D  98                cbw
0000205E  C0CAF3            ror dl,0xf3
00002061  D0782C            sar byte [bx+si+0x2c],1
00002064  F9                stc
00002065  7C78              jl 0x20df
00002067  45                inc bp
00002068  78DE              js 0x2048
0000206A  3DD7DD            cmp ax,0xddd7
0000206D  60                pusha
0000206E  9F                lahf
0000206F  D07806            sar byte [bx+si+0x6],1
00002072  809EE81773        sbb byte [bp+0x17e8],0x73
00002077  44                inc sp
00002078  7304              jnc 0x207e
0000207A  90                nop
0000207B  71E5              jno 0x2062
0000207D  13F0              adc si,ax
0000207F  73DA              jnc 0x205b
00002081  7ED2              jng 0x2055
00002083  7385              jnc 0x200a
00002085  299723E8          sub [bx+0xe823],dx
00002089  E635              out 0x35,al
0000208B  27                daa
0000208C  C9                leave
0000208D  73A1              jnc 0x2030
0000208F  10F3              adc bl,dh
00002091  9F                lahf
00002092  9F                lahf
00002093  8D6DC5            lea bp,[di-0x3b]
00002096  59                pop cx
00002097  42                inc dx
00002098  98                cbw
00002099  16                push ss
0000209A  47                inc di
0000209B  1C48              sbb al,0x48
0000209D  5D                pop bp
0000209E  ED                in ax,dx
0000209F  833E16B274        cmp word [0xb216],byte +0x74
000020A4  BA582D            mov dx,0x2d58
000020A7  0E                push cs
000020A8  2B6B24            sub bp,[bp+di+0x24]
000020AB  06                push es
000020AC  2BEB              sub bp,bx
000020AE  D6                salc
000020AF  8C                db 0x8C
000020B0  F9                stc
000020B1  FA                cli
000020B2  07                pop es
000020B3  2AD8              sub bl,al
000020B5  9F                lahf
000020B6  F2731A            repne jnc 0x20d3
000020B9  84A7454E          test [bx+0x4e45],ah
000020BD  03F8              add di,ax
000020BF  A1F4A2            mov ax,[0xa2f4]
000020C2  61                popa
000020C3  C6                db 0xC6
000020C4  2B557F            sub dx,[di+0x7f]
000020C7  19CA              sbb dx,cx
000020C9  E715              out 0x15,ax
000020CB  3F                aas
000020CC  6D                insw
000020CD  88D4              mov ah,dl
000020CF  F6                db 0xF6
000020D0  4B                dec bx
000020D1  1355FE            adc dx,[di-0x2]
000020D4  DC81E256          fadd qword [bx+di+0x56e2]
000020D8  17                pop ss
000020D9  8B645B            mov sp,[si+0x5b]
000020DC  E8FC7A            call 0x9bdb
000020DF  EC                in al,dx
000020E0  80D078            adc al,0x78
000020E3  FF                db 0xFF
000020E4  E85568            call 0x893c
000020E7  9E                sahf
000020E8  E8B148            call 0x699c
000020EB  B104              mov cl,0x4
000020ED  52                push dx
000020EE  83569EFE          adc word [bp-0x62],byte -0x2
000020F2  B157              mov cl,0x57
000020F4  77D2              ja 0x20c8
000020F6  35C004            xor ax,0x4c0
000020F9  C9                leave
000020FA  BFAF9E            mov di,0x9eaf
000020FD  E077              loopne 0x2176
000020FF  54                push sp
00002100  82                db 0x82
00002101  FC                cld
00002102  E8C72C            call 0x4dcc
00002105  7B82              jpo 0x2089
00002107  98                cbw
00002108  B8686D            mov ax,0x6d68
0000210B  9D                popf
0000210C  B9D2FB            mov cx,0xfbd2
0000210F  23BF4C06          and di,[bx+0x64c]
00002113  B126              mov cl,0x26
00002115  C234E9            ret 0xe934
00002118  0086C4EE          add [bp+0xeec4],al
0000211C  684F80            push word 0x804f
0000211F  A13690            mov ax,[0x9036]
00002122  680737            push word 0x3707
00002125  B90233            mov cx,0x3302
00002128  E87269            call 0x8a9d
0000212B  A5                movsw
0000212C  FB                sti
0000212D  52                push dx
0000212E  C53B              lds di,[bp+di]
00002130  06                push es
00002131  52                push dx
00002132  67B6A5            a32 mov dh,0xa5
00002135  0BD9              or bx,cx
00002137  367FBB            ss jg 0x20f5
0000213A  2120              and [bx+si],sp
0000213C  8603              xchg al,[bp+di]
0000213E  5C                pop sp
0000213F  BCD6E8            mov sp,0xe8d6
00002142  5C                pop sp
00002143  96                xchg ax,si
00002144  7372              jnc 0x21b8
00002146  89652B            mov [di+0x2b],sp
00002149  9C                pushf
0000214A  3B0EBAB0          cmp cx,[0xb0ba]
0000214E  2A2C              sub ch,[si]
00002150  8720              xchg sp,[bx+si]
00002152  D816242E          fcom dword [0x2e24]
00002156  D0E8              shr al,1
00002158  2600DF            es add bh,bl
0000215B  A7                cmpsw
0000215C  CE                into
0000215D  41                inc cx
0000215E  E505              in ax,0x5
00002160  0C1E              or al,0x1e
00002162  72BD              jc 0x2121
00002164  1118              adc [bx+si],bx
00002166  5E                pop si
00002167  4B                dec bx
00002168  07                pop es
00002169  2F                das
0000216A  95                xchg ax,bp
0000216B  70F7              jo 0x2164
0000216D  1407              adc al,0x7
0000216F  ED                in ax,dx
00002170  DD03              fld qword [bp+di]
00002172  14C9              adc al,0xc9
00002174  050FBF            add ax,0xbf0f
00002177  158036            adc ax,0x3680
0000217A  F6C640            test dh,0x40
0000217D  121F              adc bl,[bx]
0000217F  7081              jo 0x2102
00002181  8A266646          mov ah,[0x4666]
00002185  2002              and [bp+si],al
00002187  8C8AC224          mov [bp+si+0x24c2],cs
0000218B  0F                db 0x0F
0000218C  3C02              cmp al,0x2
0000218E  7416              jz 0x21a6
00002190  2482              and al,0x82
00002192  30AD2510          xor [di+0x1025],ch
00002196  740B              jz 0x21a3
00002198  5C                pop sp
00002199  C0103A            rcl byte [bx+si],0x3a
0000219C  97                xchg ax,di
0000219D  BD06E8            mov bp,0xe806
000021A0  7287              jc 0x2129
000021A2  3A7431            cmp dh,[si+0x31]
000021A5  A7                cmpsw
000021A6  3AE6              cmp ah,dh
000021A8  A2B316            mov [0x16b3],al
000021AB  FE                db 0xFE
000021AC  B5AA              mov ch,0xaa
000021AE  43                inc bx
000021AF  8B2E0C3B          mov bp,[0x3b0c]
000021B3  E768              out 0x68,ax
000021B5  E117              loope 0x21ce
000021B7  10FE              adc dh,bh
000021B9  4C                dec sp
000021BA  A6                cmpsb
000021BB  D7                xlatb
000021BC  7AFE              jpe 0x21bc
000021BE  4C                dec sp
000021BF  6BF680            imul si,si,byte -0x80
000021C2  3472              xor al,0x72
000021C4  021E195B          add bl,[0x5b19]
000021C8  2DF97B            sub ax,0x7bf9
000021CB  CDF5              int 0xf5
000021CD  16                push ss
000021CE  44                inc sp
000021CF  EE                out dx,al
000021D0  59                pop cx
000021D1  55                push bp
000021D2  AF                scasw
000021D3  3E4F              ds dec di
000021D5  F7FD              idiv bp
000021D7  8109CF40          or word [bx+di],0x40cf
000021DB  F9                stc
000021DC  DF2B              fild qword [bp+di]
000021DE  F9                stc
000021DF  7238              jc 0x2219
000021E1  F01AED            lock sbb ch,ch
000021E4  FA                cli
000021E5  730D              jnc 0x21f4
000021E7  B709              mov bh,0x9
000021E9  012D              add [di],bp
000021EB  7820              js 0x220d
000021ED  07                pop es
000021EE  E8AB02            call 0x249c
000021F1  733C              jnc 0x222f
000021F3  9AE1AFED0B        call 0xbed:0xafe1
000021F8  104D74            adc [di+0x74],cl
000021FB  0A4B80            or cl,[bp+di-0x80]
000021FE  F3FFC1            rep inc cx
00002201  E32C              jcxz 0x222f
00002203  F0FB              lock sti
00002205  03C3              add ax,bx
00002207  E87002            call 0x247a
0000220A  C875CD30          enter 0xcd75,0x30
0000220E  0CEB              or al,0xeb
00002210  16                push ss
00002211  326C0C            xor ch,[si+0xc]
00002214  6C                insb
00002215  F666D1            mul byte [bp-0x2f]
00002218  89E8              mov ax,bp
0000221A  7102              jno 0x221e
0000221C  3F                aas
0000221D  EAA08B328D        jmp 0x8d32:0x8ba0
00002222  18AB0CE8          sbb [bp+di+0xe80c],ch
00002226  3A5D77            cmp bl,[di+0x77]
00002229  90                nop
0000222A  9C                pushf
0000222B  48                dec ax
0000222C  A809              test al,0x9
0000222E  8BDD              mov bx,bp
00002230  3DB689            cmp ax,0x89b6
00002233  BF3D5F            mov di,0x5f3d
00002236  BC57D4            mov sp,0xd457
00002239  13DF              adc bx,di
0000223B  878AC5A9          xchg cx,[bp+si+0xa9c5]
0000223F  51                push cx
00002240  43                inc bx
00002241  1B5B10            sbb bx,[bp+di+0x10]
00002244  A1AA0F            mov ax,[0xfaa]
00002247  B481              mov ah,0x81
00002249  CA02A1            retf 0xa102
0000224C  A216CC            mov [0xcc16],al
0000224F  02EB              add ch,bl
00002251  1957F3            sbb [bx-0xd],dx
00002254  D0E8              shr al,1
00002256  B83AB3            mov ax,0xb33a
00002259  3A10              cmp dl,[bx+si]
0000225B  D1558E            rcl word [di-0x72],1
0000225E  089821DB          or [bx+si+0xdb21],bl
00002262  6D                insw
00002263  C8DC3A2E          enter 0x3adc,0x2e
00002267  4C                dec sp
00002268  55                push bp
00002269  C3                ret
0000226A  45                inc bp
0000226B  7D22              jnl 0x228f
0000226D  E711              out 0x11,ax
0000226F  A3C912            mov [0x12c9],ax
00002272  01F7              add di,si
00002274  DBD5              fcmovnbe st5
00002276  C1E7CF            shl di,0xcf
00002279  B703              mov bh,0x3
0000227B  89D2              mov dx,dx
0000227D  43                inc bx
0000227E  D442              aam 0x42
00002280  22F7              and dh,bh
00002282  A0018E            mov al,[0x8e01]
00002285  E03F              loopne 0x22c6
00002287  DF5EF7            fistp word [bp-0x9]
0000228A  47                inc di
0000228B  7C63              jl 0x22f0
0000228D  D6                salc
0000228E  A9EFD7            test ax,0xd7ef
00002291  66D7              o32 xlatb
00002293  F9                stc
00002294  DE0A              fimul word [bp+si]
00002296  95                xchg ax,bp
00002297  3EA10A60          mov ax,[ds:0x600a]
0000229B  010C              add [si],cx
0000229D  92                xchg ax,dx
0000229E  0C12              or al,0x12
000022A0  0C1D              or al,0x1d
000022A2  052D0C            add ax,0xc2d
000022A5  340C              xor al,0xc
000022A7  48                dec ax
000022A8  0CB5              or al,0xb5
000022AA  8E5319            mov ss,[bp+di+0x19]
000022AD  56                push si
000022AE  AA                stosb
000022AF  B6F2              mov dh,0xf2
000022B1  68E888            push word 0x88e8
000022B4  E695              out 0x95,al
000022B6  83FE10            cmp si,byte +0x10
000022B9  C9                leave
000022BA  4B                dec bx
000022BB  8714              xchg dx,[si]
000022BD  DD                db 0xDD
000022BE  4C                dec sp
000022BF  80FF88            cmp bh,0x88
000022C2  93                xchg ax,bx
000022C3  0067FF            add [bx-0x1],ah
000022C6  2475              and al,0x75
000022C8  D7                xlatb
000022C9  B33D              mov bl,0x3d
000022CB  E8E188            call 0xabaf
000022CE  043B              add al,0x3b
000022D0  E98316            jmp 0x3956
000022D3  1380030B          adc ax,[bx+si+0xb03]
000022D7  892C              mov [si],bp
000022D9  1F                pop ds
000022DA  EB79              jmp short 0x2355
000022DC  90                nop
000022DD  E87899            call 0xbc58
000022E0  250A16            and ax,0x160a
000022E3  0F                db 0x0F
000022E4  6C                insb
000022E5  3BC6              cmp ax,si
000022E7  46                inc si
000022E8  35680C            xor ax,0xc68
000022EB  EB25              jmp short 0x2312
000022ED  031F              add bx,[bx]
000022EF  97                xchg ax,di
000022F0  C50F              lds cx,[bx]
000022F2  17                pop ss
000022F3  E85819            call 0x3c4e
000022F6  0C2A              or al,0x2a
000022F8  1B04              sbb ax,[si]
000022FA  EB4D              jmp short 0x2349
000022FC  1348BD            adc cx,[bx+si-0x43]
000022FF  EB7E              jmp short 0x237f
00002301  1E                push ds
00002302  95                xchg ax,bp
00002303  C4                db 0xC4
00002304  E674              out 0x74,al
00002306  16                push ss
00002307  9D                popf
00002308  C6C706            mov bh,0x6
0000230B  1F                pop ds
0000230C  64                db 0x64
0000230D  67                db 0x67
0000230E  F7                db 0xF7
0000230F  CA3B04            retf 0x43b
00002312  8D1A              lea bx,[bp+si]
00002314  0B20              or sp,[bx+si]
00002316  75E4              jnz 0x22fc
00002318  7570              jnz 0x238a
0000231A  1A88FF8D          sbb cl,[bx+si+0x8dff]
0000231E  CE                into
0000231F  A7                cmpsw
00002320  F7C13D8D          test cx,0x8d3d
00002324  7E66              jng 0x238c
00002326  7DC2              jnl 0x22ea
00002328  55                push bp
00002329  AC                lodsb
0000232A  8620              xchg ah,[bx+si]
0000232C  5D                pop bp
0000232D  AD                lodsw
0000232E  58                pop ax
0000232F  D47A              aam 0x7a
00002331  F35E              rep pop si
00002333  FA                cli
00002334  A31136            mov [0x3611],ax
00002337  38B53810          cmp [di+0x1038],dh
0000233B  75C4              jnz 0x2301
0000233D  2A1F              sub bl,[bx]
0000233F  67F6458644        test byte [ebp-0x7a],0x44
00002344  04B7              add al,0xb7
00002346  2F                das
00002347  6E                outsb
00002348  654F              gs dec di
0000234A  39CD              cmp bp,cx
0000234C  56                push si
0000234D  09C8              or ax,cx
0000234F  09B330F4          or [bp+di+0xf430],si
00002353  ED                in ax,dx
00002354  70F7              jo 0x234d
00002356  C553EC            lds dx,[bp+di-0x14]
00002359  D3A240CB          shl word [bp+si+0xcb40],cl
0000235D  F8                clc
0000235E  58                pop ax
0000235F  51                push cx
00002360  A7                cmpsw
00002361  BDD1EB            mov bp,0xebd1
00002364  8BE9              mov bp,cx
00002366  7CB9              jl 0x2321
00002368  D17B80            sar word [bp+di-0x80],1
0000236B  03722D            add si,[bp+si+0x2d]
0000236E  93                xchg ax,bx
0000236F  B80900            mov ax,0x9
00002372  8BCA              mov cx,dx
00002374  C5                db 0xC5
00002375  DD                db 0xDD
00002376  0923              or [bp+di],sp
00002378  B80777            mov ax,0x7707
0000237B  CF                iret
0000237C  BDB2EC            mov bp,0xecb2
0000237F  2A10              sub dl,[bx+si]
00002381  19BC6513          sbb [si+0x1365],di
00002385  B8168B            mov ax,0x8b16
00002388  CD0F              int 0xf
0000238A  40                inc ax
0000238B  A5                movsw
0000238C  DAC3              fcmovb st3
0000238E  BA4104            mov dx,0x441
00002391  D55A              aad 0x5a
00002393  6659              pop ecx
00002395  D313              rcl word [bp+di],cl
00002397  D9E4              ftst
00002399  E000              loopne 0x239b
0000239B  8E                db 0x8E
0000239C  F02E50            cs lock push ax
0000239F  53                push bx
000023A0  1E                push ds
000023A1  B43F              mov ah,0x3f
000023A3  198E7DAF          sbb [bp+0xaf7d],cx
000023A7  1E                push ds
000023A8  751D              jnz 0x23c7
000023AA  1F                pop ds
000023AB  F0114958          lock adc [bx+di+0x58],cx
000023AF  19DA              sbb dx,bx
000023B1  1918              sbb [bx+si],bx
000023B3  92                xchg ax,dx
000023B4  896766            mov [bx+0x66],sp
000023B7  55                push bp
000023B8  48                dec ax
000023B9  B80042            mov ax,0x4200
000023BC  775C              ja 0x241a
000023BE  3B37              cmp si,[bx]
000023C0  2B805B1E          sub ax,[bx+si+0x1e5b]
000023C4  BB3853            mov bx,0x5338
000023C7  33C9              xor cx,cx
000023C9  33D2              xor dx,dx
000023CB  B80101            mov ax,0x101
000023CE  0417              add al,0x17
000023D0  4B                dec bx
000023D1  A800              test al,0x0
000023D3  55                push bp
000023D4  8F                db 0x8F
000023D5  A3EBC0            mov [0xc0eb],ax
000023D8  1803              sbb [bp+di],al
000023DA  5B                pop bx
000023DB  A8E3              test al,0xe3
000023DD  E183              loope 0x2362
000023DF  E6B5              out 0xb5,al
000023E1  E87D7A            call 0x9e61
000023E4  5A                pop dx
000023E5  C1C257            rol dx,0x57
000023E8  BFC3B1            mov di,0xb1c3
000023EB  2D8487            sub ax,0x8784
000023EE  0BF8              or di,ax
000023F0  EB01              jmp short 0x23f3
000023F2  F9                stc
000023F3  395156            cmp [bx+di+0x56],dx
000023F6  2EBA3BBF          cs mov dx,0xbf3b
000023FA  50                push ax
000023FB  C9                leave
000023FC  3F                aas
000023FD  EF                out dx,ax
000023FE  F4                hlt
000023FF  59                pop cx
00002400  D1E6              shl si,1
00002402  2A10              sub dl,[bx+si]
00002404  894ACB            mov [bp+si-0x35],cx
00002407  3D4472            cmp ax,0x7244
0000240A  43                inc bx
0000240B  8BD3              mov dx,bx
0000240D  EE                out dx,al
0000240E  E270              loop 0x2480
00002410  D50F              aad 0xf
00002412  D18BDAC9          ror word [bp+di+0xc9da],1
00002416  0FE253A5          psrad mm2,[bp+di-0x5b]
0000241A  4B                dec bx
0000241B  81C74CEF          add di,0xef4c
0000241F  DD1EA6B1          fstp qword [0xb1a6]
00002423  034406            add ax,[si+0x6]
00002426  642404            fs and al,0x4
00002429  2F                das
0000242A  032F              add bp,[bx]
0000242C  1AE0              sbb ah,al
0000242E  082F              or [bx],ch
00002430  7F7D              jg 0x24af
00002432  2803              sub [bp+di],al
00002434  C14F8294          ror word [bx-0x7e],0x94
00002438  1424              adc al,0x24
0000243A  DE0B              fimul word [bp+di]
0000243C  5A                pop dx
0000243D  5F                pop di
0000243E  5E                pop si
0000243F  3857A7            cmp [bx-0x59],dl
00002442  C3                ret
00002443  12F0              adc dh,al
00002445  849EB806          test [bp+0x6b8],bl
00002449  0511B8            add ax,0xb811
0000244C  34EB              xor al,0xeb
0000244E  0C33              or al,0x33
00002450  6D                insw
00002451  08EB              or bl,ch
00002453  07                pop es
00002454  EF                out dx,ax
00002455  7906              jns 0x245d
00002457  8521              test [bx+di],sp
00002459  8BF0              mov si,ax
0000245B  03F0              add si,ax
0000245D  F4                hlt
0000245E  5F                pop di
0000245F  0E                push cs
00002460  1F                pop ds
00002461  BA1F1A            mov dx,0x1a1f
00002464  F9                stc
00002465  DC8B942F          fmul qword [bp+di+0x2f94]
00002469  53                push bx
0000246A  43                inc bx
0000246B  10B402B2          adc [si+0xb202],dh
0000246F  0AFE              or bh,dh
00002471  80C203            add dl,0x3
00002474  E5AC              in ax,0xac
00002476  8F                db 0x8F
00002477  B8FF4C            mov ax,0x4cff
0000247A  093EB321          or [0x21b3],di
0000247E  FB                sti
0000247F  81B409F5D0FD      xor word [si+0xf509],0xfdd0
00002485  CE                into
00002486  77EB              ja 0x2473
00002488  01810967          add [bx+di+0x6709],ax
0000248C  C745241C02        mov word [di+0x24],0x21c
00002491  6A55              push byte +0x55
00002493  14E8              adc al,0xe8
00002495  64F67D93          idiv byte [fs:di-0x6d]
00002499  F5                cmc
0000249A  7443              jz 0x24df
0000249C  EF                out dx,ax
0000249D  60                pusha
0000249E  EB20              jmp short 0x24c0
000024A0  D454              aam 0x54
000024A2  8C1E5F3A          mov [0x3a5f],ds
000024A6  16                push ss
000024A7  61                popa
000024A8  15316D            adc ax,0x6d31
000024AB  1E                push ds
000024AC  242C              and al,0x2c
000024AE  1A2C              sbb ch,[si]
000024B0  221F              and bl,[bx]
000024B2  64653B7D9E        cmp di,[gs:di-0x62]
000024B7  7DE8              jnl 0x24a1
000024B9  219E5B9E          and [bp+0x9e5b],bx
000024BD  43                inc bx
000024BE  1F                pop ds
000024BF  57                push di
000024C0  9E                sahf
000024C1  807C6511          cmp byte [si+0x65],0x11
000024C5  9E                sahf
000024C6  F8                clc
000024C7  AA                stosb
000024C8  CDCC              int 0xcc
000024CA  8080857508        add byte [bx+si+0x7585],0x8
000024CF  C706ADEDCFEB      mov word [0xedad],0xebcf
000024D5  2F                das
000024D6  B82110            mov ax,0x1021
000024D9  D816333D          fcom dword [0x3d33]
000024DD  057442            add ax,0x4274
000024E0  B81509            mov ax,0x915
000024E3  6D                insw
000024E4  7BFF              jpo 0x24e5
000024E6  51                push cx
000024E7  C4                db 0xC4
000024E8  E8C173            call 0x98ac
000024EB  0381FBFC          add ax,[bx+di+0xfcfb]
000024EF  775F              ja 0x2550
000024F1  66BE7DAB44A6      mov esi,0xa644ab7d
000024F7  5E                pop si
000024F8  004977            add [bx+di+0x77],cl
000024FB  49                dec cx
000024FC  D6                salc
000024FD  710E              jno 0x250d
000024FF  79D1              jns 0x24d2
00002501  5C                pop sp
00002502  3334              xor si,[si]
00002504  0D5C6F            or ax,0x6f5c
00002507  5C                pop sp
00002508  6B5C30C3          imul bx,[si+0x30],byte -0x3d
0000250C  4C                dec sp
0000250D  5C                pop sp
0000250E  B424              mov ah,0x24
00002510  56                push si
00002511  3319              xor bx,[bx+di]
00002513  1BB438AC          sbb si,[si+0xac38]
00002517  B51F              mov ch,0x1f
00002519  1BEA              sbb bp,dx
0000251B  2637              es aaa
0000251D  82                db 0x82
0000251E  37                aaa
0000251F  26D38484B3        rol word [es:si+0xb384],cl
00002524  1B8631EE          sbb ax,[bp+0xee31]
00002528  96                xchg ax,si
00002529  17                pop ss
0000252A  86CC              xchg cl,ah
0000252C  A1FDEA            mov ax,[0xeafd]
0000252F  F0D3F9            lock sar cx,cl
00002532  BC5126            mov sp,0x2651
00002535  C3                ret
00002536  1E                push ds
00002537  06                push es
00002538  63AD7BBE          arpl [di+0xbe7b],bp
0000253C  DE3E6AA7          fidivr word [0xa76a]
00002540  E273              loop 0x25b5
00002542  83C740            add di,byte +0x40
00002545  47                inc di
00002546  19D8              sbb ax,bx
00002548  35C607            xor ax,0x7c6
0000254B  1F                pop ds
0000254C  73E1              jnc 0x252f
0000254E  F9                stc
0000254F  5A                pop dx
00002550  2DFBD4            sub ax,0xd4fb
00002553  95                xchg ax,bp
00002554  0AB6A001          or dh,[bp+0x1a0]
00002558  6780642408D3      and byte [esp+0x8],0xd3
0000255E  CF                iret
0000255F  3DFFEE            cmp ax,0xeeff
00002562  254075            and ax,0x7540
00002565  26B85744          es mov ax,0x4457
00002569  4D                dec bp
0000256A  50                push ax
0000256B  2E8E06F3DD        mov es,[cs:0xddf3]
00002570  1E                push ds
00002571  7EBB              jng 0x252e
00002573  BE4875            mov si,0x7548
00002576  8681C315          xchg al,[bx+di+0x15c3]
0000257A  BEB7EA            mov si,0xeab7
0000257D  2E8A39            mov bh,[cs:bx+di]
00002580  E66B              out 0x6b,al
00002582  0542CF            add ax,0xcf42
00002585  00C4              add ah,al
00002587  B221              mov dl,0x21
00002589  3641              ss inc cx
0000258B  A0662E            mov al,[0x2e66]
0000258E  FF2E1EB9          jmp far [0xb91e]
00002592  60                pusha
00002593  06                push es
00002594  FC                cld
00002595  3DC382            cmp ax,0x82c3
00002598  E074              loopne 0x260e
0000259A  1C3D              sbb al,0x3d
0000259C  0CF7              or al,0xf7
0000259E  5E                pop si
0000259F  3D165C            cmp ax,0x5c16
000025A2  2DCA25            sub ax,0x25ca
000025A5  013D              add [di],di
000025A7  9D                popf
000025A8  E0ED              loopne 0x2597
000025AA  07                pop es
000025AB  5E                pop si
000025AC  0107              add [bx],ax
000025AE  BDE604            mov bp,0x4e6
000025B1  24D9              and al,0xd9
000025B3  87F0              xchg si,ax
000025B5  D91E781C          fstp dword [0x1c78]
000025B9  27                daa
000025BA  42                inc dx
000025BB  804D1806          or byte [di+0x18],0x6
000025BF  1F                pop ds
000025C0  6A63              push byte +0x63
000025C2  12FB              adc bh,bl
000025C4  2EA7              cs cmpsw
000025C6  387118            cmp [bx+di+0x18],dh
000025C9  7D22              jnl 0x25ed
000025CB  72B1              jc 0x257e
000025CD  EE                out dx,al
000025CE  57                push di
000025CF  84402F            test [bx+si+0x2f],al
000025D2  F5                cmc
000025D3  B93700            mov cx,0x37
000025D6  0190C5A4          add [bx+si+0xa4c5],dx
000025DA  E8B10A            call 0x308e
000025DD  2AE1              sub ah,cl
000025DF  E96C0A            jmp 0x304e
000025E2  007346            add [bp+di+0x46],dh
000025E5  A6                cmpsb
000025E6  AF                scasw
000025E7  1E                push ds
000025E8  664B              dec ebx
000025EA  48                dec ax
000025EB  37                aaa
000025EC  9D                popf
000025ED  97                xchg ax,di
000025EE  22D7              and dl,bh
000025F0  3D6210            cmp ax,0x1062
000025F3  6F                outsw
000025F4  35A9C0            xor ax,0xc0a9
000025F7  43                inc bx
000025F8  B6CC              mov dh,0xcc
000025FA  C2DBE7            ret 0xe7db
000025FD  52                push dx
000025FE  194EEB            sbb [bp-0x15],cx
00002601  FA                cli
00002602  8C0680B9          mov [0xb980],es
00002606  7518              jnz 0x2620
00002608  7CCC              jl 0x25d6
0000260A  690AFB48          imul cx,[bp+si],0x48fb
0000260E  02A0230A          add ah,[bx+si+0xa23]
00002612  50                push ax
00002613  B001              mov al,0x1
00002615  2E86067B03        xchg al,[cs:0x37b]
0000261A  3C89              cmp al,0x89
0000261C  674B              a32 dec bx
0000261E  0D58C6            or ax,0xc658
00002621  8E163A2E          mov ss,[0x2e3a]
00002625  C6                db 0xC6
00002626  0E                push cs
00002627  00CB              add bl,cl
00002629  58                pop ax
0000262A  CB                retf
0000262B  1F                pop ds
0000262C  29AB54D3          sub [bp+di+0xd354],bp
00002630  42                inc dx
00002631  19ED              sbb bp,bp
00002633  49                dec cx
00002634  4A                dec dx
00002635  8F                db 0x8F
00002636  0F024FFB          lar cx,[bx-0x5]
0000263A  52                push dx
0000263B  3EC2751F          ds ret 0x1f75
0000263F  0DDBAA            or ax,0xaadb
00002642  E48F              in al,0x8f
00002644  C7                db 0xC7
00002645  32B5472C          xor dh,[di+0x2c47]
00002649  6D                insw
0000264A  06                push es
0000264B  2A503F            sub dl,[bx+si+0x3f]
0000264E  A380BE            mov [0xbe80],ax
00002651  47                inc di
00002652  D39F8606          rcr word [bx+0x686],cl
00002656  5F                pop di
00002657  0D8C8C            or ax,0x8c8c
0000265A  4F                dec di
0000265B  1814              sbb [si],dl
0000265D  57                push di
0000265E  141B              adc al,0x1b
00002660  329D7735          xor bl,[di+0x3577]
00002664  223F              and bh,[bx]
00002666  29A53C1E          sub [di+0x1e3c],sp
0000266A  817D0E07A7        cmp word [di+0xe],0xa707
0000266F  32B22424          xor dh,[bp+si+0x2424]
00002673  83E713            and di,byte +0x13
00002676  3F                aas
00002677  1404              adc al,0x4
00002679  F32EA151D0        rep mov ax,[cs:0xd051]
0000267E  0404              add al,0x4
00002680  44                inc sp
00002681  52                push dx
00002682  E8BC5B            call 0x8241
00002685  B3FA              mov bl,0xfa
00002687  EA8BFAE967        jmp 0x67e9:0xfa8b
0000268C  FD                std
0000268D  0A2E43CF          or ch,[0xcf43]
00002691  A820              test al,0x20
00002693  06                push es
00002694  0E                push cs
00002695  49                dec cx
00002696  CE                into
00002697  43                inc bx
00002698  10C4              adc ah,al
0000269A  19C8              sbb ax,cx
0000269C  5E                pop si
0000269D  213F              and [bx],di
0000269F  C9                leave
000026A0  134C37            adc cx,[si+0x37]
000026A3  F37D2D            rep jnl 0x26d3
000026A6  6E                outsb
000026A7  2C40              sub al,0x40
000026A9  0358C7            add bx,[bx+si-0x39]
000026AC  50                push ax
000026AD  E86509            call 0x3015
000026B0  3D204A            cmp ax,0x4a20
000026B3  355FB7            xor ax,0xb75f
000026B6  2E2A86346A        sub al,[cs:bp+0x6a34]
000026BB  0301              add ax,[bx+di]
000026BD  75BB              jnz 0x267a
000026BF  C7                db 0xC7
000026C0  9F                lahf
000026C1  00A01E00          add [bx+si+0x1e],ah
000026C5  4C                dec sp
000026C6  E95107            jmp 0x2e1a
000026C9  FC                cld
000026CA  80FC40            cmp ah,0x40
000026CD  7206              jc 0x26d5
000026CF  777D              ja 0x274e
000026D1  EC                in al,dx
000026D2  27                daa
000026D3  56                push si
000026D4  1C04              sbb al,0x4
000026D6  0B39              or di,[bx+di]
000026D8  0A4D74            or cl,[di+0x74]
000026DB  A4                movsb
000026DC  0B991AFC          or bx,[bx+di+0xfc1a]
000026E0  0912              or [bp+si],dx
000026E2  4D                dec bp
000026E3  8B581D            mov bx,[bx+si+0x1d]
000026E6  1A19              sbb bl,[bx+di]
000026E8  8406E922          test [0x22e9],al
000026EC  1B20              sbb sp,[bx+si]
000026EE  DE2B              fisubr word [bp+di]
000026F0  1C27              sbb al,0x27
000026F2  56                push si
000026F3  AC                lodsb
000026F4  AD                lodsw
000026F5  141F              adc al,0x1f
000026F7  2E0122            add [cs:bp+si],sp
000026FA  2558A9            and ax,0xa958
000026FD  35FC22            xor ax,0x22fc
00002700  2F                das
00002701  3C22              cmp al,0x22
00002703  235647            and dx,[bp+0x47]
00002706  324315            xor al,[bp+di+0x15]
00002709  37                aaa
0000270A  34AC              xor al,0xac
0000270C  A04A11            mov al,[0x114a]
0000270F  3E35513F          ds xor ax,0x3f51
00002713  02E9              add ch,cl
00002715  AF                scasw
00002716  8E585F            mov ds,[bx+si+0x5f]
00002719  3A5B5A            cmp bl,[bp+di+0x5a]
0000271C  4F                dec di
0000271D  B162              mov cl,0x62
0000271F  3B6255            cmp sp,[bp+si+0x55]
00002722  56                push si
00002723  3C69              cmp al,0x69
00002725  50                push ax
00002726  5D                pop bp
00002727  C58A3D70          lds cx,[bp+si+0x703d]
0000272B  56                push si
0000272C  643F              fs aas
0000272E  777D              ja 0x27ad
00002730  4E                dec si
00002731  AC                lodsb
00002732  97                xchg ax,di
00002733  6F                outsw
00002734  844A83            test [bp+si-0x7d],cl
00002737  2910              sub [bx+si],dx
00002739  B184              mov cl,0x84
0000273B  6D                insw
0000273C  058F41            add ax,0x418f
0000273F  8B878A62          mov ax,[bx+0x628a]
00002743  C54392            lds ax,[bp+di-0x6e]
00002746  839147999C        adc word [bx+di+0x9947],byte -0x64
0000274B  DA15              ficom dword [di]
0000274D  98                cbw
0000274E  48                dec ax
0000274F  8D1B              lea bx,[bp+di]
00002751  49                dec cx
00002752  A7                cmpsw
00002753  88582B            mov [bx+si+0x2b],bl
00002756  05EB3F            add ax,0x3feb
00002759  B44B              mov ah,0x4b
0000275B  B063              mov al,0x63
0000275D  2BA9224C          sub bp,[bx+di+0x4c22]
00002761  B7BE              mov bh,0xbe
00002763  C24EBE            ret 0xbe4e
00002766  D6                salc
00002767  8AAE064F          mov ch,[bp+0x4f06]
0000276B  B207              mov dl,0x7
0000276D  D0515D            rcl byte [bx+di+0x5d],1
00002770  B1B2              mov cl,0xb2
00002772  06                push es
00002773  56                push si
00002774  D3890D2D          ror word [bx+di+0x2d0d],cl
00002778  2B3A              sub di,[bp+si]
0000277A  84DF              test bh,bl
0000277C  C7                db 0xC7
0000277D  62                db 0x62
0000277E  E1B6              loope 0x2736
00002780  C5                db 0xC5
00002781  FA                cli
00002782  1BEA              sbb bp,dx
00002784  84FE              test dh,bh
00002786  07                pop es
00002787  0550A4            add ax,0xa450
0000278A  DAD3              fcmovbe st3
0000278C  F0669C            lock pushfd
0000278F  109A0675          adc [bp+si+0x7506],bl
00002793  F6573B            not byte [bx+0x3b]
00002796  8DAA2EFD          lea bp,[bp+si+0xfd2e]
0000279A  AA                stosb
0000279B  1CFD              sbb al,0xfd
0000279D  29F3              sub bx,si
0000279F  98                cbw
000027A0  07                pop es
000027A1  E77B              out 0x7b,ax
000027A3  5D                pop bp
000027A4  239D00AE          and bx,[di+0xae00]
000027A8  0B28              or bp,[bx+si]
000027AA  4D                dec bp
000027AB  CD28              int 0x28
000027AD  E53A              in ax,0x3a
000027AF  A0AFA0            mov al,[0xa0af]
000027B2  15B024            adc ax,0x24b0
000027B5  F267AE            repne a32 scasb
000027B8  3C6B              cmp al,0x6b
000027BA  03B9350E          add di,[bx+di+0xe35]
000027BE  8703              xchg ax,[bp+di]
000027C0  BDCE73            mov bp,0x73ce
000027C3  D6                salc
000027C4  33062A69          xor ax,[0x692a]
000027C8  68870D            push word 0xd87
000027CB  664F              dec edi
000027CD  3F                aas
000027CE  BDFECB            mov bp,0xcbfe
000027D1  D6                salc
000027D2  9C                pushf
000027D3  CB                retf
000027D4  F753E8            not word [bp+di-0x18]
000027D7  AE                scasb
000027D8  B6A1              mov dh,0xa1
000027DA  A30503            mov [0x305],ax
000027DD  D7                xlatb
000027DE  21D7              and di,dx
000027E0  22DF              and bl,bh
000027E2  5D                pop bp
000027E3  DF77E7            fbstp tword [bx-0x19]
000027E6  45                inc bp
000027E7  BCBECB            mov sp,0xcbbe
000027EA  E8F5DC            call 0x4e2
000027ED  E404              in al,0x4
000027EF  8F07              pop word [bx]
000027F1  BDADAF            mov bp,0xafad
000027F4  18F8              sbb al,bh
000027F6  1D2EFC            sbb ax,0xfc2e
000027F9  C60724            mov byte [bx],0x24
000027FC  18801795          sbb [bx+si+0x9517],al
00002800  BE78C2            mov si,0xc278
00002803  C48A6DA5          les cx,[bp+si+0xa56d]
00002807  07                pop es
00002808  C3                ret
00002809  2CB1              sub al,0xb1
0000280B  347E              xor al,0x7e
0000280D  26B665            es mov dh,0x65
00002810  D0                db 0xD0
00002811  B77F              mov bh,0x7f
00002813  BB2187            mov bx,0x8721
00002816  7992              jns 0x27aa
00002818  74C4              jz 0x27de
0000281A  81320476          xor word [bp+si],0x7604
0000281E  E261              loop 0x2881
00002820  B1AF              mov cl,0xaf
00002822  2D07EB            sub ax,0xeb07
00002825  6A0F              push byte +0xf
00002827  88B48865          mov [si+0x6588],dh
0000282B  1D0408            sbb ax,0x804
0000282E  E0AC              loopne 0x27dc
00002830  50                push ax
00002831  E85A07            call 0x2f8e
00002834  58                pop ax
00002835  C0                db 0xC0
00002836  73F4              jnc 0x282c
00002838  BAAAC9            mov dx,0xc9aa
0000283B  45                inc bp
0000283C  BBD658            mov bx,0x58d6
0000283F  694C0ABF2D        imul cx,[si+0xa],0x2dbf
00002844  EE                out dx,al
00002845  7448              jz 0x288f
00002847  678AAEBCDE8845    mov ch,[esi+0x4588debc]
0000284E  C11DEA            rcr word [di],0xea
00002851  DFB501AD          fbstp tword [di+0xad01]
00002855  3F                aas
00002856  27                daa
00002857  BE9D4E            mov si,0x4e9d
0000285A  17                pop ss
0000285B  2A449D            sub al,[si-0x63]
0000285E  4E                dec si
0000285F  D0BED006          sar byte [bp+0x6d0],1
00002863  EBA3              jmp short 0x2808
00002865  8A0B              mov cl,[bp+di]
00002867  FD                std
00002868  F6BBD9B5          idiv byte [bp+di+0xb5d9]
0000286C  1BD8              sbb bx,ax
0000286E  82                db 0x82
0000286F  CC                int3
00002870  06                push es
00002871  E9BE06            jmp 0x2f32
00002874  CB                retf
00002875  BA91F0            mov dx,0xf091
00002878  36A1A4F7          mov ax,[ss:0xf7a4]
0000287C  09AF3EC6          or [bx+0xc63e],bp
00002880  5C                pop sp
00002881  88BF2412          mov [bx+0x1224],bh
00002885  E9A71A            jmp 0x432f
00002888  794A              jns 0x28d4
0000288A  0322              add sp,[bp+si]
0000288C  86E8              xchg ch,al
0000288E  D828              fsubr dword [bx+si]
00002890  D3A07B22          shl word [bx+si+0x227b],cl
00002894  5D                pop bp
00002895  04A1              add al,0xa1
00002897  6C                insb
00002898  265D              es pop bp
0000289A  FA                cli
0000289B  D8BD6FDB          fdivr dword [di+0xdb6f]
0000289F  2606              es push es
000028A1  5E                pop si
000028A2  8B5DDE            mov bx,[di-0x22]
000028A5  A6                cmpsb
000028A6  95                xchg ax,bp
000028A7  0C4B              or al,0x4b
000028A9  54                push sp
000028AA  4B                dec bx
000028AB  5B                pop bx
000028AC  63814848          arpl [bx+di+0x4848],ax
000028B0  AD                lodsw
000028B1  7403              jz 0x28b6
000028B3  038AEBED          add cx,[bp+si+0xedeb]
000028B7  EBEB              jmp short 0x28a4
000028B9  E47C              in al,0x7c
000028BB  D96337            fldenv [bp+di+0x37]
000028BE  0D280C            or ax,0xc28
000028C1  CA0CEB            retf 0xeb0c
000028C4  E88B6A            call 0x9352
000028C7  B0D5              mov al,0xd5
000028C9  53                push bx
000028CA  E650              out 0x50,al
000028CC  BB4520            mov bx,0x2045
000028CF  FB                sti
000028D0  9D                popf
000028D1  681A12            push word 0x121a
000028D4  48                dec ax
000028D5  17                pop ss
000028D6  03C4              add ax,sp
000028D8  16                push ss
000028D9  06                push es
000028DA  1E                push ds
000028DB  3BCA              cmp cx,dx
000028DD  C9                leave
000028DE  E5DE              in ax,0xde
000028E0  F1                int1
000028E1  04E1              add al,0xe1
000028E3  83BA699C90        cmp word [bp+si+0x9c69],byte -0x70
000028E8  004FE4            add [bx-0x1c],cl
000028EB  E9773B            jmp 0x6465
000028EE  95                xchg ax,bp
000028EF  D42C              aam 0x2c
000028F1  3F                aas
000028F2  68DF49            push word 0x49df
000028F5  3BE8              cmp bp,ax
000028F7  0FF1E1            psllw mm4,mm1
000028FA  5F                pop di
000028FB  206352            and [bp+di+0x52],ah
000028FE  5F                pop di
000028FF  EF                out dx,ax
00002900  6F                outsw
00002901  F6B72F7F          div byte [bx+0x7f2f]
00002905  93                xchg ax,bx
00002906  29C0              sub ax,ax
00002908  67E316            a32 jcxz 0x2921
0000290B  2F                das
0000290C  7803              js 0x2911
0000290E  E99ED3            jmp 0xfcaf
00002911  FA                cli
00002912  4D                dec bp
00002913  E92F8B            jmp 0xb445
00002916  D96BBC            fldcw [bp+di-0x44]
00002919  67D24064          rol byte [eax+0x64],cl
0000291D  66D34DF1          ror dword [di-0xf],cl
00002921  46                inc si
00002922  B9479B            mov cx,0x9b47
00002925  48                dec ax
00002926  C7                db 0xC7
00002927  C8487E1C          enter 0x7e48,0x1c
0000292B  CB                retf
0000292C  A9A465            test ax,0x65a4
0000292F  F274C5            repne jz 0x28f7
00002932  50                push ax
00002933  EB6D              jmp short 0x29a2
00002935  29EE              sub si,bp
00002937  0B0A              or cx,[bp+si]
00002939  26F6534D          not byte [es:bp+di+0x4d]
0000293D  51                push cx
0000293E  47                inc di
0000293F  A6                cmpsb
00002940  325488            xor dl,[si-0x78]
00002943  7546              jnz 0x298b
00002945  50                push ax
00002946  D6                salc
00002947  B5D8              mov ch,0xd8
00002949  92                xchg ax,dx
0000294A  1E                push ds
0000294B  7C87              jl 0x28d4
0000294D  82                db 0x82
0000294E  010B              add [bp+di],cx
00002950  DB                db 0xDB
00002951  7436              jz 0x2989
00002953  97                xchg ax,di
00002954  98                cbw
00002955  E65D              out 0x5d,al
00002957  97                xchg ax,di
00002958  774F              ja 0x29a9
0000295A  60                pusha
0000295B  3B4D03            cmp cx,[di+0x3]
0000295E  7D4D              jnl 0x29ad
00002960  B017              mov al,0x17
00002962  58                pop ax
00002963  D7                xlatb
00002964  FFB75530          push word [bx+0x3055]
00002968  1E                push ds
00002969  6F                outsw
0000296A  191F              sbb [bx],bx
0000296C  E9004D            jmp 0x766f
0000296F  4C                dec sp
00002970  DF                db 0xDF
00002971  08AC0201          or [si+0x102],ch
00002975  02369E14          add dh,[0x149e]
00002979  F791C584          not word [bx+di+0x84c5]
0000297D  08DF              or bh,bl
0000297F  1463              adc al,0x63
00002981  E01D              loopne 0x29a0
00002983  F78036E11434      test word [bx+si+0xe136],0x3414
00002989  57                push di
0000298A  E8FC26            call 0x5089
0000298D  7702              ja 0x2991
0000298F  7824              js 0x29b5
00002991  82                db 0x82
00002992  9F                lahf
00002993  2000              and [bx+si],al
00002995  A6                cmpsb
00002996  33DF              xor bx,di
00002998  40                inc ax
00002999  93                xchg ax,bx
0000299A  91                xchg ax,cx
0000299B  20CF              and bh,cl
0000299D  C9                leave
0000299E  B4E6              mov ah,0xe6
000029A0  E2D4              loop 0x2976
000029A2  DFAB17D5          fild qword [bp+di+0xd517]
000029A6  4B                dec bx
000029A7  9E                sahf
000029A8  A08C25            mov al,[0x258c]
000029AB  9C                pushf
000029AC  2C96              sub al,0x96
000029AE  00E9              add cl,ch
000029B0  8C18              mov [bx+si],ds
000029B2  204E40            and [bp+0x40],cl
000029B5  18E0              sbb al,ah
000029B7  9C                pushf
000029B8  BF440E            mov di,0xe44
000029BB  EF                out dx,ax
000029BC  3A4972            cmp cl,[bx+di+0x72]
000029BF  42                inc dx
000029C0  A33D21            mov [0x213d],ax
000029C3  03EA              add bp,dx
000029C5  7950              jns 0x2a17
000029C7  EB64              jmp short 0x2a2d
000029C9  D312              rcl word [bp+si],cl
000029CB  3227              xor ah,[bx]
000029CD  3C12              cmp al,0x12
000029CF  90                nop
000029D0  53                push bx
000029D1  B412              mov ah,0x12
000029D3  0338              add di,[bx+si]
000029D5  308912A7          xor [bx+di+0xa712],cl
000029D9  1E                push ds
000029DA  8A918690          mov dl,[bx+di+0x9086]
000029DE  015986            add [bx+di-0x7a],bx
000029E1  0CAC              or al,0xac
000029E3  47                inc di
000029E4  CB                retf
000029E5  FFA09355          jmp near [bx+si+0x5593]
000029E9  EAD6F89AF4        jmp 0xf49a:0xf8d6
000029EE  854AE2            test [bp+si-0x1e],cx
000029F1  F8                clc
000029F2  BB2E90            mov bx,0x902e
000029F5  8F                db 0x8F
000029F6  FD                std
000029F7  4E                dec si
000029F8  C9                leave
000029F9  B8D5E8            mov ax,0xe8d5
000029FC  38C5              cmp ch,al
000029FE  DE                db 0xDE
000029FF  DBBAE340          fstp tword [bp+si+0x40e3]
00002A03  E087              loopne 0x298c
00002A05  016F60            add [bx+0x60],bp
00002A08  C0                db 0xC0
00002A09  74E3              jz 0x29ee
00002A0B  D4FE              aam 0xfe
00002A0D  F75009            not word [bx+si+0x9]
00002A10  41                inc cx
00002A11  17                pop ss
00002A12  F042              lock inc dx
00002A14  7FE5              jg 0x29fb
00002A16  19E8              sbb ax,bp
00002A18  6E                outsb
00002A19  85FD              test bp,di
00002A1B  7EE4              jng 0x2a01
00002A1D  78E3              js 0x2a02
00002A1F  D4FA              aam 0xfa
00002A21  775E              ja 0x2a81
00002A23  8E                db 0x8E
00002A24  32C0              xor al,al
00002A26  49                dec cx
00002A27  B0D2              mov al,0xd2
00002A29  872B              xchg bp,[bp+di]
00002A2B  C9                leave
00002A2C  D301              rol word [bx+di],cl
00002A2E  87F7              xchg si,di
00002A30  CB                retf
00002A31  8CDB              mov bx,ds
00002A33  8EC3              mov es,bx
00002A35  8EAF40D8          mov gs,[bx+0xd840]
00002A39  F4                hlt
00002A3A  BF2F5E            mov di,0x5e2f
00002A3D  C1E011            shl ax,0x11
00002A40  9C                pushf
00002A41  6203              bound ax,[bp+di]
00002A43  7C8C              jl 0x29d1
00002A45  B80001            mov ax,0x100
00002A48  89D5              mov bp,dx
00002A4A  D29BF015          rcr byte [bp+di+0x15f0],cl
00002A4E  1E                push ds
00002A4F  0F8344FC          jnc near 0x2697
00002A53  6E                outsb
00002A54  9F                lahf
00002A55  05ECD7            add ax,0xd7ec
00002A58  1F                pop ds
00002A59  D581              aad 0x81
00002A5B  BC5179            mov sp,0x7951
00002A5E  3820              cmp [bx+si],ah
00002A60  0C2A              or al,0x2a
00002A62  0101              add [bx+di],ax
00002A64  8CC2              mov dx,es
00002A66  2C73              sub al,0x73
00002A68  0D1F98            or ax,0x981f
00002A6B  A8E9              test al,0xe9
00002A6D  2297C79C          and dl,[bx+0x9cc7]
00002A71  43                inc bx
00002A72  8CA3E90E          mov [bp+di+0xee9],fs
00002A76  49                dec cx
00002A77  021EF9E0          add bl,[0xe0f9]
00002A7B  41                inc cx
00002A7C  3DA06E            cmp ax,0x6ea0
00002A7F  40                inc ax
00002A80  03F7              add si,di
00002A82  B3FD              mov bl,0xfd
00002A84  C0540AC0          rcl byte [si+0xa],0xc0
00002A88  DB405E            fild dword [bx+si+0x5e]
00002A8B  1203              adc al,[bp+di]
00002A8D  06                push es
00002A8E  8CD8              mov ax,ds
00002A90  8E6A05            mov gs,[bp+si+0x5]
00002A93  7180              jno 0x2a15
00002A95  BB6FA0            mov bx,0xa06f
00002A98  85F8              test ax,di
00002A9A  FB                sti
00002A9B  81C7001B          add di,0x1b00
00002A9F  CE                into
00002AA0  82                db 0x82
00002AA1  0317              add dx,[bx]
00002AA3  E5FC              in ax,0xfc
00002AA5  B91614            mov cx,0x1416
00002AA8  DF87B883          fild word [bx+0x83b8]
00002AAC  EF                out dx,ax
00002AAD  16                push ss
00002AAE  5F                pop di
00002AAF  7D57              jnl 0x2b08
00002AB1  59                pop cx
00002AB2  02BE3316          add bh,[bp+0x1633]
00002AB6  E547              in ax,0x47
00002AB8  040B              add al,0xb
00002ABA  D97006            fnstenv [bx+si+0x6]
00002ABD  5C                pop sp
00002ABE  0B13              or dx,[bp+di]
00002AC0  0A6C3A            or ch,[si+0x3a]
00002AC3  F62D              imul byte [di]
00002AC5  A4                movsb
00002AC6  8E4793            mov es,[bx-0x6d]
00002AC9  3A08              cmp cl,[bx+si]
00002ACB  1B0C              sbb cx,[si]
00002ACD  07                pop es
00002ACE  A32BF8            mov [0xf82b],ax
00002AD1  4E                dec si
00002AD2  8E5B0A            mov ds,[bp+di+0xa]
00002AD5  EC                in al,dx
00002AD6  8B7337            mov si,[bp+di+0x37]
00002AD9  10C1              adc cl,al
00002ADB  6B5E8483          imul bx,[bp-0x7c],byte -0x7d
00002ADF  C7C5B60E          mov bp,0xeb6
00002AE3  41                inc cx
00002AE4  41                inc cx
00002AE5  53                push bx
00002AE6  FD                std
00002AE7  2E07              cs pop es
00002AE9  C2FCC9            ret 0xc9fc
00002AEC  22268E43          and ah,[0x438e]
00002AF0  7F03              jg 0x2af5
00002AF2  31F7              xor di,si
00002AF4  A116C9            mov ax,[0xc916]
00002AF7  49                dec cx
00002AF8  A6                cmpsb
00002AF9  750F              jnz 0x2b0a
00002AFB  A8F9              test al,0xf9
00002AFD  16                push ss
00002AFE  37                aaa
00002AFF  83C1EB            add cx,byte -0x15
00002B02  BEEB04            mov si,0x4eb
00002B05  43                inc bx
00002B06  8814              mov [si],dl
00002B08  41                inc cx
00002B09  E90D8E            jmp 0xb919
00002B0C  C2F3FF            ret 0xfff3
00002B0F  A845              test al,0x45
00002B11  F4                hlt
00002B12  6390A3B8          arpl [bx+si+0xb8a3],dx
00002B16  F8                clc
00002B17  B10D              mov cl,0xd
00002B19  37                aaa
00002B1A  CA2D02            retf 0x22d
00002B1D  FE                db 0xFE
00002B1E  D03B              sar byte [bp+di],1
00002B20  9F                lahf
00002B21  FE                db 0xFE
00002B22  BFB6E3            mov di,0xe3b6
00002B25  E82D08            call 0x3355
00002B28  26A8F0            es test al,0xf0
00002B2B  56                push si
00002B2C  0474              add al,0x74
00002B2E  1224              adc ah,[si]
00002B30  FB                sti
00002B31  1F                pop ds
00002B32  E8B76C            call 0x97ec
00002B35  E50E              in ax,0xe
00002B37  0C04              or al,0x4
00002B39  0AAD39E3          or ch,[di+0xe339]
00002B3D  E8A76A            call 0x95e7
00002B40  A7                cmpsw
00002B41  CD55              int 0x55
00002B43  15626B            adc ax,0x6b62
00002B46  F79177AF          not word [bx+di+0xaf77]
00002B4A  6F                outsw
00002B4B  E48C              in al,0x8c
00002B4D  0403              add al,0x3
00002B4F  A9BC06            test ax,0x6bc
00002B52  11821146          adc [bp+si+0x4611],ax
00002B56  F9                stc
00002B57  E97CEB            jmp 0x16d6
00002B5A  B202              mov dl,0x2
00002B5C  FC                cld
00002B5D  144A              adc al,0x4a
00002B5F  FFE1              jmp cx
00002B61  5D                pop bp
00002B62  2F                das
00002B63  80390B            cmp byte [bx+di],0xb
00002B66  7D28              jnl 0x2b90
00002B68  2DF338            sub ax,0x38f3
00002B6B  3BEA              cmp bp,dx
00002B6D  836D7C36          sub word [di+0x7c],byte +0x36
00002B71  E1B5              loope 0x2b28
00002B73  E624              out 0x24,al
00002B75  FA                cli
00002B76  7AFC              jpe 0x2b74
00002B78  FA                cli
00002B79  5F                pop di
00002B7A  F3FC              rep cld
00002B7C  B92B2A            mov cx,0x2a2b
00002B7F  8917              mov [bx],dx
00002B81  24DA              and al,0xda
00002B83  0B443C            or ax,[si+0x3c]
00002B86  24DC              and al,0xdc
00002B88  EF                out dx,ax
00002B89  3DA70B            cmp ax,0xba7
00002B8C  689749            push word 0x4997
00002B8F  4F                dec di
00002B90  7EA0              jng 0x2b32
00002B92  209D9F49          and [di+0x499f],bl
00002B96  6E                outsb
00002B97  BEF946            mov si,0x46f9
00002B9A  6371A0            arpl [bx+di-0x60],si
00002B9D  49                dec cx
00002B9E  0CEA              or al,0xea
00002BA0  E84082            call 0xade3
00002BA3  2DC1E9            sub ax,0xe9c1
00002BA6  06                push es
00002BA7  9D                popf
00002BA8  82                db 0x82
00002BA9  00BAC7BC          add [bp+si+0xbcc7],bh
00002BAD  EC                in al,dx
00002BAE  93                xchg ax,bx
00002BAF  03CA              add cx,dx
00002BB1  815A8E5CA0        sbb word [bp+si-0x72],0xa05c
00002BB6  F6D7              not bh
00002BB8  B6F5              mov dh,0xf5
00002BBA  81ABACAAF6F2      sub word [bp+di+0xaaac],0xf2f6
00002BC0  0B6445            or sp,[si+0x45]
00002BC3  D87CFF            fdivr dword [si-0x1]
00002BC6  42                inc dx
00002BC7  4E                dec si
00002BC8  F6AA522B          imul byte [bp+si+0x2b52]
00002BCC  4E                dec si
00002BCD  EF                out dx,ax
00002BCE  2F                das
00002BCF  51                push cx
00002BD0  7674              jna 0x2c46
00002BD2  1F                pop ds
00002BD3  F2223EDCF1        repne and bh,[0xf1dc]
00002BD8  0011              add [bx+di],dl
00002BDA  DEF9              fdivp st1,st0
00002BDC  03F8              add di,ax
00002BDE  B604              mov dh,0x4
00002BE0  9C                pushf
00002BE1  C7                db 0xC7
00002BE2  2D7AD5            sub ax,0xd57a
00002BE5  14E8              adc al,0xe8
00002BE7  689B31            push word 0x319b
00002BEA  043A              add al,0x3a
00002BEC  8B9E8AEB          mov bx,[bp+0xeb8a]
00002BF0  1983FA44          sbb [bp+di+0x44fa],ax
00002BF4  B97875            mov cx,0x7578
00002BF7  11D9              adc cx,bx
00002BF9  2EF1              cs int1
00002BFB  EE                out dx,al
00002BFC  77F8              ja 0x2bf6
00002BFE  30FF              xor bh,bh
00002C00  FF34              push word [si]
00002C02  47                inc di
00002C03  EF                out dx,ax
00002C04  5D                pop bp
00002C05  7DEC              jnl 0x2bf3
00002C07  BBFD06            mov bx,0x6fd
00002C0A  1F                pop ds
00002C0B  1CA5              sbb al,0xa5
00002C0D  0A4C0B            or cl,[si+0xb]
00002C10  2F                das
00002C11  CA0985            retf 0x8509
00002C14  96                xchg ax,si
00002C15  FE4637            inc byte [bp+0x37]
00002C18  06                push es
00002C19  F1                int1
00002C1A  EBD4              jmp short 0x2bf0
00002C1C  EC                in al,dx
00002C1D  00EB              add bl,ch
00002C1F  CE                into
00002C20  BB0111            mov bx,0x1101
00002C23  E203              loop 0x2c28
00002C25  BB2100            mov bx,0x21
00002C28  2033              and [bp+di],dh
00002C2A  8896E545          mov [bp+0x45e5],dl
00002C2E  2E8820            mov [cs:bx+si],ah
00002C31  16                push ss
00002C32  2F                das
00002C33  A31AFD            mov [0xfd1a],ax
00002C36  AD                lodsw
00002C37  0333              add si,[bp+di]
00002C39  DF7DC9            fistp qword [di-0x37]
00002C3C  89C3              mov bx,ax
00002C3E  3D00DD            cmp ax,0xdd00
00002C41  37                aaa
00002C42  F0C60530          lock mov byte [di],0x30
00002C46  37                aaa
00002C47  3076F4            xor [bp-0xc],dh
00002C4A  54                push sp
00002C4B  E8AFFF            call 0x2bfd
00002C4E  F5                cmc
00002C4F  FF2E3ABE          jmp far [0xbe3a]
00002C53  40                inc ax
00002C54  CF                iret
00002C55  8421              test [bx+di],ah
00002C57  DF1E1BCD          fistp word [0xcd1b]
00002C5B  1BA110C8          sbb sp,[bx+di+0xc810]
00002C5F  E7C6              out 0xc6,ax
00002C61  06                push es
00002C62  CD36              int 0x36
00002C64  02D6              add dl,dh
00002C66  0E                push cs
00002C67  06                push es
00002C68  4A                dec dx
00002C69  A6                cmpsb
00002C6A  01FF              add di,di
00002C6C  51                push cx
00002C6D  0D36FF            or ax,0xff36
00002C70  1F                pop ds
00002C71  CF                iret
00002C72  60                pusha
00002C73  55                push bp
00002C74  6AAE              push byte -0x52
00002C76  F2FB              repne sti
00002C78  1F                pop ds
00002C79  F5                cmc
00002C7A  2602066F0D        add al,[es:0xd6f]
00002C7F  6C                insb
00002C80  E92A18            jmp 0x44ad
00002C83  EADCAABFF3        jmp 0xf3bf:0xaadc
00002C88  A4                movsb
00002C89  F4                hlt
00002C8A  0A7009            or dh,[bx+si+0x9]
00002C8D  C03DCD            sar byte [di],0xcd
00002C90  21E9              and cx,bp
00002C92  9F                lahf
00002C93  F2EB00            repne jmp short 0x2c96
00002C96  52                push dx
00002C97  00A3A201          add [bp+di+0x1a2],ah
00002C9B  1E                push ds
00002C9C  8BD8              mov bx,ax
00002C9E  B95500            mov cx,0x55
00002CA1  51                push cx
00002CA2  66853F            test [bx],edi
00002CA5  1CB4              sbb al,0xb4
00002CA7  3F                aas
00002CA8  21D1              and cx,dx
00002CAA  D586              aad 0x86
00002CAC  F206              repne push es
00002CAE  BFC7D7            mov di,0xd7c7
00002CB1  0474              add al,0x74
00002CB3  BE19C0            mov si,0xc019
00002CB6  BFE808            mov di,0x8e8
00002CB9  8E00              mov es,[bx+si]
00002CBB  B913C5            mov cx,0xc513
00002CBE  A4                movsb
00002CBF  AD                lodsw
00002CC0  42                inc dx
00002CC1  A30400            mov [0x4],ax
00002CC4  96                xchg ax,si
00002CC5  01C3              add bx,ax
00002CC7  004327            add [bp+di+0x27],al
00002CCA  DF27              fbld tword [bx]
00002CCC  FA                cli
00002CCD  27                daa
00002CCE  2428              and al,0x28
00002CD0  44                inc sp
00002CD1  281A              sub [bp+si],bl
00002CD3  31CE              xor si,cx
00002CD5  314432            xor [si+0x32],ax
00002CD8  F2325F33          repne xor bl,[bx+0x33]
00002CDC  3E35E43D          ds xor ax,0x3de4
00002CE0  5B                pop bx
00002CE1  3E06              ds push es
00002CE3  016206            add [bp+si+0x6],sp
00002CE6  860A              xchg cl,[bp+si]
00002CE8  260DAE0D          es or ax,0xdae
00002CEC  CE                into
00002CED  0E                push cs
00002CEE  91                xchg ax,cx
00002CEF  0F                db 0x0F
00002CF0  3F                aas
00002CF1  10DC              adc ah,bl
00002CF3  10811900          adc [bx+di+0x19],al
00002CF7  1B1F              sbb bx,[bx]
00002CF9  1B32              sbb si,[bp+si]
00002CFB  1C00              sbb al,0x0
00002CFD  0000              add [bx+si],al
00002CFF  00504D            add [bx+si+0x4d],dl
00002D02  57                push di
00002D03  3101              xor [bx+di],ax
00002D05  2101              and [bx+di],ax
00002D07  0001              add [bx+di],al
00002D09  0000              add [bx+si],al
00002D0B  0000              add [bx+si],al
00002D0D  0000              add [bx+si],al
00002D0F  0002              add [bp+si],al
00002D11  0000              add [bx+si],al
00002D13  0000              add [bx+si],al
00002D15  1000              adc [bx+si],al
00002D17  0028              add [bx+si],ch
00002D19  0000              add [bx+si],al
00002D1B  0002              add [bp+si],al
00002D1D  0000              add [bx+si],al
00002D1F  005800            add [bx+si+0x0],bl
00002D22  0000              add [bx+si],al
00002D24  6E                outsb
00002D25  0100              add [bx+si],ax
00002D27  00A80600          add [bx+si+0x6],ch
00002D2B  007202            add [bp+si+0x2],dh
00002D2E  0000              add [bx+si],al
00002D30  45                inc bp
00002D31  2000              and [bx+si],al
00002D33  0000              add [bx+si],al
00002D35  0000              add [bx+si],al
00002D37  0001              add [bx+di],al
00002D39  0000              add [bx+si],al
00002D3B  005303            add [bp+di+0x3],dl
00002D3E  0000              add [bx+si],al
00002D40  0010              add [bx+si],dl
00002D42  0000              add [bx+si],al
00002D44  0000              add [bx+si],al
00002D46  0000              add [bx+si],al
00002D48  43                inc bx
00002D49  2000              and [bx+si],al
00002D4B  00160100          add [0x1],dl
00002D4F  0000              add [bx+si],al
00002D51  0000              add [bx+si],al
00002D53  0000              add [bx+si],al
00002D55  0000              add [bx+si],al
00002D57  0012              add [bp+si],dl
00002D59  0130              add [bx+si],si
00002D5B  0207              add al,[bx]
00002D5D  6559              gs pop cx
00002D5F  8620              xchg ah,[bx+si]
00002D61  1400              adc al,0x0
00002D63  0101              add [bx+di],ax
00002D65  91                xchg ax,cx
00002D66  0305              add ax,[di]
00002D68  07                pop es
00002D69  1B09              sbb cx,[bx+di]
00002D6B  8F                db 0x8F
00002D6C  092F              or [bx],bp
00002D6E  09950996          or [di+0x9609],dx
00002D72  6559              gs pop cx
00002D74  96                xchg ax,si
00002D75  3609930945        or [ss:bp+di+0x4509],dx
00002D7A  099F0949          or [bx+0x4909],bx
00002D7E  095996            or [bx+di-0x6a],bx
00002D81  654D              gs dec bp
00002D83  A30409            mov [0x904],ax
00002D86  5F                pop di
00002D87  0997136E          or [bx+0x6e13],dx
00002D8B  09830960          or [bp+di+0x6009],ax
00002D8F  4D                dec bp
00002D90  96                xchg ax,si
00002D91  657409            gs jz 0x2d9d
00002D94  7F09              jg 0x2d9f
00002D96  7E09              jng 0x2da1
00002D98  2C02              sub al,0x2
00002D9A  098C4596          or [si+0x9645],cx
00002D9E  6559              gs pop cx
00002DA0  26A009D3          mov al,[es:0xd309]
00002DA4  3BB40999          cmp si,[si+0x9909]
00002DA8  13C0              adc ax,ax
00002DAA  095996            or [bx+di-0x6a],bx
00002DAD  6559              gs pop cx
00002DAF  53                push bx
00002DB0  09D3              or bx,dx
00002DB2  095709            or [bx+0x9],dx
00002DB5  DE09              fimul word [bx+di]
00002DB7  55                push bp
00002DB8  0930              or [bx+si],si
00002DBA  022660E9          add ah,[0xe960]
00002DBE  27                daa
00002DBF  F6                db 0xF6
00002DC0  0901              or [bx+di],ax
00002DC2  0131              add [bx+di],si
00002DC4  CB                retf
00002DC5  B22C              mov dl,0x2c
00002DC7  0B11              or dx,[bx+di]
00002DC9  096309            or [bp+di+0x9],sp
00002DCC  17                pop ss
00002DCD  097B09            or [bp+di+0x9],di
00002DD0  1D092C            sbb ax,0x2c09
00002DD3  13B02C67          adc si,[bx+si+0x672c]
00002DD7  0925              or [di],sp
00002DD9  0935              or [di],si
00002DDB  098B0930          or [bp+di+0x3009],cx
00002DDF  018BB33C          add [bp+di+0x3cb3],cx
00002DE3  094542            or [di+0x42],ax
00002DE6  3B483B            cmp cx,[bx+si+0x3b]
00002DE9  1330              adc si,[bx+si]
00002DEB  0113              add [bp+di],dx
00002DED  4E                dec si
00002DEE  27                daa
00002DEF  5D                pop bp
00002DF0  27                daa
00002DF1  641301            adc ax,[fs:bx+di]
00002DF4  1330              adc si,[bx+si]
00002DF6  016C31            add [si+0x31],bp
00002DF9  7231              jc 0x2e2c
00002DFB  B22C              mov dl,0x2c
00002DFD  1330              adc si,[bx+si]
00002DFF  871D              xchg bx,[di]
00002E01  8D09              lea cx,[bx+di]
00002E03  6F                outsw
00002E04  09940989          or [si+0x8909],dx
00002E08  13B02CCB          adc si,[bx+si+0xcb2c]
00002E0C  099A0985          or [bp+si+0x8509],bx
00002E10  09A109A6          or [bx+di+0xa609],sp
00002E14  31E5              xor bp,sp
00002E16  E432              in al,0x32
00002E18  01AC096B          add [si+0x6b09],bp
00002E1C  0309              add cx,[bx+di]
00002E1E  F22BB22CCB        repne sub si,[bp+si+0xcb2c]
00002E23  CAC709            retf 0x9c7
00002E26  0913              or [bp+di],dx
00002E28  CE                into
00002E29  0920              or [bx+si],sp
00002E2B  09D5              or bp,dx
00002E2D  59                pop cx
00002E2E  F22CCB            repne sub al,0xcb
00002E31  0939              or [bx+di],di
00002E33  09F5              or bp,si
00002E35  0985FE09          or [di+0x9fe],ax
00002E39  E459              in al,0x59
00002E3B  B865A3            mov ax,0xa365
00002E3E  0918              or [bx+si],bx
00002E40  36134109          adc ax,[ss:bx+di+0x9]
00002E44  7B92              jpo 0x2dd8
00002E46  67C9              a32 leave
00002E48  B349              mov bl,0x49
00002E4A  09CB              or bx,cx
00002E4C  4F                dec di
00002E4D  097B55            or [bp+di+0x55],di
00002E50  59                pop cx
00002E51  9C                pushf
00002E52  25CF09            and ax,0x9cf
00002E55  AD                lodsw
00002E56  5B                pop bx
00002E57  09C7              or di,ax
00002E59  61                popa
00002E5A  093C              or [si],di
00002E5C  13B0E48F          adc si,[bx+si+0x8fe4]
00002E60  7345              jnc 0x2ea7
00002E62  7909              jns 0x2e6d
00002E64  DF18              fistp word [bx+si]
00002E66  60                pusha
00002E67  02969813          add dl,[bp+0x1398]
00002E6B  CF                iret
00002E6C  1300              adc ax,[bx+si]
00002E6E  FC                cld
00002E6F  43                inc bx
00002E70  42                inc dx
00002E71  06                push es
00002E72  00B80109          add [bx+si+0x901],bh
00002E76  0000              add [bx+si],al
00002E78  CD31              int 0x31
00002E7A  668CC3            mov ebx,es
00002E7D  66B80608890D      mov eax,0xd890806
00002E83  91                xchg ax,cx
00002E84  0312              add dx,[bp+si]
00002E86  07                pop es
00002E87  158F06            adc ax,0x68f
00002E8A  8505              test [di],ax
00002E8C  98                cbw
00002E8D  2026678B          and [0x8b67],ah
00002E91  1E                push ds
00002E92  2C07              sub al,0x7
00002E94  1A951A93          sbb dl,[di+0x931a]
00002E98  06                push es
00002E99  80A601908C        and byte [bp+0x9001],0x8c
00002E9E  D88EC08E          fmul dword [bp+0x8ec0]
00002EA2  E08E              loopne 0x2e32
00002EA4  E8C705            call 0x346e
00002EA7  9F                lahf
00002EA8  0E                push cs
00002EA9  A30412            mov [0x1204],ax
00002EAC  B80001            mov ax,0x100
00002EAF  66BB0002BAA1      mov ebx,0xa1ba0200
00002EB5  A6                cmpsb
00002EB6  812B0F82          sub word [bp+di],0x820f
00002EBA  7001              jo 0x2ebd
00002EBC  0FA39719B3        bt [bx+0xb319],dx
00002EC1  39B80413          cmp [bx+si+0x1304],di
00002EC5  3E831606D2D8      adc word [ds:0xd206],byte -0x28
00002ECB  0E                push cs
00002ECC  3E7F05            ds jg 0x2ed4
00002ECF  33C9              xor cx,cx
00002ED1  40                inc ax
00002ED2  C9                leave
00002ED3  BA2C02            mov dx,0x22c
00002ED6  1E                push ds
00002ED7  051E34            add ax,0x341e
00002EDA  0080998B          add [bx+si+0x8b99],al
00002EDE  3D5518            cmp ax,0x1855
00002EE1  49                dec cx
00002EE2  32C0              xor al,al
00002EE4  F2AE              repne scasb
00002EE6  3807              cmp [bx],al
00002EE8  75FA              jnz 0x2ee4
00002EEA  83C703            add di,byte +0x3
00002EED  893D              mov [di],di
00002EEF  D3568B            rcl word [bp-0x75],cl
00002EF2  D7                xlatb
00002EF3  48                dec ax
00002EF4  B418              mov ah,0x18
00002EF6  D1583D            rcr word [bx+si+0x3d],1
00002EF9  CD21              int 0x21
00002EFB  55                push bp
00002EFC  0D5499            or ax,0x9954
00002EFF  27                daa
00002F00  8BD8              mov bx,ax
00002F02  B99301            mov cx,0x193
00002F05  BAD0D0            mov dx,0xd0d0
00002F08  326653            xor ah,[bp+0x53]
00002F0B  891E3F1D          mov [0x1d3f],bx
00002F0F  F610              not byte [bx+si]
00002F11  0F                db 0x0F
00002F12  B715              mov bh,0x15
00002F14  57                push di
00002F15  124AC1            adc cl,[bp+si-0x3f]
00002F18  E209              loop 0x2f23
00002F1A  53                push bx
00002F1B  679A860B1D550A03  a32 call 0x30a:0x551d0b86
00002F23  D36B8B            shr word [bp+di-0x75],cl
00002F26  1D3428            sbb ax,0x2834
00002F29  42                inc dx
00002F2A  290C              sub [si],cx
00002F2C  C56224            lds sp,[bp+si+0x24]
00002F2F  00B9D701          add [bx+di+0x1d7],bh
00002F33  90                nop
00002F34  40                inc ax
00002F35  B43E              mov ah,0x3e
00002F37  B70F              mov bh,0xf
00002F39  268D26A38B        lea sp,[es:0x8ba3]
00002F3E  156332            adc ax,0x3263
00002F41  157B05            adc ax,0x57b
00002F44  3B15              cmp dx,[di]
00002F46  67057706          a32 add ax,0x677
00002F4A  1407              adc al,0x7
00002F4C  09679A            or [bx-0x66],sp
00002F4F  4C                dec sp
00002F50  E8B35D            call 0x8d06
00002F53  82                db 0x82
00002F54  A005A3            mov al,[0xa305]
00002F57  8B4B45            mov cx,[bp+di+0x45]
00002F5A  8B0D              mov cx,[di]
00002F5C  300C              xor [si],cl
00002F5E  3933              cmp [bp+di],si
00002F60  8B0D              mov cx,[di]
00002F62  3029              xor [bx+di],ch
00002F64  184C72            sbb [si+0x72],cl
00002F67  6E                outsb
00002F68  B43E              mov ah,0x3e
00002F6A  206686            and [bp-0x7a],ah
00002F6D  1901              sbb [bx+di],ax
00002F6F  0DA115            or ax,0x15a1
00002F72  B003              mov al,0x3
00002F74  1D2930            sbb ax,0x3029
00002F77  29C7              sub di,ax
00002F79  4C                dec sp
00002F7A  0040C1            add [bx+si-0x3f],al
00002F7D  E902E3            jmp 0x1282
00002F80  0A8B548B          or cl,[bp+di+0x8b54]
00002F84  FC                cld
00002F85  014410            add [si+0x10],ax
00002F88  FC                cld
00002F89  E2F6              loop 0x2f81
00002F8B  2A22              sub ah,[bp+si]
00002F8D  216F56            and [bx+0x56],bp
00002F90  6734E5            a32 xor al,0xe5
00002F93  241D              and al,0x1d
00002F95  8925              mov [di],sp
00002F97  1D8505            sbb ax,0x585
00002F9A  0FB225            lss sp,[di]
00002F9D  06                push es
00002F9E  41                inc cx
00002F9F  0080CA11          add [bx+si+0x11ca],al
00002FA3  0305              add ax,[di]
00002FA5  6B1FDB            imul bx,[bx],byte -0x25
00002FA8  CE                into
00002FA9  33D2              xor dx,dx
00002FAB  33F6              xor si,si
00002FAD  33FF              xor di,di
00002FAF  33ED              xor bp,bp
00002FB1  FB                sti
00002FB2  FFE0              jmp ax
00002FB4  BAF219            mov dx,0x19f2
00002FB7  191A              sbb [bp+si],bx
00002FB9  E641              out 0x41,al
00002FBB  EB13              jmp short 0x2fd0
00002FBD  BA091A            mov dx,0x1a09
00002FC0  EB0C              jmp short 0x2fce
00002FC2  BA2006            mov dx,0x620
00002FC5  05BA39            add ax,0x39ba
00002FC8  86890000          xchg cl,[bx+di+0x0]
00002FCC  42                inc dx
00002FCD  097AB4            or [bp+si-0x4c],di
00002FD0  4C                dec sp
00002FD1  0453              add al,0x53
00002FD3  51                push cx
00002FD4  52                push dx
00002FD5  56                push si
00002FD6  57                push di
00002FD7  83FA00            cmp dx,byte +0x0
00002FDA  7419              jz 0x2ff5
00002FDC  8BDA              mov bx,dx
00002FDE  C1EB10            shr bx,0x10
00002FE1  96                xchg ax,si
00002FE2  CAA7AF            retf 0xafa7
00002FE5  92                xchg ax,dx
00002FE6  82                db 0x82
00002FE7  06                push es
00002FE8  CA83EA            retf 0xea83
00002FEB  0481              add al,0x81
00002FED  FA                cli
00002FEE  A30873            mov [0x7308],ax
00002FF1  03F9              add di,cx
00002FF3  EB1F              jmp short 0x3014
00002FF5  1901              sbb [bx+di],ax
00002FF7  0582CC            add ax,0xcc82
00002FFA  29949272          sub [si+0x7292],dx
00002FFE  17                pop ss
00002FFF  A33A03            mov [0x33a],ax
00003002  7202              jc 0x3006
00003004  A3222C            mov [0x2c22],ax
00003007  44                inc sp
00003008  A0021A            mov al,[0x1a02]
0000300B  C3                ret
0000300C  C1E031            shl ax,0x31
0000300F  C1F85F            sar ax,0x5f
00003012  5E                pop si
00003013  5A                pop dx
00003014  59                pop cx
00003015  5B                pop bx
00003016  203D              and [di],bh
00003018  02EE              add ch,dh
0000301A  7413              jz 0x302f
0000301C  06                push es
0000301D  40                inc ax
0000301E  06                push es
0000301F  E9480E            jmp 0x3e6a
00003022  44                inc sp
00003023  33064206          xor ax,[0x642]
00003027  772E              ja 0x3057
00003029  FF2D              jmp far [di]
0000302B  CC                int3
0000302C  DB                db 0xDB
0000302D  8B35              mov si,[di]
0000302F  2D465E            sub ax,0x5e46
00003032  4E                dec si
00003033  E4C2              in al,0xc2
00003035  66A1F549          mov eax,[0x49f5]
00003039  EF                out dx,ax
0000303A  0E                push cs
0000303B  C78072C08064      mov word [bx+si+0xc072],0x6480
00003041  2408              and al,0x8
00003043  FECF              dec bh
00003045  50                push ax
00003046  8A7D7A            mov bh,[di+0x7a]
00003049  234022            and ax,[bx+si+0x22]
0000304C  E91773            jmp 0xa366
0000304F  2A5D70            sub bl,[di+0x70]
00003052  8B7004            mov si,[bx+si+0x4]
00003055  C7                db 0xC7
00003056  660BC6            or eax,esi
00003059  7408              jz 0x3063
0000305B  8702              xchg ax,[bp+si]
0000305D  860E8B45          xchg cl,[0x458b]
00003061  27                daa
00003062  13835204          adc ax,[bp+di+0x452]
00003066  7658              jna 0x30c0
00003068  3D0B09            cmp ax,0x90b
0000306B  41                inc cx
0000306C  42                inc dx
0000306D  004C0C            add [si+0xc],cl
00003070  01CF              add di,cx
00003072  49                dec cx
00003073  48                dec ax
00003074  E823FF            call 0x2f9a
00003077  01720B            add [bp+si+0xb],si
0000307A  17                pop ss
0000307B  16                push ss
0000307C  0DA043            or ax,0x43a0
0000307F  18922106          sbb [bp+si+0x621],dl
00003083  1E                push ds
00003084  07                pop es
00003085  BF8544            mov di,0x4485
00003088  7158              jno 0x30e2
0000308A  0A0D              or cl,[di]
0000308C  8B17              mov dx,[bx]
0000308E  E80121            call 0x5192
00003091  7304              jnc 0x3097
00003093  33C0              xor ax,ax
00003095  2F                das
00003096  07                pop es
00003097  263C80            es cmp al,0x80
0000309A  0100              add [bx+si],ax
0000309C  004558            add [di+0x58],al
0000309F  45                inc bp
000030A0  206669            and [bp+0x69],ah
000030A3  6C                insb
000030A4  65206F70          and [gs:bx+0x70],ch
000030A8  656E              gs outsb
000030AA  206572            and [di+0x72],ah
000030AD  726F              jc 0x311e
000030AF  7221              jc 0x30d2
000030B1  0D0A24            or ax,0x240a
000030B4  16                push ss
000030B5  00880183          add [bx+si+0x8301],cl
000030B9  7265              jc 0x3120
000030BB  61                popa
000030BC  6416              fs push ss
000030BE  4E                dec si
000030BF  6F                outsw
000030C0  740D              jz 0x30cf
000030C2  6E                outsb
000030C3  6F                outsw
000030C4  7567              jnz 0x312d
000030C6  682044            push word 0x4420
000030C9  4F                dec di
000030CA  53                push bx
000030CB  1218              adc bl,[bx+si]
000030CD  C10820            ror word [bx+si],0x20
000030D0  6D                insw
000030D1  656D              gs insw
000030D3  187918            sbb [bx+di+0x18],bh
000030D6  01504D            add [bx+si+0x4d],dx
000030D9  49                dec cx
000030DA  1900              sbb [bx+si],ax
000030DC  0000              add [bx+si],al
000030DE  0000              add [bx+si],al
000030E0  41                inc cx
000030E1  6461              fs popa
000030E3  6D                insw
000030E4  0003              add [bp+di],al
000030E6  2001              and [bx+di],al
000030E8  3D1100            cmp ax,0x11
000030EB  002C              add [si],ch
000030ED  0000              add [bx+si],al
000030EF  0011              add [bx+di],dl
000030F1  1100              adc [bx+si],ax
000030F3  0019              add [bx+di],bl
000030F5  1301              adc ax,[bx+di]
000030F7  00E8              add al,ch
000030F9  1000              adc [bx+si],al
000030FB  000D              add [di],cl
000030FD  1101              adc [bx+di],ax
000030FF  0000              add [bx+si],al
00003101  0000              add [bx+si],al
00003103  0000              add [bx+si],al
00003105  0000              add [bx+si],al
00003107  005002            add [bx+si+0x2],dl
0000310A  0000              add [bx+si],al
0000310C  CD04              int 0x4
0000310E  0000              add [bx+si],al
00003110  55                push bp
00003111  8D6C24            lea bp,[si+0x24]
00003114  FC                cld
00003115  55                push bp
00003116  8BEC              mov bp,sp
00003118  57                push di
00003119  56                push si
0000311A  5E                pop si
0000311B  5F                pop di
0000311C  C9                leave
0000311D  5D                pop bp
0000311E  C3                ret
0000311F  00558D            add [di-0x73],dl
00003122  6C                insb
00003123  24FC              and al,0xfc
00003125  55                push bp
00003126  8BEC              mov bp,sp
00003128  57                push di
00003129  56                push si
0000312A  5E                pop si
0000312B  5F                pop di
0000312C  C9                leave
0000312D  5D                pop bp
0000312E  C3                ret
0000312F  00558D            add [di-0x73],dl
00003132  6C                insb
00003133  24FC              and al,0xfc
00003135  55                push bp
00003136  8BEC              mov bp,sp
00003138  57                push di
00003139  56                push si
0000313A  5E                pop si
0000313B  5F                pop di
0000313C  C9                leave
0000313D  5D                pop bp
0000313E  C3                ret
0000313F  00558D            add [di-0x73],dl
00003142  6C                insb
00003143  24FC              and al,0xfc
00003145  55                push bp
00003146  8BEC              mov bp,sp
00003148  57                push di
00003149  56                push si
0000314A  5E                pop si
0000314B  5F                pop di
0000314C  C9                leave
0000314D  5D                pop bp
0000314E  C3                ret
0000314F  00558D            add [di-0x73],dl
00003152  6C                insb
00003153  24FC              and al,0xfc
00003155  55                push bp
00003156  8BEC              mov bp,sp
00003158  57                push di
00003159  56                push si
0000315A  5E                pop si
0000315B  5F                pop di
0000315C  C9                leave
0000315D  5D                pop bp
0000315E  C3                ret
0000315F  00558D            add [di-0x73],dl
00003162  6C                insb
00003163  24FC              and al,0xfc
00003165  C8140000          enter 0x14,0x0
00003169  57                push di
0000316A  56                push si
0000316B  53                push bx
0000316C  51                push cx
0000316D  52                push dx
0000316E  DD05              fld qword [di]
00003170  3C10              cmp al,0x10
00003172  0000              add [bx+si],al
00003174  DD1D              fstp qword [di]
00003176  0912              or [bp+si],dx
00003178  0100              add [bx+si],ax
0000317A  9B                wait
0000317B  C7051112          mov word [di],0x1211
0000317F  0100              add [bx+si],ax
00003181  3F                aas
00003182  1F                pop ds
00003183  0000              add [bx+si],al
00003185  DD05              fld qword [di]
00003187  44                inc sp
00003188  1000              adc [bx+si],al
0000318A  00DD              add ch,bl
0000318C  1D1512            sbb ax,0x1215
0000318F  0100              add [bx+si],ax
00003191  9B                wait
00003192  DD05              fld qword [di]
00003194  4C                dec sp
00003195  1000              adc [bx+si],al
00003197  00DD              add ch,bl
00003199  1D1D12            sbb ax,0x121d
0000319C  0100              add [bx+si],ax
0000319E  9B                wait
0000319F  C6053A            mov byte [di],0x3a
000031A2  1000              adc [bx+si],al
000031A4  0001              add [bx+di],al
000031A6  8C1D              mov [di],ds
000031A8  B90800            mov cx,0x8
000031AB  006A10            add [bp+si+0x10],ch
000031AE  680008            push word 0x800
000031B1  0000              add [bx+si],al
000031B3  E8740A            call 0x3c2a
000031B6  0000              add [bx+si],al
000031B8  E8270A            call 0x3be2
000031BB  0000              add [bx+si],al
000031BD  C645F816          mov byte [di-0x8],0x16
000031C1  C605ED            mov byte [di],0xed
000031C4  1101              adc [bx+di],ax
000031C6  00FF              add bh,bh
000031C8  FE05              inc byte [di]
000031CA  ED                in ax,dx
000031CB  1101              adc [bx+di],ax
000031CD  000F              add [bx],cl
000031CF  B605              mov dh,0x5
000031D1  ED                in ax,dx
000031D2  1101              adc [bx+di],ax
000031D4  008A1C05          add [bp+si+0x51c],cl
000031D8  D002              rol byte [bp+si],1
000031DA  0000              add [bx+si],al
000031DC  53                push bx
000031DD  0FB6C8            movzx cx,al
000031E0  69D90600          imul bx,cx,0x6
000031E4  0000              add [bx+si],al
000031E6  8D1C              lea bx,[si]
000031E8  1D1111            sbb ax,0x1111
000031EB  0100              add [bx+si],ax
000031ED  53                push bx
000031EE  E8BD09            call 0x3bae
000031F1  0000              add [bx+si],al
000031F3  FE4DF8            dec byte [di-0x8]
000031F6  75D0              jnz 0x31c8
000031F8  C645F40D          mov byte [di-0xc],0xd
000031FC  C605EE            mov byte [di],0xee
000031FF  1101              adc [bx+di],ax
00003201  00FF              add bh,bh
00003203  FE05              inc byte [di]
00003205  EE                out dx,al
00003206  1101              adc [bx+di],ax
00003208  000F              add [bx],cl
0000320A  B605              mov dh,0x5
0000320C  EE                out dx,al
0000320D  1101              adc [bx+di],ax
0000320F  008A1C05          add [bp+si+0x51c],cl
00003213  E602              out 0x2,al
00003215  0000              add [bx+si],al
00003217  53                push bx
00003218  0FB6C8            movzx cx,al
0000321B  69D90600          imul bx,cx,0x6
0000321F  0000              add [bx+si],al
00003221  8D1C              lea bx,[si]
00003223  1D9511            sbb ax,0x1195
00003226  0100              add [bx+si],ax
00003228  53                push bx
00003229  E84E09            call 0x3b7a
0000322C  0000              add [bx+si],al
0000322E  FE4DF4            dec byte [di-0xc]
00003231  75D0              jnz 0x3203
00003233  6A00              push byte +0x0
00003235  68500A            push word 0xa50
00003238  0000              add [bx+si],al
0000323A  E88D07            call 0x39ca
0000323D  0000              add [bx+si],al
0000323F  6A00              push byte +0x0
00003241  68100A            push word 0xa10
00003244  0000              add [bx+si],al
00003246  E82902            call 0x3472
00003249  0000              add [bx+si],al
0000324B  6A02              push byte +0x2
0000324D  68F009            push word 0x9f0
00003250  0000              add [bx+si],al
00003252  E87507            call 0x39ca
00003255  0000              add [bx+si],al
00003257  6A02              push byte +0x2
00003259  68D009            push word 0x9d0
0000325C  0000              add [bx+si],al
0000325E  E81102            call 0x3472
00003261  0000              add [bx+si],al
00003263  6A04              push byte +0x4
00003265  68F009            push word 0x9f0
00003268  0000              add [bx+si],al
0000326A  E85D07            call 0x39ca
0000326D  0000              add [bx+si],al
0000326F  6A04              push byte +0x4
00003271  68D009            push word 0x9d0
00003274  0000              add [bx+si],al
00003276  E8F901            call 0x3472
00003279  0000              add [bx+si],al
0000327B  6A05              push byte +0x5
0000327D  68B009            push word 0x9b0
00003280  0000              add [bx+si],al
00003282  E84507            call 0x39ca
00003285  0000              add [bx+si],al
00003287  6A05              push byte +0x5
00003289  689009            push word 0x990
0000328C  0000              add [bx+si],al
0000328E  E8E101            call 0x3472
00003291  0000              add [bx+si],al
00003293  6A06              push byte +0x6
00003295  687009            push word 0x970
00003298  0000              add [bx+si],al
0000329A  E82D07            call 0x39ca
0000329D  0000              add [bx+si],al
0000329F  6A06              push byte +0x6
000032A1  685009            push word 0x950
000032A4  0000              add [bx+si],al
000032A6  E8C901            call 0x3472
000032A9  0000              add [bx+si],al
000032AB  6A07              push byte +0x7
000032AD  681C09            push word 0x91c
000032B0  0000              add [bx+si],al
000032B2  E81507            call 0x39ca
000032B5  0000              add [bx+si],al
000032B7  6A08              push byte +0x8
000032B9  68DC08            push word 0x8dc
000032BC  0000              add [bx+si],al
000032BE  E8B101            call 0x3472
000032C1  0000              add [bx+si],al
000032C3  6A09              push byte +0x9
000032C5  68DC08            push word 0x8dc
000032C8  0000              add [bx+si],al
000032CA  E8A501            call 0x3472
000032CD  0000              add [bx+si],al
000032CF  6A0A              push byte +0xa
000032D1  68DC08            push word 0x8dc
000032D4  0000              add [bx+si],al
000032D6  E89901            call 0x3472
000032D9  0000              add [bx+si],al
000032DB  6A0B              push byte +0xb
000032DD  68DC08            push word 0x8dc
000032E0  0000              add [bx+si],al
000032E2  E88D01            call 0x3472
000032E5  0000              add [bx+si],al
000032E7  6A0C              push byte +0xc
000032E9  68DC08            push word 0x8dc
000032EC  0000              add [bx+si],al
000032EE  E88101            call 0x3472
000032F1  0000              add [bx+si],al
000032F3  6A0D              push byte +0xd
000032F5  68DC08            push word 0x8dc
000032F8  0000              add [bx+si],al
000032FA  E87501            call 0x3472
000032FD  0000              add [bx+si],al
000032FF  6A0E              push byte +0xe
00003301  68DC08            push word 0x8dc
00003304  0000              add [bx+si],al
00003306  E86901            call 0x3472
00003309  0000              add [bx+si],al
0000330B  6A75              push byte +0x75
0000330D  68A403            push word 0x3a4
00003310  0000              add [bx+si],al
00003312  E8B506            call 0x39ca
00003315  0000              add [bx+si],al
00003317  6A75              push byte +0x75
00003319  688403            push word 0x384
0000331C  0000              add [bx+si],al
0000331E  E85101            call 0x3472
00003321  0000              add [bx+si],al
00003323  E8F800            call 0x341e
00003326  0000              add [bx+si],al
00003328  C745EC4402        mov word [di-0x14],0x244
0000332D  0000              add [bx+si],al
0000332F  33C0              xor ax,ax
00003331  8945F0            mov [di-0x10],ax
00003334  8D75EC            lea si,[di-0x14]
00003337  BF3A02            mov di,0x23a
0000333A  0000              add [bx+si],al
0000333C  A5                movsw
0000333D  A5                movsw
0000333E  5A                pop dx
0000333F  59                pop cx
00003340  5B                pop bx
00003341  5E                pop si
00003342  5F                pop di
00003343  C9                leave
00003344  5D                pop bp
00003345  C3                ret
00003346  0000              add [bx+si],al
00003348  0000              add [bx+si],al
0000334A  0000              add [bx+si],al
0000334C  0000              add [bx+si],al
0000334E  0000              add [bx+si],al
00003350  C8180000          enter 0x18,0x0
00003354  C645EC16          mov byte [di-0x14],0x16
00003358  C645F4FF          mov byte [di-0xc],0xff
0000335C  FE45F4            inc byte [di-0xc]
0000335F  0FB645F4          movzx ax,[di-0xc]
00003363  8A04              mov al,[si]
00003365  05D002            add ax,0x2d0
00003368  0000              add [bx+si],al
0000336A  50                push ax
0000336B  0FB645F4          movzx ax,[di-0xc]
0000336F  69C00600          imul ax,ax,0x6
00003373  0000              add [bx+si],al
00003375  8D04              lea ax,[si]
00003377  051111            add ax,0x1111
0000337A  0100              add [bx+si],ax
0000337C  50                push ax
0000337D  E87E00            call 0x33fe
00003380  0000              add [bx+si],al
00003382  FE4DEC            dec byte [di-0x14]
00003385  75D5              jnz 0x335c
00003387  C645E80D          mov byte [di-0x18],0xd
0000338B  C645F0FF          mov byte [di-0x10],0xff
0000338F  FE45F0            inc byte [di-0x10]
00003392  0FB645F0          movzx ax,[di-0x10]
00003396  8A04              mov al,[si]
00003398  05E602            add ax,0x2e6
0000339B  0000              add [bx+si],al
0000339D  50                push ax
0000339E  0FB645F0          movzx ax,[di-0x10]
000033A2  69C00600          imul ax,ax,0x6
000033A6  0000              add [bx+si],al
000033A8  8D04              lea ax,[si]
000033AA  059511            add ax,0x1195
000033AD  0100              add [bx+si],ax
000033AF  50                push ax
000033B0  E80700            call 0x33ba
000033B3  0000              add [bx+si],al
000033B5  FE4DE8            dec byte [di-0x18]
000033B8  75D5              jnz 0x338f
000033BA  C9                leave
000033BB  C3                ret
000033BC  55                push bp
000033BD  8BEC              mov bp,sp
000033BF  53                push bx
000033C0  51                push cx
000033C1  52                push dx
000033C2  8A5D0C            mov bl,[di+0xc]
000033C5  8B4508            mov ax,[di+0x8]
000033C8  8B10              mov dx,[bx+si]
000033CA  668B4804          mov ecx,[bx+si+0x4]
000033CE  B80302            mov ax,0x203
000033D1  0000              add [bx+si],al
000033D3  CD31              int 0x31
000033D5  5A                pop dx
000033D6  59                pop cx
000033D7  5B                pop bx
000033D8  C9                leave
000033D9  C20800            ret 0x8
000033DC  0002              add [bp+si],al
000033DE  0405              add al,0x5
000033E0  06                push es
000033E1  1B21              sbb sp,[bx+di]
000033E3  2324              and sp,[si]
000033E5  3435              xor al,0x35
000033E7  3637              ss aaa
000033E9  3839              cmp [bx+di],bh
000033EB  3A3B              cmp bh,[bp+di]
000033ED  3C3D              cmp al,0x3d
000033EF  3E3F              ds aas
000033F1  7500              jnz 0x33f3
000033F3  0204              add al,[si]
000033F5  050608            add ax,0x806
000033F8  090A              or [bp+si],cx
000033FA  0B0C              or cx,[si]
000033FC  0D0E75            or ax,0x750e
000033FF  00558B            add [di-0x75],dl
00003402  EC                in al,dx
00003403  53                push bx
00003404  51                push cx
00003405  52                push dx
00003406  8A5D0C            mov bl,[di+0xc]
00003409  8B4508            mov ax,[di+0x8]
0000340C  8B10              mov dx,[bx+si]
0000340E  668B4804          mov ecx,[bx+si+0x4]
00003412  B80502            mov ax,0x205
00003415  0000              add [bx+si],al
00003417  CD31              int 0x31
00003419  5A                pop dx
0000341A  59                pop cx
0000341B  5B                pop bx
0000341C  C9                leave
0000341D  C20800            ret 0x8
00003420  33C0              xor ax,ax
00003422  A3E911            mov [0x11e9],ax
00003425  0100              add [bx+si],ax
00003427  A3E511            mov [0x11e5],ax
0000342A  0100              add [bx+si],ax
0000342C  BF1004            mov di,0x410
0000342F  0000              add [bx+si],al
00003431  8A07              mov al,[bx]
00003433  2402              and al,0x2
00003435  750B              jnz 0x3442
00003437  C7056403          mov word [di],0x364
0000343B  0000              add [bx+si],al
0000343D  0000              add [bx+si],al
0000343F  0000              add [bx+si],al
00003441  C3                ret
00003442  9B                wait
00003443  DBE3              fninit
00003445  9B                wait
00003446  D92D              fldcw [di]
00003448  5E                pop si
00003449  0300              add ax,[bx+si]
0000344B  009BC300          add [bp+di+0xc3],bl
0000344F  54                push sp
00003450  4D                dec bp
00003451  54                push sp
00003452  205061            and [bx+si+0x61],dl
00003455  7363              jnc 0x34ba
00003457  61                popa
00003458  6C                insb
00003459  205275            and [bp+si+0x75],dl
0000345C  6E                outsb
0000345D  7469              jz 0x34c8
0000345F  6D                insw
00003460  65204C69          and [gs:si+0x69],cl
00003464  627261            bound si,[bp+si+0x61]
00003467  7279              jc 0x34e2
00003469  007213            add [bp+si+0x13],dh
0000346C  0200              add al,[bx+si]
0000346E  0000              add [bx+si],al
00003470  0300              add ax,[bx+si]
00003472  0000              add [bx+si],al
00003474  55                push bp
00003475  8BEC              mov bp,sp
00003477  53                push bx
00003478  51                push cx
00003479  52                push dx
0000347A  8A5D0C            mov bl,[di+0xc]
0000347D  B80302            mov ax,0x203
00003480  0000              add [bx+si],al
00003482  8B5508            mov dx,[di+0x8]
00003485  8CC9              mov cx,cs
00003487  CD31              int 0x31
00003489  5A                pop dx
0000348A  59                pop cx
0000348B  5B                pop bx
0000348C  C9                leave
0000348D  C20800            ret 0x8
00003490  50                push ax
00003491  57                push di
00003492  8B4424            mov ax,[si+0x24]
00003495  14C7              adc al,0xc7
00003497  44                inc sp
00003498  2414              and al,0x14
0000349A  A4                movsb
0000349B  0300              add ax,[bx+si]
0000349D  008B7C24          add [bp+di+0x247c],cl
000034A1  20836C24          and [bp+di+0x246c],al
000034A5  2008              and [bx+si],cl
000034A7  8947F8            mov [bx-0x8],ax
000034AA  5F                pop di
000034AB  58                pop ax
000034AC  CB                retf
000034AD  0000              add [bx+si],al
000034AF  00E8              add al,ch
000034B1  9B                wait
000034B2  0400              add al,0x0
000034B4  00558B            add [di-0x75],dl
000034B7  EC                in al,dx
000034B8  68CF00            push word 0xcf
000034BB  0000              add [bx+si],al
000034BD  FF751C            push word [di+0x1c]
000034C0  FF7534            push word [di+0x34]
000034C3  E83400            call 0x34fa
000034C6  0000              add [bx+si],al
000034C8  C9                leave
000034C9  E90200            jmp 0x34ce
000034CC  0000              add [bx+si],al
000034CE  0000              add [bx+si],al
000034D0  FA                cli
000034D1  83C434            add sp,byte +0x34
000034D4  5E                pop si
000034D5  5A                pop dx
000034D6  A1E403            mov ax,[0x3e4]
000034D9  0000              add [bx+si],al
000034DB  8904              mov [si],ax
000034DD  2489              and al,0x89
000034DF  25E403            and ax,0x3e4
000034E2  0000              add [bx+si],al
000034E4  8ED2              mov ss,dx
000034E6  89F4              mov sp,si
000034E8  1F                pop ds
000034E9  07                pop es
000034EA  0FA1              pop fs
000034EC  0FA9              pop gs
000034EE  61                popa
000034EF  CF                iret
000034F0  0000              add [bx+si],al
000034F2  0000              add [bx+si],al
000034F4  0000              add [bx+si],al
000034F6  0000              add [bx+si],al
000034F8  0000              add [bx+si],al
000034FA  0000              add [bx+si],al
000034FC  55                push bp
000034FD  8BEC              mov bp,sp
000034FF  8B4508            mov ax,[di+0x8]
00003502  A3E511            mov [0x11e5],ax
00003505  0100              add [bx+si],ax
00003507  8B4510            mov ax,[di+0x10]
0000350A  A33E08            mov [0x83e],ax
0000350D  0000              add [bx+si],al
0000350F  E80804            call 0x391a
00003512  0000              add [bx+si],al
00003514  833DE5            cmp word [di],byte -0x1b
00003517  1101              adc [bx+di],ax
00003519  0000              add [bx+si],al
0000351B  740F              jz 0x352c
0000351D  FF7510            push word [di+0x10]
00003520  FF750C            push word [di+0xc]
00003523  FF7508            push word [di+0x8]
00003526  FF15              call near [di]
00003528  42                inc dx
00003529  0400              add al,0x0
0000352B  006A04            add [bp+si+0x4],ch
0000352E  E80500            call 0x3536
00003531  0000              add [bx+si],al
00003533  C9                leave
00003534  C20C00            ret 0xc
00003537  00558B            add [di-0x75],dl
0000353A  EC                in al,dx
0000353B  FF7508            push word [di+0x8]
0000353E  E80500            call 0x3546
00003541  0000              add [bx+si],al
00003543  C9                leave
00003544  C20400            ret 0x4
00003547  005858            add [bx+si+0x58],bl
0000354A  B44C              mov ah,0x4c
0000354C  CD21              int 0x21
0000354E  48                dec ax
0000354F  0400              add al,0x0
00003551  0000              add [bx+si],al
00003553  00C8              add al,cl
00003555  2804              sub [si],al
00003557  00BED305          add [bp+0x5d3],bh
0000355B  0000              add [bx+si],al
0000355D  8DBDF8FB          lea di,[di+0xfbf8]
00003561  FF                db 0xFF
00003562  FF                db 0xFF
00003563  E88C01            call 0x36f2
00003566  0000              add [bx+si],al
00003568  8D85E8FB          lea ax,[di+0xfbe8]
0000356C  FF                db 0xFF
0000356D  FF50FF            call near [bx+si-0x1]
00003570  7510              jnz 0x3582
00003572  E80502            call 0x377a
00003575  0000              add [bx+si],al
00003577  8DB5E8FB          lea si,[di+0xfbe8]
0000357B  FF                db 0xFF
0000357C  FF8DBDF8          dec word [di+0xf8bd]
00003580  FB                sti
00003581  FF                db 0xFF
00003582  FF                db 0xFF
00003583  E81C01            call 0x36a2
00003586  0000              add [bx+si],al
00003588  8BF7              mov si,di
0000358A  8DBDF8FC          lea di,[di+0xfcf8]
0000358E  FF                db 0xFF
0000358F  FF                db 0xFF
00003590  E85F01            call 0x36f2
00003593  0000              add [bx+si],al
00003595  BEDE05            mov si,0x5de
00003598  0000              add [bx+si],al
0000359A  E80501            call 0x36a2
0000359D  0000              add [bx+si],al
0000359F  8BF7              mov si,di
000035A1  8DBDF8FD          lea di,[di+0xfdf8]
000035A5  FF                db 0xFF
000035A6  FF                db 0xFF
000035A7  E84801            call 0x36f2
000035AA  0000              add [bx+si],al
000035AC  8D85D8FB          lea ax,[di+0xfbd8]
000035B0  FF                db 0xFF
000035B1  FF50FF            call near [bx+si-0x1]
000035B4  7508              jnz 0x35be
000035B6  E85501            call 0x370e
000035B9  0000              add [bx+si],al
000035BB  8DB5D8FB          lea si,[di+0xfbd8]
000035BF  FF                db 0xFF
000035C0  FF8DBDF8          dec word [di+0xf8bd]
000035C4  FD                std
000035C5  FF                db 0xFF
000035C6  FF                db 0xFF
000035C7  E8D800            call 0x36a2
000035CA  0000              add [bx+si],al
000035CC  8BF7              mov si,di
000035CE  8DBDF8FE          lea di,[di+0xfef8]
000035D2  FF                db 0xFF
000035D3  FF                db 0xFF
000035D4  E81B01            call 0x36f2
000035D7  0000              add [bx+si],al
000035D9  BEE305            mov si,0x5e3
000035DC  0000              add [bx+si],al
000035DE  E8C100            call 0x36a2
000035E1  0000              add [bx+si],al
000035E3  8BC7              mov ax,di
000035E5  50                push ax
000035E6  E80500            call 0x35ee
000035E9  0000              add [bx+si],al
000035EB  C9                leave
000035EC  C20C00            ret 0xc
000035EF  00C8              add al,cl
000035F1  1002              adc [bp+si],al
000035F3  005351            add [bp+di+0x51],dl
000035F6  52                push dx
000035F7  8B7508            mov si,[di+0x8]
000035FA  8DBDF8FE          lea di,[di+0xfef8]
000035FE  FF                db 0xFF
000035FF  FF                db 0xFF
00003600  E86700            call 0x366a
00003603  0000              add [bx+si],al
00003605  6A00              push byte +0x0
00003607  8D85F9FE          lea ax,[di+0xfef9]
0000360B  FF                db 0xFF
0000360C  FF500F            call near [bx+si+0xf]
0000360F  B69D              mov dh,0x9d
00003611  F8                clc
00003612  FE                db 0xFE
00003613  FF                db 0xFF
00003614  FF538D            call near [bp+di-0x73]
00003617  8D                db 0x8D
00003618  F4                hlt
00003619  FE                db 0xFE
0000361A  FF                db 0xFF
0000361B  FF51E8            call near [bx+di-0x18]
0000361E  0A00              or al,[bx+si]
00003620  0000              add [bx+si],al
00003622  5A                pop dx
00003623  59                pop cx
00003624  5B                pop bx
00003625  C9                leave
00003626  C20400            ret 0x4
00003629  0000              add [bx+si],al
0000362B  00558B            add [di-0x75],dl
0000362E  EC                in al,dx
0000362F  FF7514            push word [di+0x14]
00003632  FF7510            push word [di+0x10]
00003635  FF750C            push word [di+0xc]
00003638  FF7508            push word [di+0x8]
0000363B  E80800            call 0x3646
0000363E  0000              add [bx+si],al
00003640  0F                db 0x0F
00003641  B7C0              mov bh,0xc0
00003643  C9                leave
00003644  C21000            ret 0x10
00003647  00558B            add [di-0x75],dl
0000364A  EC                in al,dx
0000364B  53                push bx
0000364C  51                push cx
0000364D  52                push dx
0000364E  8B5D14            mov bx,[di+0x14]
00003651  8B4D0C            mov cx,[di+0xc]
00003654  8B5510            mov dx,[di+0x10]
00003657  B440              mov ah,0x40
00003659  CD21              int 0x21
0000365B  8B5508            mov dx,[di+0x8]
0000365E  8902              mov [bp+si],ax
00003660  1BD2              sbb dx,dx
00003662  23C2              and ax,dx
00003664  5A                pop dx
00003665  59                pop cx
00003666  5B                pop bx
00003667  C9                leave
00003668  C21000            ret 0x10
0000366B  00FF              add bh,bh
0000366D  3424              xor al,0x24
0000366F  C7442404FF        mov word [si+0x24],0xff04
00003674  0000              add [bx+si],al
00003676  00E9              add cl,ch
00003678  0000              add [bx+si],al
0000367A  0000              add [bx+si],al
0000367C  50                push ax
0000367D  51                push cx
0000367E  56                push si
0000367F  57                push di
00003680  8B4C24            mov cx,[si+0x24]
00003683  14AC              adc al,0xac
00003685  3AC8              cmp cl,al
00003687  7302              jnc 0x368b
00003689  88C8              mov al,cl
0000368B  AA                stosb
0000368C  88C1              mov cl,al
0000368E  D1E9              shr cx,1
00003690  7301              jnc 0x3693
00003692  A4                movsb
00003693  D1E9              shr cx,1
00003695  7302              jnc 0x3699
00003697  66A5              movsd
00003699  F3A5              rep movsw
0000369B  5F                pop di
0000369C  5E                pop si
0000369D  59                pop cx
0000369E  58                pop ax
0000369F  C20400            ret 0x4
000036A2  0000              add [bx+si],al
000036A4  50                push ax
000036A5  53                push bx
000036A6  51                push cx
000036A7  56                push si
000036A8  57                push di
000036A9  AC                lodsb
000036AA  0FB6C8            movzx cx,al
000036AD  0FB607            movzx ax,[bx]
000036B0  89FB              mov bx,di
000036B2  8D7C07            lea di,[si+0x7]
000036B5  0103              add [bp+di],ax
000036B7  C13D00            sar word [di],0x0
000036BA  0100              add [bx+si],ax
000036BC  007C09            add [si+0x9],bh
000036BF  2BC8              sub cx,ax
000036C1  B8FF00            mov ax,0xff
000036C4  0000              add [bx+si],al
000036C6  03C8              add cx,ax
000036C8  8803              mov [bp+di],al
000036CA  D1E9              shr cx,1
000036CC  7301              jnc 0x36cf
000036CE  A4                movsb
000036CF  D1E9              shr cx,1
000036D1  7302              jnc 0x36d5
000036D3  66A5              movsd
000036D5  F3A5              rep movsw
000036D7  F3A4              rep movsb
000036D9  5F                pop di
000036DA  5E                pop si
000036DB  59                pop cx
000036DC  5B                pop bx
000036DD  58                pop ax
000036DE  C3                ret
000036DF  0A5275            or dl,[bp+si+0x75]
000036E2  6E                outsb
000036E3  45                inc bp
000036E4  7272              jc 0x3758
000036E6  6F                outsw
000036E7  7220              jc 0x3709
000036E9  2304              and ax,[si]
000036EB  206174            and [bx+di+0x74],ah
000036EE  2002              and [bp+si],al
000036F0  0D0A00            or ax,0xa
000036F3  005156            add [bx+di+0x56],dl
000036F6  57                push di
000036F7  0FB60E4688        movzx cx,[0x8846]
000036FC  0F47D1            cmova dx,cx
000036FF  E97301            jmp 0x3875
00003702  A4                movsb
00003703  D1E9              shr cx,1
00003705  7302              jnc 0x3709
00003707  66A5              movsd
00003709  F3A5              rep movsw
0000370B  5F                pop di
0000370C  5E                pop si
0000370D  59                pop cx
0000370E  C3                ret
0000370F  00C8              add al,cl
00003711  0801              or [bx+di],al
00003713  008D85F8          add [di+0xf885],cl
00003717  FE                db 0xFE
00003718  FF                db 0xFF
00003719  FF508D            call near [bx+si-0x73]
0000371C  45                inc bp
0000371D  08506A            or [bx+si+0x6a],dl
00003720  04E8              add al,0xe8
00003722  16                push ss
00003723  0000              add [bx+si],al
00003725  008B7D0C          add [bp+di+0xc7d],cl
00003729  8DB5F8FE          lea si,[di+0xfef8]
0000372D  FF                db 0xFF
0000372E  FF6A0C            jmp far [bp+si+0xc]
00003731  E846FF            call 0x367a
00003734  FF                db 0xFF
00003735  FFC9              dec cx
00003737  C20800            ret 0x8
0000373A  0000              add [bx+si],al
0000373C  8B7C24            mov di,[si+0x24]
0000373F  0C8B              or al,0x8b
00003741  7424              jz 0x3767
00003743  088B4424          or [bp+di+0x2444],cl
00003747  0451              add al,0x51
00003749  89C1              mov cx,ax
0000374B  03F0              add si,ax
0000374D  4E                dec si
0000374E  D1E0              shl ax,1
00003750  FC                cld
00003751  AA                stosb
00003752  FD                std
00003753  AC                lodsb
00003754  50                push ax
00003755  C1E804            shr ax,0x4
00003758  059000            add ax,0x90
0000375B  0000              add [bx+si],al
0000375D  27                daa
0000375E  83D040            adc ax,byte +0x40
00003761  27                daa
00003762  FC                cld
00003763  AA                stosb
00003764  58                pop ax
00003765  83E00F            and ax,byte +0xf
00003768  059000            add ax,0x90
0000376B  0000              add [bx+si],al
0000376D  27                daa
0000376E  83D040            adc ax,byte +0x40
00003771  27                daa
00003772  AA                stosb
00003773  E2DD              loop 0x3752
00003775  59                pop cx
00003776  C20C00            ret 0xc
00003779  0000              add [bx+si],al
0000377B  00C8              add al,cl
0000377D  1801              sbb [bx+di],al
0000377F  00837D08          add [bp+di+0x87d],al
00003783  007D45            add [di+0x45],bh
00003786  BE0D08            mov si,0x80d
00003789  0000              add [bx+si],al
0000378B  8DBDF8FE          lea di,[di+0xfef8]
0000378F  FF                db 0xFF
00003790  FF                db 0xFF
00003791  E85EFF            call 0x36f2
00003794  FF                db 0xFF
00003795  FF8D85E8          dec word [di+0xe885]
00003799  FE                db 0xFE
0000379A  FF                db 0xFF
0000379B  FF508B            call near [bx+si-0x75]
0000379E  45                inc bp
0000379F  08F7              or bh,dh
000037A1  D850E8            fcom dword [bx+si-0x18]
000037A4  40                inc ax
000037A5  0000              add [bx+si],al
000037A7  008DB5E8          add [di+0xe8b5],cl
000037AB  FE                db 0xFE
000037AC  FF                db 0xFF
000037AD  FF8DBDF8          dec word [di+0xf8bd]
000037B1  FE                db 0xFE
000037B2  FF                db 0xFF
000037B3  FF                db 0xFF
000037B4  E8EBFE            call 0x36a2
000037B7  FF                db 0xFF
000037B8  FF8B7D0C          dec word [bp+di+0xc7d]
000037BC  8DB5F8FE          lea si,[di+0xfef8]
000037C0  FF                db 0xFF
000037C1  FF6A0C            jmp far [bp+si+0xc]
000037C4  E8B3FE            call 0x367a
000037C7  FF                db 0xFF
000037C8  FF                db 0xFF
000037C9  EB19              jmp short 0x37e4
000037CB  8D45E8            lea ax,[di-0x18]
000037CE  50                push ax
000037CF  FF7508            push word [di+0x8]
000037D2  E81100            call 0x37e6
000037D5  0000              add [bx+si],al
000037D7  8B7D0C            mov di,[di+0xc]
000037DA  8D75E8            lea si,[di-0x18]
000037DD  6A0C              push byte +0xc
000037DF  E898FE            call 0x367a
000037E2  FF                db 0xFF
000037E3  FFC9              dec cx
000037E5  C20800            ret 0x8
000037E8  C81C0200          enter 0x21c,0x0
000037EC  52                push dx
000037ED  C745E4F4FF        mov word [di-0x1c],0xfff4
000037F2  FF                db 0xFF
000037F3  FFC7              inc di
000037F5  45                inc bp
000037F6  E80D00            call 0x3806
000037F9  0000              add [bx+si],al
000037FB  FF4DE8            dec word [di-0x18]
000037FE  8B3D              mov di,[di]
00003800  7007              jo 0x3809
00003802  0000              add [bx+si],al
00003804  8B4508            mov ax,[di+0x8]
00003807  33D2              xor dx,dx
00003809  F7F7              div di
0000380B  8B45E8            mov ax,[di-0x18]
0000380E  8A14              mov dl,[si]
00003810  157407            adc ax,0x774
00003813  0000              add [bx+si],al
00003815  885405            mov [si+0x5],dl
00003818  EB8B              jmp short 0x37a5
0000381A  3D7E07            cmp ax,0x77e
0000381D  0000              add [bx+si],al
0000381F  8B4508            mov ax,[di+0x8]
00003822  33D2              xor dx,dx
00003824  F7F7              div di
00003826  894508            mov [di+0x8],ax
00003829  85C0              test ax,ax
0000382B  7536              jnz 0x3863
0000382D  8D95E4FE          lea dx,[di+0xfee4]
00003831  FF                db 0xFF
00003832  FF528D            call near [bp+si-0x73]
00003835  75EC              jnz 0x3823
00003837  8DBDE4FD          lea di,[di+0xfde4]
0000383B  FF                db 0xFF
0000383C  FF6A0C            jmp far [bp+si+0xc]
0000383F  E8B400            call 0x38f6
00003842  0000              add [bx+si],al
00003844  8BC7              mov ax,di
00003846  50                push ax
00003847  FF75E8            push word [di-0x18]
0000384A  6A0C              push byte +0xc
0000384C  E84700            call 0x3896
0000384F  0000              add [bx+si],al
00003851  8B7D0C            mov di,[di+0xc]
00003854  8DB5E4FE          lea si,[di+0xfee4]
00003858  FF                db 0xFF
00003859  FF6A0C            jmp far [bp+si+0xc]
0000385C  E81BFE            call 0x367a
0000385F  FF                db 0xFF
00003860  FF                db 0xFF
00003861  EB14              jmp short 0x3877
00003863  FF45E4            inc word [di-0x1c]
00003866  7593              jnz 0x37fb
00003868  8B7D0C            mov di,[di+0xc]
0000386B  BE8207            mov si,0x782
0000386E  0000              add [bx+si],al
00003870  6A0C              push byte +0xc
00003872  E805FE            call 0x367a
00003875  FF                db 0xFF
00003876  FF5AC9            call far [bp+si-0x37]
00003879  C20800            ret 0x8
0000387C  0A00              or al,[bx+si]
0000387E  0000              add [bx+si],al
00003880  3031              xor [bx+di],dh
00003882  3233              xor dh,[bp+di]
00003884  3435              xor al,0x35
00003886  3637              ss aaa
00003888  3839              cmp [bx+di],bh
0000388A  0A00              or al,[bx+si]
0000388C  0000              add [bx+si],al
0000388E  082A              or [bp+si],ch
00003890  2A2A              sub ch,[bp+si]
00003892  2A2A              sub ch,[bp+si]
00003894  2A2A              sub ch,[bp+si]
00003896  2A00              sub al,[bx+si]
00003898  8B7C24            mov di,[si+0x24]
0000389B  105351            adc [bp+di+0x51],dl
0000389E  8B5C24            mov bx,[si+0x24]
000038A1  1083FB01          adc [bp+di+0x1fb],al
000038A5  7305              jnc 0x38ac
000038A7  BB0100            mov bx,0x1
000038AA  0000              add [bx+si],al
000038AC  89D9              mov cx,bx
000038AE  034C24            add cx,[si+0x24]
000038B1  0C49              or al,0x49
000038B3  8B7424            mov si,[si+0x24]
000038B6  1433              adc al,0x33
000038B8  C08A063BD8        ror byte [bp+si+0x3b06],0xd8
000038BD  7604              jna 0x38c3
000038BF  8827              mov [bx],ah
000038C1  EB2A              jmp short 0x38ed
000038C3  837C240C          cmp word [si+0x24],byte +0xc
000038C7  007704            add [bx+0x4],dh
000038CA  8827              mov [bx],ah
000038CC  EB1F              jmp short 0x38ed
000038CE  3BC8              cmp cx,ax
000038D0  7602              jna 0x38d4
000038D2  89C1              mov cx,ax
000038D4  2BCB              sub cx,bx
000038D6  41                inc cx
000038D7  880F              mov [bx],cl
000038D9  03F3              add si,bx
000038DB  47                inc di
000038DC  89C8              mov ax,cx
000038DE  C1E902            shr cx,0x2
000038E1  90                nop
000038E2  90                nop
000038E3  90                nop
000038E4  F3A5              rep movsw
000038E6  89C1              mov cx,ax
000038E8  83E103            and cx,byte +0x3
000038EB  F3A4              rep movsb
000038ED  59                pop cx
000038EE  5B                pop bx
000038EF  8B4424            mov ax,[si+0x24]
000038F2  10C2              adc dl,al
000038F4  1000              adc [bx+si],al
000038F6  0000              add [bx+si],al
000038F8  50                push ax
000038F9  51                push cx
000038FA  56                push si
000038FB  57                push di
000038FC  8B4C24            mov cx,[si+0x24]
000038FF  1488              adc al,0x88
00003901  C8AAD1E9          enter 0xd1aa,0xe9
00003905  7301              jnc 0x3908
00003907  A4                movsb
00003908  D1E9              shr cx,1
0000390A  7302              jnc 0x390e
0000390C  66A5              movsd
0000390E  F3A5              rep movsw
00003910  F3A4              rep movsb
00003912  5F                pop di
00003913  5E                pop si
00003914  59                pop cx
00003915  58                pop ax
00003916  C20400            ret 0x4
00003919  012D              add [di],bp
0000391B  00C8              add al,cl
0000391D  1000              adc [bx+si],al
0000391F  005383            add [bp+di-0x7d],dl
00003922  3D3A02            cmp ax,0x23a
00003925  0000              add [bx+si],al
00003927  00741D            add [si+0x1d],dh
0000392A  BE3A02            mov si,0x23a
0000392D  0000              add [bx+si],al
0000392F  8D7DF0            lea di,[di-0x10]
00003932  A5                movsw
00003933  A5                movsw
00003934  33C0              xor ax,ax
00003936  A33A02            mov [0x23a],ax
00003939  0000              add [bx+si],al
0000393B  8B5DF4            mov bx,[di-0xc]
0000393E  87EB              xchg bp,bx
00003940  FF53F0            call near [bp+di-0x10]
00003943  8BEB              mov bp,bx
00003945  EBDA              jmp short 0x3921
00003947  5B                pop bx
00003948  C9                leave
00003949  C3                ret
0000394A  0000              add [bx+si],al
0000394C  0000              add [bx+si],al
0000394E  0000              add [bx+si],al
00003950  51                push cx
00003951  52                push dx
00003952  53                push bx
00003953  54                push sp
00003954  55                push bp
00003955  56                push si
00003956  57                push di
00003957  8B4C24            mov cx,[si+0x24]
0000395A  1C89              sbb al,0x89
0000395C  44                inc sp
0000395D  241C              and al,0x1c
0000395F  0FA8              push gs
00003961  0FA0              push fs
00003963  06                push es
00003964  1E                push ds
00003965  2E668B1D          mov ebx,[cs:di]
00003969  B90800            mov cx,0x8
0000396C  008EDB8E          add [bp+0x8edb],cl
00003970  C3                ret
00003971  FC                cld
00003972  8CD2              mov dx,ss
00003974  8EE2              mov fs,dx
00003976  89E6              mov si,sp
00003978  A1E403            mov ax,[0x3e4]
0000397B  0000              add [bx+si],al
0000397D  83F800            cmp ax,byte +0x0
00003980  740C              jz 0x398e
00003982  8B38              mov di,[bx+si]
00003984  893D              mov [di],di
00003986  E403              in al,0x3
00003988  0000              add [bx+si],al
0000398A  8ED3              mov ss,bx
0000398C  89C4              mov sp,ax
0000398E  52                push dx
0000398F  56                push si
00003990  64FF7630          push word [fs:bp+0x30]
00003994  64FF762C          push word [fs:bp+0x2c]
00003998  64FF7628          push word [fs:bp+0x28]
0000399C  64FF7624          push word [fs:bp+0x24]
000039A0  64FF7620          push word [fs:bp+0x20]
000039A4  64FF761C          push word [fs:bp+0x1c]
000039A8  64FF7618          push word [fs:bp+0x18]
000039AC  64FF7614          push word [fs:bp+0x14]
000039B0  64FF7610          push word [fs:bp+0x10]
000039B4  64FF760C          push word [fs:bp+0xc]
000039B8  64FF7608          push word [fs:bp+0x8]
000039BC  64FF7604          push word [fs:bp+0x4]
000039C0  64FF36FFE1        push word [fs:0xe1ff]
000039C5  56                push si
000039C6  0900              or [bx+si],ax
000039C8  0000              add [bx+si],al
000039CA  0000              add [bx+si],al
000039CC  55                push bp
000039CD  8BEC              mov bp,sp
000039CF  53                push bx
000039D0  51                push cx
000039D1  52                push dx
000039D2  8A5D0C            mov bl,[di+0xc]
000039D5  B80502            mov ax,0x205
000039D8  0000              add [bx+si],al
000039DA  8B5508            mov dx,[di+0x8]
000039DD  8CC9              mov cx,cs
000039DF  CD31              int 0x31
000039E1  5A                pop dx
000039E2  59                pop cx
000039E3  5B                pop bx
000039E4  C9                leave
000039E5  C20800            ret 0x8
000039E8  50                push ax
000039E9  57                push di
000039EA  8B4424            mov ax,[si+0x24]
000039ED  14C7              adc al,0xc7
000039EF  44                inc sp
000039F0  2414              and al,0x14
000039F2  FC                cld
000039F3  0800              or [bx+si],al
000039F5  008B7C24          add [bp+di+0x247c],cl
000039F9  20836C24          and [bp+di+0x246c],al
000039FD  2008              and [bx+si],cl
000039FF  8947F8            mov [bx-0x8],ax
00003A02  5F                pop di
00003A03  58                pop ax
00003A04  CB                retf
00003A05  0000              add [bx+si],al
00003A07  00E8              add al,ch
00003A09  43                inc bx
00003A0A  FF                db 0xFF
00003A0B  FF                db 0xFF
00003A0C  FF558B            call near [di-0x75]
00003A0F  EC                in al,dx
00003A10  68D800            push word 0xd8
00003A13  0000              add [bx+si],al
00003A15  FF751C            push word [di+0x1c]
00003A18  FF7534            push word [di+0x34]
00003A1B  E8DCFA            call 0x34fa
00003A1E  FF                db 0xFF
00003A1F  FFC9              dec cx
00003A21  E9AAFA            jmp 0x34ce
00003A24  FF                db 0xFF
00003A25  FF00              inc word [bx+si]
00003A27  00E8              add al,ch
00003A29  23FF              and di,di
00003A2B  FF                db 0xFF
00003A2C  FF558B            call near [di-0x75]
00003A2F  EC                in al,dx
00003A30  A04C09            mov al,[0x94c]
00003A33  0000              add [bx+si],al
00003A35  84C0              test al,al
00003A37  7409              jz 0x3a42
00003A39  C6054C            mov byte [di],0x4c
00003A3C  0900              or [bx+si],ax
00003A3E  0000              add [bx+si],al
00003A40  EB10              jmp short 0x3a52
00003A42  683501            push word 0x135
00003A45  0000              add [bx+si],al
00003A47  FF751C            push word [di+0x1c]
00003A4A  FF7534            push word [di+0x34]
00003A4D  E8AAFA            call 0x34fa
00003A50  FF                db 0xFF
00003A51  FFC9              dec cx
00003A53  E978FA            jmp 0x34ce
00003A56  FF                db 0xFF
00003A57  FF00              inc word [bx+si]
00003A59  0000              add [bx+si],al
00003A5B  005057            add [bx+si+0x57],dl
00003A5E  8B4424            mov ax,[si+0x24]
00003A61  14C7              adc al,0xc7
00003A63  44                inc sp
00003A64  2414              and al,0x14
00003A66  7009              jo 0x3a71
00003A68  0000              add [bx+si],al
00003A6A  8B7C24            mov di,[si+0x24]
00003A6D  20836C24          and [bp+di+0x246c],al
00003A71  2008              and [bx+si],cl
00003A73  8947F8            mov [bx-0x8],ax
00003A76  5F                pop di
00003A77  58                pop ax
00003A78  CB                retf
00003A79  0000              add [bx+si],al
00003A7B  00E8              add al,ch
00003A7D  CF                iret
00003A7E  FE                db 0xFE
00003A7F  FF                db 0xFF
00003A80  FF558B            call near [di-0x75]
00003A83  EC                in al,dx
00003A84  68D900            push word 0xd9
00003A87  0000              add [bx+si],al
00003A89  FF751C            push word [di+0x1c]
00003A8C  FF7534            push word [di+0x34]
00003A8F  E868FA            call 0x34fa
00003A92  FF                db 0xFF
00003A93  FFC9              dec cx
00003A95  E936FA            jmp 0x34ce
00003A98  FF                db 0xFF
00003A99  FF00              inc word [bx+si]
00003A9B  005057            add [bx+si+0x57],dl
00003A9E  8B4424            mov ax,[si+0x24]
00003AA1  14C7              adc al,0xc7
00003AA3  44                inc sp
00003AA4  2414              and al,0x14
00003AA6  B009              mov al,0x9
00003AA8  0000              add [bx+si],al
00003AAA  8B7C24            mov di,[si+0x24]
00003AAD  20836C24          and [bp+di+0x246c],al
00003AB1  2008              and [bx+si],cl
00003AB3  8947F8            mov [bx-0x8],ax
00003AB6  5F                pop di
00003AB7  58                pop ax
00003AB8  CB                retf
00003AB9  0000              add [bx+si],al
00003ABB  00E8              add al,ch
00003ABD  8F                db 0x8F
00003ABE  FE                db 0xFE
00003ABF  FF                db 0xFF
00003AC0  FF558B            call near [di-0x75]
00003AC3  EC                in al,dx
00003AC4  68C900            push word 0xc9
00003AC7  0000              add [bx+si],al
00003AC9  FF751C            push word [di+0x1c]
00003ACC  FF7534            push word [di+0x34]
00003ACF  E828FA            call 0x34fa
00003AD2  FF                db 0xFF
00003AD3  FFC9              dec cx
00003AD5  E9F6F9            jmp 0x34ce
00003AD8  FF                db 0xFF
00003AD9  FF00              inc word [bx+si]
00003ADB  005057            add [bx+si+0x57],dl
00003ADE  8B4424            mov ax,[si+0x24]
00003AE1  14C7              adc al,0xc7
00003AE3  44                inc sp
00003AE4  2414              and al,0x14
00003AE6  F00900            lock or [bx+si],ax
00003AE9  008B7C24          add [bp+di+0x247c],cl
00003AED  20836C24          and [bp+di+0x246c],al
00003AF1  2008              and [bx+si],cl
00003AF3  8947F8            mov [bx-0x8],ax
00003AF6  5F                pop di
00003AF7  58                pop ax
00003AF8  CB                retf
00003AF9  0000              add [bx+si],al
00003AFB  00E8              add al,ch
00003AFD  4F                dec di
00003AFE  FE                db 0xFE
00003AFF  FF                db 0xFF
00003B00  FF558B            call near [di-0x75]
00003B03  EC                in al,dx
00003B04  68D700            push word 0xd7
00003B07  0000              add [bx+si],al
00003B09  FF751C            push word [di+0x1c]
00003B0C  FF7534            push word [di+0x34]
00003B0F  E8E8F9            call 0x34fa
00003B12  FF                db 0xFF
00003B13  FFC9              dec cx
00003B15  E9B6F9            jmp 0x34ce
00003B18  FF                db 0xFF
00003B19  FF00              inc word [bx+si]
00003B1B  005057            add [bx+si+0x57],dl
00003B1E  8B4424            mov ax,[si+0x24]
00003B21  14C7              adc al,0xc7
00003B23  44                inc sp
00003B24  2414              and al,0x14
00003B26  300A              xor [bp+si],cl
00003B28  0000              add [bx+si],al
00003B2A  8B7C24            mov di,[si+0x24]
00003B2D  20836C24          and [bp+di+0x246c],al
00003B31  2008              and [bx+si],cl
00003B33  8947F8            mov [bx-0x8],ax
00003B36  5F                pop di
00003B37  58                pop ax
00003B38  CB                retf
00003B39  0000              add [bx+si],al
00003B3B  00E8              add al,ch
00003B3D  0FFEFF            paddd mm7,mm7
00003B40  FF558B            call near [di-0x75]
00003B43  EC                in al,dx
00003B44  68C800            push word 0xc8
00003B47  0000              add [bx+si],al
00003B49  FF751C            push word [di+0x1c]
00003B4C  FF7534            push word [di+0x34]
00003B4F  E8A8F9            call 0x34fa
00003B52  FF                db 0xFF
00003B53  FFC9              dec cx
00003B55  E976F9            jmp 0x34ce
00003B58  FF                db 0xFF
00003B59  FF00              inc word [bx+si]
00003B5B  00E8              add al,ch
00003B5D  EF                out dx,ax
00003B5E  FD                std
00003B5F  FF                db 0xFF
00003B60  FF558B            call near [di-0x75]
00003B63  EC                in al,dx
00003B64  68C800            push word 0xc8
00003B67  0000              add [bx+si],al
00003B69  FF751C            push word [di+0x1c]
00003B6C  FF7534            push word [di+0x34]
00003B6F  E888F9            call 0x34fa
00003B72  FF                db 0xFF
00003B73  FFC9              dec cx
00003B75  E956F9            jmp 0x34ce
00003B78  FF                db 0xFF
00003B79  FF00              inc word [bx+si]
00003B7B  00558B            add [di-0x75],dl
00003B7E  EC                in al,dx
00003B7F  8A450C            mov al,[di+0xc]
00003B82  50                push ax
00003B83  FF7508            push word [di+0x8]
00003B86  E80500            call 0x3b8e
00003B89  0000              add [bx+si],al
00003B8B  C9                leave
00003B8C  C20800            ret 0x8
00003B8F  00558B            add [di-0x75],dl
00003B92  EC                in al,dx
00003B93  53                push bx
00003B94  51                push cx
00003B95  52                push dx
00003B96  8A5D0C            mov bl,[di+0xc]
00003B99  B80202            mov ax,0x202
00003B9C  0000              add [bx+si],al
00003B9E  CD31              int 0x31
00003BA0  8B4508            mov ax,[di+0x8]
00003BA3  8910              mov [bx+si],dx
00003BA5  66894804          mov [bx+si+0x4],ecx
00003BA9  5A                pop dx
00003BAA  59                pop cx
00003BAB  5B                pop bx
00003BAC  C9                leave
00003BAD  C20800            ret 0x8
00003BB0  55                push bp
00003BB1  8BEC              mov bp,sp
00003BB3  8A450C            mov al,[di+0xc]
00003BB6  50                push ax
00003BB7  FF7508            push word [di+0x8]
00003BBA  E80500            call 0x3bc2
00003BBD  0000              add [bx+si],al
00003BBF  C9                leave
00003BC0  C20800            ret 0x8
00003BC3  00558B            add [di-0x75],dl
00003BC6  EC                in al,dx
00003BC7  53                push bx
00003BC8  51                push cx
00003BC9  52                push dx
00003BCA  8A5D0C            mov bl,[di+0xc]
00003BCD  B80402            mov ax,0x204
00003BD0  0000              add [bx+si],al
00003BD2  CD31              int 0x31
00003BD4  8B4508            mov ax,[di+0x8]
00003BD7  8910              mov [bx+si],dx
00003BD9  66894804          mov [bx+si+0x4],ecx
00003BDD  5A                pop dx
00003BDE  59                pop cx
00003BDF  5B                pop bx
00003BE0  C9                leave
00003BE1  C20800            ret 0x8
00003BE4  55                push bp
00003BE5  8BEC              mov bp,sp
00003BE7  53                push bx
00003BE8  51                push cx
00003BE9  52                push dx
00003BEA  66B802EECD31      mov eax,0x31cdee02
00003BF0  F7DB              neg bx
00003BF2  8935              mov [di],si
00003BF4  F1                int1
00003BF5  1101              adc [bx+di],ax
00003BF7  00893DF5          add [bx+di+0xf53d],cl
00003BFB  1101              adc [bx+di],ax
00003BFD  00891D1C          add [bx+di+0x1c1d],cl
00003C01  0B00              or ax,[bx+si]
00003C03  008915F9          add [bx+di+0xf915],cl
00003C07  1101              adc [bx+di],ax
00003C09  00890DFD          add [bx+di+0xfd0d],cl
00003C0D  1101              adc [bx+di],ax
00003C0F  0066A3            add [bp-0x5d],ah
00003C12  0112              add [bp+si],dx
00003C14  0100              add [bx+si],ax
00003C16  0F                db 0x0F
00003C17  B7C0              mov bh,0xc0
00003C19  C1E004            shl ax,0x4
00003C1C  03C3              add ax,bx
00003C1E  A30512            mov [0x1205],ax
00003C21  0100              add [bx+si],ax
00003C23  5A                pop dx
00003C24  59                pop cx
00003C25  5B                pop bx
00003C26  C9                leave
00003C27  C3                ret
00003C28  0000              add [bx+si],al
00003C2A  0000              add [bx+si],al
00003C2C  C80C0000          enter 0xc,0x0
00003C30  E84303            call 0x3f76
00003C33  0000              add [bx+si],al
00003C35  8B4508            mov ax,[di+0x8]
00003C38  A3E803            mov [0x3e8],ax
00003C3B  0000              add [bx+si],al
00003C3D  837D0C00          cmp word [di+0xc],byte +0x0
00003C41  7431              jz 0x3c74
00003C43  8D45F4            lea ax,[di-0xc]
00003C46  50                push ax
00003C47  8B4508            mov ax,[di+0x8]
00003C4A  83C004            add ax,byte +0x4
00003C4D  50                push ax
00003C4E  E82500            call 0x3c76
00003C51  0000              add [bx+si],al
00003C53  8B4508            mov ax,[di+0x8]
00003C56  6BC001            imul ax,ax,byte +0x1
00003C59  0145F4            add [di-0xc],ax
00003C5C  8B45F4            mov ax,[di-0xc]
00003C5F  8B3D              mov di,[di]
00003C61  E403              in al,0x3
00003C63  0000              add [bx+si],al
00003C65  8938              mov [bx+si],di
00003C67  8B45F4            mov ax,[di-0xc]
00003C6A  A3E403            mov [0x3e4],ax
00003C6D  0000              add [bx+si],al
00003C6F  FF4D0C            dec word [di+0xc]
00003C72  EBC9              jmp short 0x3c3d
00003C74  C9                leave
00003C75  C20800            ret 0x8
00003C78  C8280000          enter 0x28,0x0
00003C7C  53                push bx
00003C7D  51                push cx
00003C7E  52                push dx
00003C7F  A1550E            mov ax,[0xe55]
00003C82  0000              add [bx+si],al
00003C84  8945F4            mov [di-0xc],ax
00003C87  8B4508            mov ax,[di+0x8]
00003C8A  83C017            add ax,byte +0x17
00003C8D  83E0F0            and ax,byte -0x10
00003C90  8945F0            mov [di-0x10],ax
00003C93  8B45F4            mov ax,[di-0xc]
00003C96  8B5DF0            mov bx,[di-0x10]
00003C99  85DB              test bx,bx
00003C9B  7C02              jl 0x3c9f
00003C9D  3918              cmp [bx+si],bx
00003C9F  0F8CCC00          jl near 0x3d6f
00003CA3  0000              add [bx+si],al
00003CA5  8B45F4            mov ax,[di-0xc]
00003CA8  83C008            add ax,byte +0x8
00003CAB  8B5DF4            mov bx,[di-0xc]
00003CAE  83C304            add bx,byte +0x4
00003CB1  8B1B              mov bx,[bp+di]
00003CB3  83C308            add bx,byte +0x8
00003CB6  8B00              mov ax,[bx+si]
00003CB8  8903              mov [bp+di],ax
00003CBA  8B45F4            mov ax,[di-0xc]
00003CBD  83C004            add ax,byte +0x4
00003CC0  8B5DF4            mov bx,[di-0xc]
00003CC3  83C308            add bx,byte +0x8
00003CC6  8B1B              mov bx,[bp+di]
00003CC8  83C304            add bx,byte +0x4
00003CCB  8B00              mov ax,[bx+si]
00003CCD  8903              mov [bp+di],ax
00003CCF  8B45F4            mov ax,[di-0xc]
00003CD2  83C004            add ax,byte +0x4
00003CD5  8B00              mov ax,[bx+si]
00003CD7  A3550E            mov [0xe55],ax
00003CDA  0000              add [bx+si],al
00003CDC  8B45F4            mov ax,[di-0xc]
00003CDF  8B18              mov bx,[bx+si]
00003CE1  2B5DF0            sub bx,[di-0x10]
00003CE4  895DE4            mov [di-0x1c],bx
00003CE7  8B45F0            mov ax,[di-0x10]
00003CEA  F7D8              neg ax
00003CEC  8B7DF4            mov di,[di-0xc]
00003CEF  8907              mov [bx],ax
00003CF1  8B5DF0            mov bx,[di-0x10]
00003CF4  F7DB              neg bx
00003CF6  8B45F4            mov ax,[di-0xc]
00003CF9  0345F0            add ax,[di-0x10]
00003CFC  83E804            sub ax,byte +0x4
00003CFF  8918              mov [bx+si],bx
00003D01  8B45F4            mov ax,[di-0xc]
00003D04  83C004            add ax,byte +0x4
00003D07  8B7D0C            mov di,[di+0xc]
00003D0A  8907              mov [bx],ax
00003D0C  837DE400          cmp word [di-0x1c],byte +0x0
00003D10  745A              jz 0x3d6c
00003D12  8B5DF0            mov bx,[di-0x10]
00003D15  015DF4            add [di-0xc],bx
00003D18  8B45F4            mov ax,[di-0xc]
00003D1B  8B7DE4            mov di,[di-0x1c]
00003D1E  8938              mov [bx+si],di
00003D20  8B45F4            mov ax,[di-0xc]
00003D23  0345E4            add ax,[di-0x1c]
00003D26  83E804            sub ax,byte +0x4
00003D29  8B7DE4            mov di,[di-0x1c]
00003D2C  8938              mov [bx+si],di
00003D2E  A1550E            mov ax,[0xe55]
00003D31  0000              add [bx+si],al
00003D33  83C008            add ax,byte +0x8
00003D36  8B00              mov ax,[bx+si]
00003D38  8945E0            mov [di-0x20],ax
00003D3B  8B45F4            mov ax,[di-0xc]
00003D3E  83C004            add ax,byte +0x4
00003D41  8B3D              mov di,[di]
00003D43  55                push bp
00003D44  0E                push cs
00003D45  0000              add [bx+si],al
00003D47  8938              mov [bx+si],di
00003D49  8B45F4            mov ax,[di-0xc]
00003D4C  83C008            add ax,byte +0x8
00003D4F  8B7DE0            mov di,[di-0x20]
00003D52  8938              mov [bx+si],di
00003D54  A1550E            mov ax,[0xe55]
00003D57  0000              add [bx+si],al
00003D59  83C008            add ax,byte +0x8
00003D5C  8B7DF4            mov di,[di-0xc]
00003D5F  8938              mov [bx+si],di
00003D61  8B45E0            mov ax,[di-0x20]
00003D64  83C004            add ax,byte +0x4
00003D67  8B7DF4            mov di,[di-0xc]
00003D6A  8938              mov [bx+si],di
00003D6C  E99B01            jmp 0x3f0a
00003D6F  0000              add [bx+si],al
00003D71  8B45F4            mov ax,[di-0xc]
00003D74  83C004            add ax,byte +0x4
00003D77  8B00              mov ax,[bx+si]
00003D79  8945F4            mov [di-0xc],ax
00003D7C  8B45F4            mov ax,[di-0xc]
00003D7F  3905              cmp [di],ax
00003D81  55                push bp
00003D82  0E                push cs
00003D83  0000              add [bx+si],al
00003D85  0F8508FF          jnz near 0x3c91
00003D89  FF                db 0xFF
00003D8A  FF8B1D0F          dec word [bp+di+0xf1d]
00003D8E  0E                push cs
00003D8F  0000              add [bx+si],al
00003D91  2B1D              sub bx,[di]
00003D93  0B0E0000          or cx,[0x0]
00003D97  895DEC            mov [di-0x14],bx
00003D9A  395DF0            cmp [di-0x10],bx
00003D9D  0F863401          jna near 0x3ed5
00003DA1  0000              add [bx+si],al
00003DA3  833D0B            cmp word [di],byte +0xb
00003DA6  0E                push cs
00003DA7  0000              add [bx+si],al
00003DA9  00745F            add [si+0x5f],dh
00003DAC  A10B0E            mov ax,[0xe0b]
00003DAF  0000              add [bx+si],al
00003DB1  8B7DEC            mov di,[di-0x14]
00003DB4  8938              mov [bx+si],di
00003DB6  A10F0E            mov ax,[0xe0f]
00003DB9  0000              add [bx+si],al
00003DBB  83E804            sub ax,byte +0x4
00003DBE  8B7DEC            mov di,[di-0x14]
00003DC1  8938              mov [bx+si],di
00003DC3  A1550E            mov ax,[0xe55]
00003DC6  0000              add [bx+si],al
00003DC8  83C008            add ax,byte +0x8
00003DCB  8B00              mov ax,[bx+si]
00003DCD  8945D8            mov [di-0x28],ax
00003DD0  A10B0E            mov ax,[0xe0b]
00003DD3  0000              add [bx+si],al
00003DD5  83C004            add ax,byte +0x4
00003DD8  8B3D              mov di,[di]
00003DDA  55                push bp
00003DDB  0E                push cs
00003DDC  0000              add [bx+si],al
00003DDE  8938              mov [bx+si],di
00003DE0  A10B0E            mov ax,[0xe0b]
00003DE3  0000              add [bx+si],al
00003DE5  83C008            add ax,byte +0x8
00003DE8  8B7DD8            mov di,[di-0x28]
00003DEB  8938              mov [bx+si],di
00003DED  A1550E            mov ax,[0xe55]
00003DF0  0000              add [bx+si],al
00003DF2  83C008            add ax,byte +0x8
00003DF5  8B3D              mov di,[di]
00003DF7  0B0E0000          or cx,[0x0]
00003DFB  8938              mov [bx+si],di
00003DFD  8B45D8            mov ax,[di-0x28]
00003E00  83C004            add ax,byte +0x4
00003E03  8B3D              mov di,[di]
00003E05  0B0E0000          or cx,[0x0]
00003E09  8938              mov [bx+si],di
00003E0B  8B45F0            mov ax,[di-0x10]
00003E0E  0105              add [di],ax
00003E10  330E0000          xor cx,[0x0]
00003E14  FF35              push word [di]
00003E16  330E0000          xor cx,[0x0]
00003E1A  8D45DC            lea ax,[di-0x24]
00003E1D  50                push ax
00003E1E  E82101            call 0x3f42
00003E21  0000              add [bx+si],al
00003E23  A3070E            mov [0xe07],ax
00003E26  0000              add [bx+si],al
00003E28  8B1D              mov bx,[di]
00003E2A  330E0000          xor cx,[0x0]
00003E2E  011D              add [di],bx
00003E30  330E0000          xor cx,[0x0]
00003E34  8B45DC            mov ax,[di-0x24]
00003E37  83E808            sub ax,byte +0x8
00003E3A  8B5DF0            mov bx,[di-0x10]
00003E3D  85DB              test bx,bx
00003E3F  7C02              jl 0x3e43
00003E41  3BC3              cmp ax,bx
00003E43  7D59              jnl 0x3e9e
00003E45  33C0              xor ax,ax
00003E47  8945E8            mov [di-0x18],ax
00003E4A  833DE9            cmp word [di],byte -0x17
00003E4D  1101              adc [bx+di],ax
00003E4F  0000              add [bx+si],al
00003E51  740C              jz 0x3e5f
00003E53  FF75DC            push word [di-0x24]
00003E56  FF15              call near [di]
00003E58  E91101            jmp 0x3f6c
00003E5B  008945E8          add [bx+di+0xe845],cl
00003E5F  8B45E8            mov ax,[di-0x18]
00003E62  3D0000            cmp ax,0x0
00003E65  0000              add [bx+si],al
00003E67  750C              jnz 0x3e75
00003E69  68CB00            push word 0xcb
00003E6C  0000              add [bx+si],al
00003E6E  E8AD00            call 0x3f1e
00003E71  0000              add [bx+si],al
00003E73  EB29              jmp short 0x3e9e
00003E75  3D0100            cmp ax,0x1
00003E78  0000              add [bx+si],al
00003E7A  750E              jnz 0x3e8a
00003E7C  8B7D0C            mov di,[di+0xc]
00003E7F  33F6              xor si,si
00003E81  8937              mov [bx],si
00003E83  E98400            jmp 0x3f0a
00003E86  0000              add [bx+si],al
00003E88  EB14              jmp short 0x3e9e
00003E8A  3D0200            cmp ax,0x2
00003E8D  0000              add [bx+si],al
00003E8F  750D              jnz 0x3e9e
00003E91  FF750C            push word [di+0xc]
00003E94  FF7508            push word [di+0x8]
00003E97  E8DCFD            call 0x3c76
00003E9A  FF                db 0xFF
00003E9B  FF                db 0xFF
00003E9C  EB6E              jmp short 0x3f0c
00003E9E  8B45DC            mov ax,[di-0x24]
00003EA1  83E0F0            and ax,byte -0x10
00003EA4  8945DC            mov [di-0x24],ax
00003EA7  8B1D              mov bx,[di]
00003EA9  07                pop es
00003EAA  0E                push cs
00003EAB  0000              add [bx+si],al
00003EAD  83C304            add bx,byte +0x4
00003EB0  891D              mov [di],bx
00003EB2  0B0E0000          or cx,[0x0]
00003EB6  A1070E            mov ax,[0xe07]
00003EB9  0000              add [bx+si],al
00003EBB  0345DC            add ax,[di-0x24]
00003EBE  83E804            sub ax,byte +0x4
00003EC1  A30F0E            mov [0xe0f],ax
00003EC4  0000              add [bx+si],al
00003EC6  C700FFFF          mov word [bx+si],0xffff
00003ECA  FF                db 0xFF
00003ECB  FFA1070E          jmp near [bx+di+0xe07]
00003ECF  0000              add [bx+si],al
00003ED1  C700FFFF          mov word [bx+si],0xffff
00003ED5  FF                db 0xFF
00003ED6  FFA10B0E          jmp near [bx+di+0xe0b]
00003EDA  0000              add [bx+si],al
00003EDC  8945F4            mov [di-0xc],ax
00003EDF  8B45F0            mov ax,[di-0x10]
00003EE2  0105              add [di],ax
00003EE4  0B0E0000          or cx,[0x0]
00003EE8  8B45F0            mov ax,[di-0x10]
00003EEB  F7D8              neg ax
00003EED  8B7DF4            mov di,[di-0xc]
00003EF0  8907              mov [bx],ax
00003EF2  8B5DF0            mov bx,[di-0x10]
00003EF5  F7DB              neg bx
00003EF7  A10B0E            mov ax,[0xe0b]
00003EFA  0000              add [bx+si],al
00003EFC  83E804            sub ax,byte +0x4
00003EFF  8918              mov [bx+si],bx
00003F01  8B45F4            mov ax,[di-0xc]
00003F04  83C004            add ax,byte +0x4
00003F07  8B7D0C            mov di,[di+0xc]
00003F0A  8907              mov [bx],ax
00003F0C  5A                pop dx
00003F0D  59                pop cx
00003F0E  5B                pop bx
00003F0F  C9                leave
00003F10  C20800            ret 0x8
00003F13  0000              add [bx+si],al
00003F15  0000              add [bx+si],al
00003F17  0000              add [bx+si],al
00003F19  0000              add [bx+si],al
00003F1B  0000              add [bx+si],al
00003F1D  0000              add [bx+si],al
00003F1F  00558B            add [di-0x75],dl
00003F22  EC                in al,dx
00003F23  FF7508            push word [di+0x8]
00003F26  8D4508            lea ax,[di+0x8]
00003F29  83E808            sub ax,byte +0x8
00003F2C  FF30              push word [bx+si]
00003F2E  8D4508            lea ax,[di+0x8]
00003F31  83E804            sub ax,byte +0x4
00003F34  FF30              push word [bx+si]
00003F36  E8C1F5            call 0x34fa
00003F39  FF                db 0xFF
00003F3A  FFC9              dec cx
00003F3C  C20400            ret 0x4
00003F3F  0000              add [bx+si],al
00003F41  0100              add [bx+si],ax
00003F43  00558B            add [di-0x75],dl
00003F46  EC                in al,dx
00003F47  53                push bx
00003F48  51                push cx
00003F49  52                push dx
00003F4A  66B842EE8B55      mov eax,0x558bee42
00003F50  0CCD              or al,0xcd
00003F52  318B4D08          xor [bp+di+0x84d],cx
00003F56  8901              mov [bx+di],ax
00003F58  89D0              mov ax,dx
00003F5A  5A                pop dx
00003F5B  59                pop cx
00003F5C  5B                pop bx
00003F5D  C9                leave
00003F5E  C20800            ret 0x8
00003F61  59                pop cx
00003F62  0E                push cs
00003F63  0000              add [bx+si],al
00003F65  0000              add [bx+si],al
00003F67  0000              add [bx+si],al
00003F69  59                pop cx
00003F6A  0E                push cs
00003F6B  0000              add [bx+si],al
00003F6D  59                pop cx
00003F6E  0E                push cs
00003F6F  0000              add [bx+si],al
00003F71  0000              add [bx+si],al
00003F73  0000              add [bx+si],al
00003F75  0000              add [bx+si],al
00003F77  00C8              add al,cl
00003F79  0C00              or al,0x0
00003F7B  00833DEC          add [bp+di+0xec3d],al
00003F7F  0300              add ax,[bx+si]
00003F81  0000              add [bx+si],al
00003F83  7407              jz 0x3f8c
00003F85  6A00              push byte +0x0
00003F87  E894FF            call 0x3f1e
00003F8A  FF                db 0xFF
00003F8B  FF833DE4          inc word [bp+di+0xe43d]
00003F8F  0300              add ax,[bx+si]
00003F91  0000              add [bx+si],al
00003F93  7431              jz 0x3fc6
00003F95  A1E403            mov ax,[0x3e4]
00003F98  0000              add [bx+si],al
00003F9A  2B05              sub ax,[di]
00003F9C  E80300            call 0x3fa2
00003F9F  008945F4          add [bx+di+0xf445],cl
00003FA3  8B3D              mov di,[di]
00003FA5  E403              in al,0x3
00003FA7  0000              add [bx+si],al
00003FA9  8B07              mov ax,[bx]
00003FAB  A3E403            mov [0x3e4],ax
00003FAE  0000              add [bx+si],al
00003FB0  8D45F4            lea ax,[di-0xc]
00003FB3  50                push ax
00003FB4  33C0              xor ax,ax
00003FB6  B004              mov al,0x4
00003FB8  0305              add ax,[di]
00003FBA  E80300            call 0x3fc0
00003FBD  0050E8            add [bx+si-0x18],dl
00003FC0  0400              add al,0x0
00003FC2  0000              add [bx+si],al
00003FC4  EBC6              jmp short 0x3f8c
00003FC6  C9                leave
00003FC7  C3                ret
00003FC8  C8180000          enter 0x18,0x0
00003FCC  53                push bx
00003FCD  8B450C            mov ax,[di+0xc]
00003FD0  833800            cmp word [bx+si],byte +0x0
00003FD3  7505              jnz 0x3fda
00003FD5  E96701            jmp 0x413f
00003FD8  0000              add [bx+si],al
00003FDA  8B450C            mov ax,[di+0xc]
00003FDD  8B00              mov ax,[bx+si]
00003FDF  83E804            sub ax,byte +0x4
00003FE2  8945F4            mov [di-0xc],ax
00003FE5  8B7D0C            mov di,[di+0xc]
00003FE8  33C0              xor ax,ax
00003FEA  8907              mov [bx],ax
00003FEC  8B7DF4            mov di,[di-0xc]
00003FEF  8B07              mov ax,[bx]
00003FF1  F7D8              neg ax
00003FF3  8945F0            mov [di-0x10],ax
00003FF6  8B7DF4            mov di,[di-0xc]
00003FF9  8B45F0            mov ax,[di-0x10]
00003FFC  8907              mov [bx],ax
00003FFE  8B45F4            mov ax,[di-0xc]
00004001  0345F0            add ax,[di-0x10]
00004004  83E804            sub ax,byte +0x4
00004007  8B7DF0            mov di,[di-0x10]
0000400A  8938              mov [bx+si],di
0000400C  8B45F4            mov ax,[di-0xc]
0000400F  83E804            sub ax,byte +0x4
00004012  833800            cmp word [bx+si],byte +0x0
00004015  7E6B              jng 0x4082
00004017  8B45F4            mov ax,[di-0xc]
0000401A  83E804            sub ax,byte +0x4
0000401D  8B00              mov ax,[bx+si]
0000401F  2945F4            sub [di-0xc],ax
00004022  8B45F4            mov ax,[di-0xc]
00004025  8B00              mov ax,[bx+si]
00004027  0145F0            add [di-0x10],ax
0000402A  8B45F4            mov ax,[di-0xc]
0000402D  8B7DF0            mov di,[di-0x10]
00004030  8938              mov [bx+si],di
00004032  8B45F4            mov ax,[di-0xc]
00004035  0345F0            add ax,[di-0x10]
00004038  83E804            sub ax,byte +0x4
0000403B  8B7DF0            mov di,[di-0x10]
0000403E  8938              mov [bx+si],di
00004040  8B45F4            mov ax,[di-0xc]
00004043  83C008            add ax,byte +0x8
00004046  8B5DF4            mov bx,[di-0xc]
00004049  83C304            add bx,byte +0x4
0000404C  8B1B              mov bx,[bp+di]
0000404E  83C308            add bx,byte +0x8
00004051  8B00              mov ax,[bx+si]
00004053  8903              mov [bp+di],ax
00004055  8B45F4            mov ax,[di-0xc]
00004058  83C004            add ax,byte +0x4
0000405B  8B5DF4            mov bx,[di-0xc]
0000405E  83C308            add bx,byte +0x8
00004061  8B1B              mov bx,[bp+di]
00004063  83C304            add bx,byte +0x4
00004066  8B00              mov ax,[bx+si]
00004068  8903              mov [bp+di],ax
0000406A  A1550E            mov ax,[0xe55]
0000406D  0000              add [bx+si],al
0000406F  3945F4            cmp [di-0xc],ax
00004072  750E              jnz 0x4082
00004074  8B5DF4            mov bx,[di-0xc]
00004077  83C304            add bx,byte +0x4
0000407A  8B3B              mov di,[bp+di]
0000407C  893D              mov [di],di
0000407E  55                push bp
0000407F  0E                push cs
00004080  0000              add [bx+si],al
00004082  8B45F4            mov ax,[di-0xc]
00004085  0345F0            add ax,[di-0x10]
00004088  8945EC            mov [di-0x14],ax
0000408B  3905              cmp [di],ax
0000408D  0B0E0000          or cx,[0x0]
00004091  750E              jnz 0x40a1
00004093  8B7DF4            mov di,[di-0xc]
00004096  893D              mov [di],di
00004098  0B0E0000          or cx,[0x0]
0000409C  E9A000            jmp 0x413f
0000409F  0000              add [bx+si],al
000040A1  833800            cmp word [bx+si],byte +0x0
000040A4  7E5D              jng 0x4103
000040A6  83C008            add ax,byte +0x8
000040A9  8B5DEC            mov bx,[di-0x14]
000040AC  83C304            add bx,byte +0x4
000040AF  8B1B              mov bx,[bp+di]
000040B1  83C308            add bx,byte +0x8
000040B4  8B00              mov ax,[bx+si]
000040B6  8903              mov [bp+di],ax
000040B8  8B45EC            mov ax,[di-0x14]
000040BB  83C004            add ax,byte +0x4
000040BE  8B5DEC            mov bx,[di-0x14]
000040C1  83C308            add bx,byte +0x8
000040C4  8B1B              mov bx,[bp+di]
000040C6  83C304            add bx,byte +0x4
000040C9  8B00              mov ax,[bx+si]
000040CB  8903              mov [bp+di],ax
000040CD  A1550E            mov ax,[0xe55]
000040D0  0000              add [bx+si],al
000040D2  3945EC            cmp [di-0x14],ax
000040D5  750E              jnz 0x40e5
000040D7  8B5DEC            mov bx,[di-0x14]
000040DA  83C304            add bx,byte +0x4
000040DD  8B3B              mov di,[bp+di]
000040DF  893D              mov [di],di
000040E1  55                push bp
000040E2  0E                push cs
000040E3  0000              add [bx+si],al
000040E5  8B45EC            mov ax,[di-0x14]
000040E8  8B18              mov bx,[bx+si]
000040EA  015DF0            add [di-0x10],bx
000040ED  8B45F4            mov ax,[di-0xc]
000040F0  8B7DF0            mov di,[di-0x10]
000040F3  8938              mov [bx+si],di
000040F5  8B45F4            mov ax,[di-0xc]
000040F8  0345F0            add ax,[di-0x10]
000040FB  83E804            sub ax,byte +0x4
000040FE  8B7DF0            mov di,[di-0x10]
00004101  8938              mov [bx+si],di
00004103  A1550E            mov ax,[0xe55]
00004106  0000              add [bx+si],al
00004108  83C008            add ax,byte +0x8
0000410B  8B00              mov ax,[bx+si]
0000410D  8945E8            mov [di-0x18],ax
00004110  8B45F4            mov ax,[di-0xc]
00004113  83C004            add ax,byte +0x4
00004116  8B3D              mov di,[di]
00004118  55                push bp
00004119  0E                push cs
0000411A  0000              add [bx+si],al
0000411C  8938              mov [bx+si],di
0000411E  8B45F4            mov ax,[di-0xc]
00004121  83C008            add ax,byte +0x8
00004124  8B7DE8            mov di,[di-0x18]
00004127  8938              mov [bx+si],di
00004129  A1550E            mov ax,[0xe55]
0000412C  0000              add [bx+si],al
0000412E  83C008            add ax,byte +0x8
00004131  8B7DF4            mov di,[di-0xc]
00004134  8938              mov [bx+si],di
00004136  8B45E8            mov ax,[di-0x18]
00004139  83C004            add ax,byte +0x4
0000413C  8B7DF4            mov di,[di-0xc]
0000413F  8938              mov [bx+si],di
00004141  5B                pop bx
00004142  C9                leave
00004143  C20800            ret 0x8
00004146  0000              add [bx+si],al
00004148  0000              add [bx+si],al
0000414A  0000              add [bx+si],al
0000414C  0000              add [bx+si],al
0000414E  0000              add [bx+si],al
00004150  11AB3FC2          adc [bp+di+0xc23f],bp
00004154  2C2E              sub al,0x2e
00004156  C64011AB          mov byte [bx+si+0x11],0xab
0000415A  3F                aas
0000415B  C22C2E            ret 0x2e2c
0000415E  C6C055            mov al,0x55
00004161  8D6C24            lea bp,[si+0x24]
00004164  FC                cld
00004165  C8080000          enter 0x8,0x0
00004169  57                push di
0000416A  56                push si
0000416B  53                push bx
0000416C  51                push cx
0000416D  66C745F8500066C7  mov dword [di-0x8],0xc7660050
00004175  052512            add ax,0x1225
00004178  0100              add [bx+si],ax
0000417A  0000              add [bx+si],al
0000417C  66FF05            inc dword [di]
0000417F  251201            and ax,0x112
00004182  000F              add [bx],cl
00004184  BF0525            mov di,0x2505
00004187  1201              adc al,[bx+di]
00004189  000F              add [bx],cl
0000418B  BFD80F            mov di,0xfd8
0000418E  B61C              mov dh,0x1c
00004190  1DC812            sbb ax,0x12c8
00004193  0100              add [bx+si],ax
00004195  0F                db 0x0F
00004196  BFC80F            mov di,0xfc8
00004199  B60C              mov dh,0xc
0000419B  0D7812            or ax,0x1278
0000419E  0100              add [bx+si],ax
000041A0  03CB              add cx,bx
000041A2  880C              mov [si],cl
000041A4  052812            add ax,0x1228
000041A7  0100              add [bx+si],ax
000041A9  66FF4DF8          dec dword [di-0x8]
000041AD  75CD              jnz 0x417c
000041AF  59                pop cx
000041B0  5B                pop bx
000041B1  5E                pop si
000041B2  5F                pop di
000041B3  C9                leave
000041B4  5D                pop bp
000041B5  C3                ret
000041B6  0000              add [bx+si],al
000041B8  55                push bp
000041B9  8D6C24            lea bp,[si+0x24]
000041BC  FC                cld
000041BD  55                push bp
000041BE  8BEC              mov bp,sp
000041C0  57                push di
000041C1  56                push si
000041C2  6A00              push byte +0x0
000041C4  E80700            call 0x41ce
000041C7  0000              add [bx+si],al
000041C9  5E                pop si
000041CA  5F                pop di
000041CB  C9                leave
000041CC  5D                pop bp
000041CD  C3                ret
000041CE  0000              add [bx+si],al
000041D0  55                push bp
000041D1  8BEC              mov bp,sp
000041D3  33C0              xor ax,ax
000041D5  A3E511            mov [0x11e5],ax
000041D8  0100              add [bx+si],ax
000041DA  8B7D08            mov di,[di+0x8]
000041DD  893D              mov [di],di
000041DF  3E0800            or [ds:bx+si],al
000041E2  00E8              add al,ch
000041E4  34F7              xor al,0xf7
000041E6  FF                db 0xFF
000041E7  FF                db 0xFF
000041E8  FF7508            push word [di+0x8]
000041EB  E848F3            call 0x3536
000041EE  FF                db 0xFF
000041EF  FFC9              dec cx
000041F1  C20400            ret 0x4
000041F4  E817EF            call 0x310e
000041F7  FF                db 0xFF
000041F8  FF                db 0xFF
000041F9  E822EF            call 0x311e
000041FC  FF                db 0xFF
000041FD  FF                db 0xFF
000041FE  E82DEF            call 0x312e
00004201  FF                db 0xFF
00004202  FF                db 0xFF
00004203  E838EF            call 0x313e
00004206  FF                db 0xFF
00004207  FF                db 0xFF
00004208  E843EF            call 0x314e
0000420B  FF                db 0xFF
0000420C  FF                db 0xFF
0000420D  E84EEF            call 0x315e
00004210  FF                db 0xFF
00004211  FF                db 0xFF
00004212  E849FF            call 0x415e
00004215  FF                db 0xFF
00004216  FF                db 0xFF
00004217  E89CFF            call 0x41b6
0000421A  FF                db 0xFF
0000421B  FFC3              inc bx
0000421D  3002              xor [bp+si],al
0000421F  0000              add [bx+si],al
00004221  A30200            mov [0x2],ax
00004224  00910200          add [bx+di+0x2],dl
00004228  007002            add [bx+si+0x2],dh
0000422B  0000              add [bx+si],al
0000422D  5E                pop si
0000422E  0200              add al,[bx+si]
00004230  0023              add [bp+di],ah
00004232  0200              add al,[bx+si]
00004234  004003            add [bx+si+0x3],al
00004237  0000              add [bx+si],al
00004239  3103              xor [bp+di],ax
0000423B  0000              add [bx+si],al
0000423D  2003              and [bp+di],al
0000423F  0000              add [bx+si],al
00004241  1B03              sbb ax,[bp+di]
00004243  0000              add [bx+si],al
00004245  D803              fadd dword [bp+di]
00004247  0000              add [bx+si],al
00004249  CF                iret
0000424A  0300              add ax,[bx+si]
0000424C  00D2              add dl,dl
0000424E  0400              add al,0x0
00004250  008E0400          add [bp+0x4],cl
00004254  006407            add [si+0x7],ah
00004257  0000              add [bx+si],al
00004259  1307              adc ax,[bx]
0000425B  0000              add [bx+si],al
0000425D  0907              or [bx],ax
0000425F  0000              add [bx+si],al
00004261  F8                clc
00004262  06                push es
00004263  0000              add [bx+si],al
00004265  7F06              jg 0x426d
00004267  0000              add [bx+si],al
00004269  51                push cx
0000426A  0400              add al,0x0
0000426C  004604            add [bp+0x4],al
0000426F  0000              add [bx+si],al
00004271  2004              and [si],al
00004273  0000              add [bx+si],al
00004275  0E                push cs
00004276  0400              add al,0x0
00004278  002F              add [bx],ch
0000427A  0800              or [bx+si],al
0000427C  0023              add [bp+di],ah
0000427E  0800              or [bx+si],al
00004280  001B              add [bp+di],bl
00004282  0800              or [bx+si],al
00004284  0003              add [bp+di],al
00004286  0400              add al,0x0
00004288  00FB              add bl,bh
0000428A  0300              add ax,[bx+si]
0000428C  007E08            add [bp+0x8],bh
0000428F  0000              add [bx+si],al
00004291  7108              jno 0x429b
00004293  0000              add [bx+si],al
00004295  61                popa
00004296  0800              or [bx+si],al
00004298  00920300          add [bp+si+0x3],dl
0000429C  0012              add [bp+si],dl
0000429E  0200              add al,[bx+si]
000042A0  00060200          add [0x2],al
000042A4  00EA              add dl,ch
000042A6  0800              or [bx+si],al
000042A8  00FA              add dl,bh
000042AA  0100              add [bx+si],ax
000042AC  00EE              add dh,ch
000042AE  0100              add [bx+si],ax
000042B0  00E2              add dl,ah
000042B2  0100              add [bx+si],ax
000042B4  00D6              add dh,dl
000042B6  0100              add [bx+si],ax
000042B8  00CA              add dl,cl
000042BA  0100              add [bx+si],ax
000042BC  00BE0100          add [bp+0x1],bh
000042C0  00B20100          add [bp+si+0x1],dh
000042C4  0033              add [bp+di],dh
000042C6  0900              or [bx+si],ax
000042C8  0029              add [bx+di],ch
000042CA  0900              or [bx+si],ax
000042CC  00A60100          add [bp+0x1],ah
000042D0  005E09            add [bp+0x9],bl
000042D3  0000              add [bx+si],al
000042D5  9A0100008E        call 0x8e00:0x1
000042DA  0100              add [bx+si],ax
000042DC  009E0900          add [bp+0x9],bl
000042E0  00820100          add [bp+si+0x1],al
000042E4  007601            add [bp+0x1],dh
000042E7  0000              add [bx+si],al
000042E9  DE09              fimul word [bx+di]
000042EB  0000              add [bx+si],al
000042ED  6A01              push byte +0x1
000042EF  0000              add [bx+si],al
000042F1  5E                pop si
000042F2  0100              add [bx+si],ax
000042F4  005201            add [bp+si+0x1],dl
000042F7  0000              add [bx+si],al
000042F9  46                inc si
000042FA  0100              add [bx+si],ax
000042FC  001E0A00          add [0xa],bl
00004300  003A              add [bp+si],bh
00004302  0100              add [bx+si],ax
00004304  002E0100          add [0x1],ch
00004308  001C              add [si],bl
0000430A  0100              add [bx+si],ax
0000430C  000B              add [bp+di],cl
0000430E  0100              add [bx+si],ax
00004310  0004              add [si],al
00004312  0100              add [bx+si],ax
00004314  00FD              add ch,bh
00004316  0000              add [bx+si],al
00004318  00F6              add dh,dh
0000431A  0000              add [bx+si],al
0000431C  00E1              add cl,ah
0000431E  0000              add [bx+si],al
00004320  00D0              add al,dl
00004322  0000              add [bx+si],al
00004324  00C9              add cl,cl
00004326  0000              add [bx+si],al
00004328  00C2              add dl,al
0000432A  0000              add [bx+si],al
0000432C  00BB0000          add [bp+di+0x0],bh
00004330  0017              add [bx],dl
00004332  0B00              or ax,[bx+si]
00004334  000A              add [bp+si],cl
00004336  0B00              or ax,[bx+si]
00004338  0004              add [si],al
0000433A  0B00              or ax,[bx+si]
0000433C  00FE              add dh,bh
0000433E  0A00              or al,[bx+si]
00004340  00F8              add al,bh
00004342  0A00              or al,[bx+si]
00004344  00F2              add dl,dh
00004346  0A00              or al,[bx+si]
00004348  00EC              add ah,ch
0000434A  0A00              or al,[bx+si]
0000434C  00630B            add [bp+di+0xb],ah
0000434F  0000              add [bx+si],al
00004351  59                pop cx
00004352  0B00              or ax,[bx+si]
00004354  00F0              add al,dh
00004356  0D0000            or ax,0x0
00004359  DC0D              fmul qword [di]
0000435B  0000              add [bx+si],al
0000435D  D00D              ror byte [di],1
0000435F  0000              add [bx+si],al
00004361  C50D              lds cx,[di]
00004363  0000              add [bx+si],al
00004365  BA0D00            mov dx,0xd
00004368  00AF0D00          add [bx+0xd],ch
0000436C  00AA0D00          add [bp+si+0xd],ch
00004370  00A10D00          add [bx+di+0xd],ah
00004374  00500D            add [bx+si+0xd],dl
00004377  0000              add [bx+si],al
00004379  44                inc sp
0000437A  0D0000            or ax,0x0
0000437D  280D              sub [di],cl
0000437F  0000              add [bx+si],al
00004381  220D              and cl,[di]
00004383  0000              add [bx+si],al
00004385  1C0D              sbb al,0xd
00004387  0000              add [bx+si],al
00004389  0E                push cs
0000438A  0D0000            or ax,0x0
0000438D  080D              or [di],cl
0000438F  0000              add [bx+si],al
00004391  FD                std
00004392  0C00              or al,0x0
00004394  00EF              add bh,ch
00004396  0C00              or al,0x0
00004398  00650E            add [di+0xe],ah
0000439B  0000              add [bx+si],al
0000439D  61                popa
0000439E  0E                push cs
0000439F  0000              add [bx+si],al
000043A1  59                pop cx
000043A2  0E                push cs
000043A3  0000              add [bx+si],al
000043A5  E60C              out 0xc,al
000043A7  0000              add [bx+si],al
000043A9  D9                db 0xD9
000043AA  0C00              or al,0x0
000043AC  00D2              add dl,dl
000043AE  0C00              or al,0x0
000043B0  00C9              add cl,cl
000043B2  0C00              or al,0x0
000043B4  00BC0C00          add [si+0xc],bh
000043B8  00AF0C00          add [bx+0xc],ch
000043BC  00A50C00          add [di+0xc],ah
000043C0  009D0C00          add [di+0xc],bl
000043C4  008B0C00          add [bp+di+0xc],cl
000043C8  00850C00          add [di+0xc],al
000043CC  00790C            add [bx+di+0xc],bh
000043CF  0000              add [bx+si],al
000043D1  4D                dec bp
000043D2  0C00              or al,0x0
000043D4  003B              add [bp+di],bh
000043D6  0C00              or al,0x0
000043D8  0027              add [bx],ah
000043DA  0C00              or al,0x0
000043DC  00D0              add al,dl
000043DE  0B00              or ax,[bx+si]
000043E0  00780B            add [bx+si+0xb],bh
000043E3  0000              add [bx+si],al
000043E5  310B              xor [bp+di],cx
000043E7  0000              add [bx+si],al
000043E9  2210              and dl,[bx+si]
000043EB  0000              add [bx+si],al
000043ED  1010              adc [bx+si],dl
000043EF  0000              add [bx+si],al
000043F1  FC                cld
000043F2  0F0000            sldt [bx+si]
000043F5  D9                db 0xD9
000043F6  0F0000            sldt [bx+si]
000043F9  C6                db 0xC6
000043FA  0F0000            sldt [bx+si]
000043FD  90                nop
000043FE  0F0000            sldt [bx+si]
00004401  850F              test [bx],cx
00004403  0000              add [bx+si],al
00004405  760F              jna 0x4416
00004407  0000              add [bx+si],al
00004409  630F              arpl [bx],cx
0000440B  0000              add [bx+si],al
0000440D  B20E              mov dl,0xe
0000440F  0000              add [bx+si],al
00004411  A4                movsb
00004412  0E                push cs
00004413  0000              add [bx+si],al
00004415  9D                popf
00004416  0E                push cs
00004417  0000              add [bx+si],al
00004419  94                xchg ax,sp
0000441A  0E                push cs
0000441B  0000              add [bx+si],al
0000441D  8E                db 0x8E
0000441E  0E                push cs
0000441F  0000              add [bx+si],al
00004421  860E0000          xchg cl,[0x0]
00004425  760E              jna 0x4435
00004427  0000              add [bx+si],al
00004429  A00000            mov al,[0x0]
0000442C  00990000          add [bx+di+0x0],bl
00004430  00920000          add [bp+si+0x0],dl
00004434  008C0000          add [si+0x0],cl
00004438  00850000          add [di+0x0],al
0000443C  007F00            add [bx+0x0],bh
0000443F  0000              add [bx+si],al
00004441  7500              jnz 0x4443
00004443  0000              add [bx+si],al
00004445  6E                outsb
00004446  0000              add [bx+si],al
00004448  006800            add [bx+si+0x0],ch
0000444B  0000              add [bx+si],al
0000444D  9D                popf
0000444E  1000              adc [bx+si],al
00004450  00941000          add [si+0x10],dl
00004454  00891000          add [bx+di+0x10],cl
00004458  007E10            add [bp+0x10],bh
0000445B  0000              add [bx+si],al
0000445D  7710              ja 0x446f
0000445F  0000              add [bx+si],al
00004461  6E                outsb
00004462  1000              adc [bx+si],al
00004464  00D7              add bh,dl
00004466  1000              adc [bx+si],al
00004468  00CE              add dh,cl
0000446A  1000              adc [bx+si],al
0000446C  00                db 0x00
